

Microchip Technology PIC18 LITE Macro Assembler V1.41 build -162212810 
                                                                                               Mon May 17 22:53:33 2021

Microchip Technology Omniscient Code Generator v1.41 (Free mode) build 201701250102
     1                           	processor	18F25K22
     2                           	fnconf	rparam,??,?,0
     3                           	opt	pw 120
     4                           	opt	lm
     5                           	psect	idataCOMRAM,global,class=CODE,delta=1,noexec
     6                           	psect	cinit,global,reloc=2,class=CODE,delta=1
     7                           	psect	bssCOMRAM,global,class=COMRAM,space=1,delta=1,noexec
     8                           	psect	dataCOMRAM,global,class=COMRAM,space=1,delta=1,noexec
     9                           	psect	bssBANK0,global,class=BANK0,space=1,delta=1,lowdata,noexec
    10                           	psect	bssBANK1,global,class=BANK1,space=1,delta=1,lowdata,noexec
    11                           	psect	bssBANK2,global,class=BANK2,space=1,delta=1,lowdata,noexec
    12                           	psect	bssBANK3,global,class=BANK3,space=1,delta=1,lowdata,noexec
    13                           	psect	bssBANK4,global,class=BANK4,space=1,delta=1,lowdata,noexec
    14                           	psect	bssBANK5,global,class=BANK5,space=1,delta=1,lowdata,noexec
    15                           	psect	cstackBANK0,global,class=BANK0,space=1,delta=1,noexec
    16                           	psect	cstackCOMRAM,global,class=COMRAM,space=1,delta=1,noexec
    17                           	psect	text0,global,reloc=2,class=CODE,delta=1
    18                           	psect	text1,global,reloc=2,class=CODE,delta=1
    19                           	psect	text2,global,reloc=2,class=CODE,delta=1
    20                           	psect	text3,global,reloc=2,class=CODE,delta=1
    21                           	psect	text4,global,reloc=2,class=CODE,delta=1
    22                           	psect	text5,global,reloc=2,class=CODE,delta=1
    23                           	psect	text6,global,reloc=2,class=CODE,delta=1
    24                           	psect	text7,global,reloc=2,class=CODE,delta=1
    25                           	psect	text8,global,reloc=2,class=CODE,delta=1
    26                           	psect	text9,global,reloc=2,class=CODE,delta=1
    27                           	psect	intcode,global,reloc=2,class=CODE,delta=1
    28                           	psect	text11,global,reloc=2,class=CODE,delta=1
    29                           	psect	text12,global,reloc=2,class=CODE,delta=1
    30                           	psect	text13,global,reloc=2,class=CODE,delta=1
    31                           	psect	text14,global,reloc=2,class=CODE,delta=1
    32                           	psect	text15,global,reloc=2,class=CODE,delta=1
    33                           	psect	text16,global,reloc=2,class=CODE,delta=1
    34                           	psect	text17,global,reloc=2,class=CODE,delta=1
    35                           	psect	text18,global,reloc=2,class=CODE,delta=1
    36                           	psect	text19,global,reloc=2,class=CODE,delta=1
    37                           	psect	text20,global,reloc=2,class=CODE,delta=1
    38                           	psect	text21,global,reloc=2,class=CODE,delta=1
    39                           	psect	text22,global,reloc=2,class=CODE,delta=1
    40                           	psect	text23,global,reloc=2,class=CODE,delta=1
    41                           	psect	text24,global,reloc=2,class=CODE,delta=1
    42                           	psect	text25,global,reloc=2,class=CODE,delta=1
    43                           	psect	text26,global,reloc=2,class=CODE,delta=1
    44                           	psect	text27,global,reloc=2,class=CODE,delta=1
    45                           	psect	text28,global,reloc=2,class=CODE,delta=1
    46                           	psect	text29,global,reloc=2,class=CODE,delta=1
    47                           	psect	text30,global,reloc=2,class=CODE,delta=1
    48                           	psect	text31,global,reloc=2,class=CODE,delta=1
    49                           	psect	text32,global,reloc=2,class=CODE,delta=1
    50                           	psect	text33,global,reloc=2,class=CODE,delta=1
    51                           	psect	text34,global,reloc=2,class=CODE,delta=1
    52                           	psect	text35,global,reloc=2,class=CODE,delta=1
    53                           	psect	text36,global,reloc=2,class=CODE,delta=1
    54                           	psect	text37,global,reloc=2,class=CODE,delta=1
    55                           	psect	text38,global,reloc=2,class=CODE,delta=1
    56                           	psect	text39,global,reloc=2,class=CODE,delta=1
    57                           	psect	text40,global,reloc=2,class=CODE,delta=1
    58                           	psect	text41,global,reloc=2,class=CODE,delta=1
    59                           	psect	text42,global,reloc=2,class=CODE,delta=1
    60                           	psect	text43,global,reloc=2,class=CODE,delta=1
    61                           	psect	intsave_regs,global,class=BIGRAM,space=1,delta=1,noexec
    62                           	psect	rparam,global,class=COMRAM,space=1,delta=1,noexec
    63                           	psect	temp,global,ovrld,common,class=COMRAM,space=1,delta=1
    64  0000                     
    65                           ; Version 1.41
    66                           ; Generated 25/01/2017 GMT
    67                           ; 
    68                           ; Copyright © 2017, Microchip Technology Inc. and its subsidiaries ("Microchip")
    69                           ; All rights reserved.
    70                           ; 
    71                           ; This software is developed by Microchip Technology Inc. and its subsidiaries ("Microch
      +                          ip").
    72                           ; 
    73                           ; Redistribution and use in source and binary forms, with or without modification, are
    74                           ; permitted provided that the following conditions are met:
    75                           ; 
    76                           ;     1. Redistributions of source code must retain the above copyright notice, this lis
      +                          t of
    77                           ;        conditions and the following disclaimer.
    78                           ; 
    79                           ;     2. Redistributions in binary form must reproduce the above copyright notice, this 
      +                          list
    80                           ;        of conditions and the following disclaimer in the documentation and/or other
    81                           ;        materials provided with the distribution.
    82                           ; 
    83                           ;     3. Microchip's name may not be used to endorse or promote products derived from th
      +                          is
    84                           ;        software without specific prior written permission.
    85                           ; 
    86                           ; THIS SOFTWARE IS PROVIDED BY MICROCHIP "AS IS" AND ANY EXPRESS OR IMPLIED WARRANTIES,
    87                           ; INCLUDING, BUT NOT LIMITED TO, THE IMPLIED WARRANTIES OF MERCHANTABILITY AND FITNESS F
      +                          OR
    88                           ; PURPOSE ARE DISCLAIMED.  IN NO EVENT SHALL MICROCHIP BE LIABLE FOR ANY DIRECT, INDIREC
      +                          T,
    89                           ; INCIDENTAL, SPECIAL, EXEMPLARY, OR CONSEQUENTIAL DAMAGES (INCLUDING BUT NOT LIMITED TO
    90                           ; PROCUREMENT OF SUBSTITUTE GOODS OR SERVICES; LOSS OF USE, DATA OR PROFITS; OR BUSINESS
    91                           ; INTERRUPTION) HOWSOEVER CAUSED AND ON ANY THEORY OF LIABILITY, WHETHER IN CONTRACT, ST
      +                          RICT
    92                           ; LIABILITY, OR TORT (INCLUDING NEGLIGENCE OR OTHERWISE) ARISING IN ANY WAY OUT OF THE U
      +                          SE OF
    93                           ; THIS SOFTWARE, EVEN IF ADVISED OF THE POSSIBILITY OF SUCH DAMAGE.
    94                           ; 
    95                           ; 
    96                           ; Code-generator required, PIC18F25K22 Definitions
    97                           ; 
    98                           ; SFR Addresses
    99  0000                     
   100                           	psect	idataCOMRAM
   101  001F96                     __pidataCOMRAM:
   102                           	opt stack 0
   103                           
   104                           ;initializer for AppTimer30us@count1000ms
   105  001F96  0009               	dw	9
   106                           
   107                           ;initializer for AppTimer30us@count100ms
   108  001F98  0009               	dw	9
   109                           
   110                           ;initializer for AppTimer30us@count10ms
   111  001F9A  0009               	dw	9
   112                           
   113                           ;initializer for AppTimer30us@count1ms
   114  001F9C  0004               	dw	4
   115                           
   116                           ;initializer for _ftest
   117  001F9E  01                 	db	1
   118  0000                     _ANSELC	set	3898
   119  0000                     _ANSELB	set	3897
   120  0000                     _ANSELA	set	3896
   121  0000                     _RCREG1	set	4014
   122  0000                     _RC1STAbits	set	4011
   123  0000                     _TXREG1	set	4013
   124  0000                     _SPBRG1	set	4015
   125  0000                     _SPBRGH1	set	4016
   126  0000                     _TX1STA	set	4012
   127  0000                     _RC1STA	set	4011
   128  0000                     _BAUD1CON	set	4024
   129  0000                     _OSCTUNE	set	3995
   130  0000                     _OSCCON2	set	4050
   131  0000                     _OSCCON	set	4051
   132  0000                     _PIR1bits	set	3998
   133  0000                     _PIE1bits	set	3997
   134  0000                     _IPR1bits	set	3999
   135  0000                     _RCONbits	set	4048
   136  0000                     _INTCON2bits	set	4081
   137  0000                     _TRISC	set	3988
   138  0000                     _LATC	set	3979
   139  0000                     _WPUB	set	3937
   140  0000                     _TRISB	set	3987
   141  0000                     _LATB	set	3978
   142  0000                     _TRISA	set	3986
   143  0000                     _LATA	set	3977
   144  0000                     _T0CONbits	set	4053
   145  0000                     _INTCONbits	set	4082
   146  0000                     _TMR0L	set	4054
   147  0000                     _TMR0H	set	4055
   148  0000                     _T0CON	set	4053
   149  0000                     _LATC3	set	31835
   150  0000                     _LATB5	set	31829
   151  0000                     _LATB4	set	31828
   152  0000                     _LATB3	set	31827
   153  0000                     _LATB2	set	31826
   154  0000                     _LATB1	set	31825
   155  0000                     _LATB0	set	31824
   156  0000                     _PLLRDY	set	32407
   157                           
   158                           ; #config settings
   159  0000                     
   160                           	psect	cinit
   161  001BD0                     __pcinit:
   162                           	opt stack 0
   163  001BD0                     start_initialization:
   164                           	opt stack 0
   165  001BD0                     __initialization:
   166                           	opt stack 0
   167                           
   168                           ; Initialize objects allocated to COMRAM (9 bytes)
   169                           ; load TBLPTR registers with __pidataCOMRAM
   170  001BD0  0E96               	movlw	low __pidataCOMRAM
   171  001BD2  6EF6               	movwf	tblptrl,c
   172  001BD4  0E1F               	movlw	high __pidataCOMRAM
   173  001BD6  6EF7               	movwf	tblptrh,c
   174  001BD8  0E00               	movlw	low (__pidataCOMRAM shr (0+16))
   175  001BDA  6EF8               	movwf	tblptru,c
   176  001BDC  EE00  F04F         	lfsr	0,__pdataCOMRAM
   177  001BE0  EE10 F009          	lfsr	1,9
   178  001BE4                     copy_data0:
   179  001BE4  0009               	tblrd		*+
   180  001BE6  CFF5 FFEE          	movff	tablat,postinc0
   181  001BEA  50E5               	movf	postdec1,w,c
   182  001BEC  50E1               	movf	fsr1l,w,c
   183  001BEE  E1FA               	bnz	copy_data0
   184                           
   185                           ; Clear objects allocated to BANK5 (192 bytes)
   186  001BF0  EE05  F000         	lfsr	0,__pbssBANK5
   187  001BF4  0EC0               	movlw	192
   188  001BF6                     clear_0:
   189  001BF6  6AEE               	clrf	postinc0,c
   190  001BF8  06E8               	decf	wreg,f,c
   191  001BFA  E1FD               	bnz	clear_0
   192                           
   193                           ; Clear objects allocated to BANK4 (256 bytes)
   194  001BFC  EE04  F000         	lfsr	0,__pbssBANK4
   195  001C00  EE11 F000          	lfsr	1,256
   196  001C04                     clear_1:
   197  001C04  6AEE               	clrf	postinc0,c
   198  001C06  50E5               	movf	postdec1,w,c
   199  001C08  50E1               	movf	fsr1l,w,c
   200  001C0A  E1FC               	bnz	clear_1
   201  001C0C  50E2               	movf	fsr1h,w,c
   202  001C0E  E1FA               	bnz	clear_1
   203                           
   204                           ; Clear objects allocated to BANK3 (256 bytes)
   205  001C10  EE03  F000         	lfsr	0,__pbssBANK3
   206  001C14  EE11 F000          	lfsr	1,256
   207  001C18                     clear_2:
   208  001C18  6AEE               	clrf	postinc0,c
   209  001C1A  50E5               	movf	postdec1,w,c
   210  001C1C  50E1               	movf	fsr1l,w,c
   211  001C1E  E1FC               	bnz	clear_2
   212  001C20  50E2               	movf	fsr1h,w,c
   213  001C22  E1FA               	bnz	clear_2
   214                           
   215                           ; Clear objects allocated to BANK2 (256 bytes)
   216  001C24  EE02  F000         	lfsr	0,__pbssBANK2
   217  001C28  EE11 F000          	lfsr	1,256
   218  001C2C                     clear_3:
   219  001C2C  6AEE               	clrf	postinc0,c
   220  001C2E  50E5               	movf	postdec1,w,c
   221  001C30  50E1               	movf	fsr1l,w,c
   222  001C32  E1FC               	bnz	clear_3
   223  001C34  50E2               	movf	fsr1h,w,c
   224  001C36  E1FA               	bnz	clear_3
   225                           
   226                           ; Clear objects allocated to BANK1 (256 bytes)
   227  001C38  EE01  F000         	lfsr	0,__pbssBANK1
   228  001C3C  EE11 F000          	lfsr	1,256
   229  001C40                     clear_4:
   230  001C40  6AEE               	clrf	postinc0,c
   231  001C42  50E5               	movf	postdec1,w,c
   232  001C44  50E1               	movf	fsr1l,w,c
   233  001C46  E1FC               	bnz	clear_4
   234  001C48  50E2               	movf	fsr1h,w,c
   235  001C4A  E1FA               	bnz	clear_4
   236                           
   237                           ; Clear objects allocated to BANK0 (128 bytes)
   238  001C4C  EE00  F060         	lfsr	0,__pbssBANK0
   239  001C50  0E80               	movlw	128
   240  001C52                     clear_5:
   241  001C52  6AEE               	clrf	postinc0,c
   242  001C54  06E8               	decf	wreg,f,c
   243  001C56  E1FD               	bnz	clear_5
   244                           
   245                           ; Clear objects allocated to COMRAM (36 bytes)
   246  001C58  EE00  F02B         	lfsr	0,__pbssCOMRAM
   247  001C5C  0E24               	movlw	36
   248  001C5E                     clear_6:
   249  001C5E  6AEE               	clrf	postinc0,c
   250  001C60  06E8               	decf	wreg,f,c
   251  001C62  E1FD               	bnz	clear_6
   252  001C64                     end_of_initialization:
   253                           	opt stack 0
   254  001C64                     __end_of__initialization:
   255                           	opt stack 0
   256  001C64  9058               	bcf	int$flags,0,c	;clear compiler interrupt flag (level 1)
   257  001C66  9258               	bcf	int$flags,1,c	;clear compiler interrupt flag (level 2)
   258  001C68  0100               	movlb	0
   259  001C6A  EFAC  F00F         	goto	_main	;jump to C main() function
   260                           tblptru	equ	0xFF8
   261                           tblptrh	equ	0xFF7
   262                           tblptrl	equ	0xFF6
   263                           tablat	equ	0xFF5
   264                           postinc0	equ	0xFEE
   265                           wreg	equ	0xFE8
   266                           postdec1	equ	0xFE5
   267                           fsr1h	equ	0xFE2
   268                           fsr1l	equ	0xFE1
   269                           
   270                           	psect	bssCOMRAM
   271  00002B                     __pbssCOMRAM:
   272                           	opt stack 0
   273  00002B                     _Buffer:
   274                           	opt stack 0
   275  00002B                     	ds	16
   276  00003B                     AppINT_USART1_RX@data_cnt:
   277                           	opt stack 0
   278  00003B                     	ds	2
   279  00003D                     _ShootLedsCh6:
   280                           	opt stack 0
   281  00003D                     	ds	2
   282  00003F                     _ShootLedsCh5:
   283                           	opt stack 0
   284  00003F                     	ds	2
   285  000041                     _ShootLedsCh4:
   286                           	opt stack 0
   287  000041                     	ds	2
   288  000043                     _ShootLedsCh3:
   289                           	opt stack 0
   290  000043                     	ds	2
   291  000045                     _ShootLedsCh2:
   292                           	opt stack 0
   293  000045                     	ds	2
   294  000047                     _ShootLedsCh1:
   295                           	opt stack 0
   296  000047                     	ds	2
   297  000049                     _ShootLedsCh0:
   298                           	opt stack 0
   299  000049                     	ds	2
   300  00004B                     _timer0ReloadVal16bit:
   301                           	opt stack 0
   302  00004B                     	ds	2
   303  00004D                     _IdxFrame:
   304                           	opt stack 0
   305  00004D                     	ds	1
   306  00004E                     _Idx:
   307                           	opt stack 0
   308  00004E                     	ds	1
   309                           tblptru	equ	0xFF8
   310                           tblptrh	equ	0xFF7
   311                           tblptrl	equ	0xFF6
   312                           tablat	equ	0xFF5
   313                           postinc0	equ	0xFEE
   314                           wreg	equ	0xFE8
   315                           postdec1	equ	0xFE5
   316                           fsr1h	equ	0xFE2
   317                           fsr1l	equ	0xFE1
   318                           
   319                           	psect	dataCOMRAM
   320  00004F                     __pdataCOMRAM:
   321                           	opt stack 0
   322  00004F                     AppTimer30us@count1000ms:
   323                           	opt stack 0
   324  00004F                     	ds	2
   325  000051                     AppTimer30us@count100ms:
   326                           	opt stack 0
   327  000051                     	ds	2
   328  000053                     AppTimer30us@count10ms:
   329                           	opt stack 0
   330  000053                     	ds	2
   331  000055                     AppTimer30us@count1ms:
   332                           	opt stack 0
   333  000055                     	ds	2
   334  000057                     _ftest:
   335                           	opt stack 0
   336  000057                     	ds	1
   337                           tblptru	equ	0xFF8
   338                           tblptrh	equ	0xFF7
   339                           tblptrl	equ	0xFF6
   340                           tablat	equ	0xFF5
   341                           postinc0	equ	0xFEE
   342                           wreg	equ	0xFE8
   343                           postdec1	equ	0xFE5
   344                           fsr1h	equ	0xFE2
   345                           fsr1l	equ	0xFE1
   346                           
   347                           	psect	bssBANK0
   348  000060                     __pbssBANK0:
   349                           	opt stack 0
   350  000060                     _G0:
   351                           	opt stack 0
   352  000060                     	ds	64
   353  0000A0                     _R0:
   354                           	opt stack 0
   355  0000A0                     	ds	64
   356                           tblptru	equ	0xFF8
   357                           tblptrh	equ	0xFF7
   358                           tblptrl	equ	0xFF6
   359                           tablat	equ	0xFF5
   360                           postinc0	equ	0xFEE
   361                           wreg	equ	0xFE8
   362                           postdec1	equ	0xFE5
   363                           fsr1h	equ	0xFE2
   364                           fsr1l	equ	0xFE1
   365                           
   366                           	psect	bssBANK1
   367  000100                     __pbssBANK1:
   368                           	opt stack 0
   369  000100                     _B1:
   370                           	opt stack 0
   371  000100                     	ds	64
   372  000140                     _G1:
   373                           	opt stack 0
   374  000140                     	ds	64
   375  000180                     _R1:
   376                           	opt stack 0
   377  000180                     	ds	64
   378  0001C0                     _B0:
   379                           	opt stack 0
   380  0001C0                     	ds	64
   381                           tblptru	equ	0xFF8
   382                           tblptrh	equ	0xFF7
   383                           tblptrl	equ	0xFF6
   384                           tablat	equ	0xFF5
   385                           postinc0	equ	0xFEE
   386                           wreg	equ	0xFE8
   387                           postdec1	equ	0xFE5
   388                           fsr1h	equ	0xFE2
   389                           fsr1l	equ	0xFE1
   390                           
   391                           	psect	bssBANK2
   392  000200                     __pbssBANK2:
   393                           	opt stack 0
   394  000200                     _R3:
   395                           	opt stack 0
   396  000200                     	ds	64
   397  000240                     _B2:
   398                           	opt stack 0
   399  000240                     	ds	64
   400  000280                     _G2:
   401                           	opt stack 0
   402  000280                     	ds	64
   403  0002C0                     _R2:
   404                           	opt stack 0
   405  0002C0                     	ds	64
   406                           tblptru	equ	0xFF8
   407                           tblptrh	equ	0xFF7
   408                           tblptrl	equ	0xFF6
   409                           tablat	equ	0xFF5
   410                           postinc0	equ	0xFEE
   411                           wreg	equ	0xFE8
   412                           postdec1	equ	0xFE5
   413                           fsr1h	equ	0xFE2
   414                           fsr1l	equ	0xFE1
   415                           
   416                           	psect	bssBANK3
   417  000300                     __pbssBANK3:
   418                           	opt stack 0
   419  000300                     _G4:
   420                           	opt stack 0
   421  000300                     	ds	64
   422  000340                     _R4:
   423                           	opt stack 0
   424  000340                     	ds	64
   425  000380                     _B3:
   426                           	opt stack 0
   427  000380                     	ds	64
   428  0003C0                     _G3:
   429                           	opt stack 0
   430  0003C0                     	ds	64
   431                           tblptru	equ	0xFF8
   432                           tblptrh	equ	0xFF7
   433                           tblptrl	equ	0xFF6
   434                           tablat	equ	0xFF5
   435                           postinc0	equ	0xFEE
   436                           wreg	equ	0xFE8
   437                           postdec1	equ	0xFE5
   438                           fsr1h	equ	0xFE2
   439                           fsr1l	equ	0xFE1
   440                           
   441                           	psect	bssBANK4
   442  000400                     __pbssBANK4:
   443                           	opt stack 0
   444  000400                     _B5:
   445                           	opt stack 0
   446  000400                     	ds	64
   447  000440                     _G5:
   448                           	opt stack 0
   449  000440                     	ds	64
   450  000480                     _R5:
   451                           	opt stack 0
   452  000480                     	ds	64
   453  0004C0                     _B4:
   454                           	opt stack 0
   455  0004C0                     	ds	64
   456                           tblptru	equ	0xFF8
   457                           tblptrh	equ	0xFF7
   458                           tblptrl	equ	0xFF6
   459                           tablat	equ	0xFF5
   460                           postinc0	equ	0xFEE
   461                           wreg	equ	0xFE8
   462                           postdec1	equ	0xFE5
   463                           fsr1h	equ	0xFE2
   464                           fsr1l	equ	0xFE1
   465                           
   466                           	psect	bssBANK5
   467  000500                     __pbssBANK5:
   468                           	opt stack 0
   469  000500                     _B6:
   470                           	opt stack 0
   471  000500                     	ds	64
   472  000540                     _G6:
   473                           	opt stack 0
   474  000540                     	ds	64
   475  000580                     _R6:
   476                           	opt stack 0
   477  000580                     	ds	64
   478                           tblptru	equ	0xFF8
   479                           tblptrh	equ	0xFF7
   480                           tblptrl	equ	0xFF6
   481                           tablat	equ	0xFF5
   482                           postinc0	equ	0xFEE
   483                           wreg	equ	0xFE8
   484                           postdec1	equ	0xFE5
   485                           fsr1h	equ	0xFE2
   486                           fsr1l	equ	0xFE1
   487                           
   488                           	psect	cstackBANK0
   489  000000                     __pcstackBANK0:
   490                           	opt stack 0
   491  000000                     tblptru	equ	0xFF8
   492                           tblptrh	equ	0xFF7
   493                           tblptrl	equ	0xFF6
   494                           tablat	equ	0xFF5
   495                           postinc0	equ	0xFEE
   496                           wreg	equ	0xFE8
   497                           postdec1	equ	0xFE5
   498                           fsr1h	equ	0xFE2
   499                           fsr1l	equ	0xFE1
   500                           
   501                           ; 1 bytes @ 0x0
   502                           
   503                           	psect	cstackCOMRAM
   504  000001                     __pcstackCOMRAM:
   505                           	opt stack 0
   506  000001                     EUSART1_Write@txData:
   507                           	opt stack 0
   508  000001                     SendBuffCh0@idx:
   509                           	opt stack 0
   510  000001                     SendBuffCh1@idx:
   511                           	opt stack 0
   512  000001                     SendBuffCh2@idx:
   513                           	opt stack 0
   514  000001                     SendBuffCh3@idx:
   515                           	opt stack 0
   516  000001                     SendBuffCh4@idx:
   517                           	opt stack 0
   518  000001                     SendBuffCh5@idx:
   519                           	opt stack 0
   520  000001                     SendBuffCh6@idx:
   521                           	opt stack 0
   522  000001                     SetLED@type:
   523                           	opt stack 0
   524                           
   525                           ; 1 bytes @ 0x0
   526  000001                     	ds	1
   527  000002                     SetLED@led:
   528                           	opt stack 0
   529                           
   530                           ; 1 bytes @ 0x1
   531  000002                     	ds	1
   532  000003                     SetLED@color1:
   533                           	opt stack 0
   534                           
   535                           ; 1 bytes @ 0x2
   536  000003                     	ds	1
   537  000004                     SetLED@color2:
   538                           	opt stack 0
   539                           
   540                           ; 1 bytes @ 0x3
   541  000004                     	ds	1
   542  000005                     SetLED@color3:
   543                           	opt stack 0
   544                           
   545                           ; 1 bytes @ 0x4
   546  000005                     	ds	1
   547  000006                     SetLED@channel:
   548                           	opt stack 0
   549                           
   550                           ; 1 bytes @ 0x5
   551  000006                     	ds	1
   552  000007                     SetLED@red:
   553                           	opt stack 0
   554                           
   555                           ; 1 bytes @ 0x6
   556  000007                     	ds	1
   557  000008                     SetLED@green:
   558                           	opt stack 0
   559                           
   560                           ; 1 bytes @ 0x7
   561  000008                     	ds	1
   562  000009                     SetLED@blue:
   563                           	opt stack 0
   564                           
   565                           ; 1 bytes @ 0x8
   566  000009                     	ds	1
   567  00000A                     ??_AppINT_USART1_RX:
   568                           
   569                           ; 1 bytes @ 0x9
   570  00000A                     	ds	4
   571  00000E                     AppINT_USART1_RX@pos:
   572                           	opt stack 0
   573                           
   574                           ; 1 bytes @ 0xD
   575  00000E                     	ds	1
   576  00000F                     AppINT_USART1_RX@red:
   577                           	opt stack 0
   578                           
   579                           ; 1 bytes @ 0xE
   580  00000F                     	ds	1
   581  000010                     AppINT_USART1_RX@green:
   582                           	opt stack 0
   583                           
   584                           ; 1 bytes @ 0xF
   585  000010                     	ds	1
   586  000011                     AppINT_USART1_RX@blue:
   587                           	opt stack 0
   588                           
   589                           ; 1 bytes @ 0x10
   590  000011                     	ds	1
   591  000012                     AppINT_USART1_RX@type:
   592                           	opt stack 0
   593                           
   594                           ; 1 bytes @ 0x11
   595  000012                     	ds	1
   596  000013                     AppINT_USART1_RX@rxData:
   597                           	opt stack 0
   598                           
   599                           ; 1 bytes @ 0x12
   600  000013                     	ds	1
   601  000014                     AppINT_USART1_RX@cmd:
   602                           	opt stack 0
   603                           
   604                           ; 1 bytes @ 0x13
   605  000014                     	ds	1
   606  000015                     AppINT_USART1_RX@c_801:
   607                           	opt stack 0
   608                           
   609                           ; 2 bytes @ 0x14
   610  000015                     	ds	2
   611  000017                     AppINT_USART1_RX@c_802:
   612                           	opt stack 0
   613                           
   614                           ; 2 bytes @ 0x16
   615  000017                     	ds	2
   616  000019                     AppINT_USART1_RX@c_803:
   617                           	opt stack 0
   618                           
   619                           ; 2 bytes @ 0x18
   620  000019                     	ds	2
   621  00001B                     AppINT_USART1_RX@channel:
   622                           	opt stack 0
   623                           
   624                           ; 1 bytes @ 0x1A
   625  00001B                     	ds	1
   626  00001C                     EUSART1_Receive_ISR@byteReceived:
   627                           	opt stack 0
   628                           
   629                           ; 1 bytes @ 0x1B
   630  00001C                     	ds	1
   631  00001D                     ??_INTERRUPT_InterruptManager:
   632                           
   633                           ; 1 bytes @ 0x1C
   634  00001D                     	ds	14
   635                           tblptru	equ	0xFF8
   636                           tblptrh	equ	0xFF7
   637                           tblptrl	equ	0xFF6
   638                           tablat	equ	0xFF5
   639                           postinc0	equ	0xFEE
   640                           wreg	equ	0xFE8
   641                           postdec1	equ	0xFE5
   642                           fsr1h	equ	0xFE2
   643                           fsr1l	equ	0xFE1
   644                           
   645 ;;
   646 ;;Main: autosize = 0, tempsize = 0, incstack = 0, save=0
   647 ;;
   648 ;; *************** function _main *****************
   649 ;; Defined at:
   650 ;;		line 5 in file "main.c"
   651 ;; Parameters:    Size  Location     Type
   652 ;;		None
   653 ;; Auto vars:     Size  Location     Type
   654 ;;		None
   655 ;; Return value:  Size  Location     Type
   656 ;;                  1    wreg      void 
   657 ;; Registers used:
   658 ;;		wreg, status,2, cstack
   659 ;; Tracked objects:
   660 ;;		On entry : 0/0
   661 ;;		On exit  : 0/0
   662 ;;		Unchanged: 0/0
   663 ;; Data sizes:     COMRAM   BANK0   BANK1   BANK2   BANK3   BANK4   BANK5
   664 ;;      Params:         0       0       0       0       0       0       0
   665 ;;      Locals:         0       0       0       0       0       0       0
   666 ;;      Temps:          0       0       0       0       0       0       0
   667 ;;      Totals:         0       0       0       0       0       0       0
   668 ;;Total ram usage:        0 bytes
   669 ;; Hardware stack levels required when called:   10
   670 ;; This function calls:
   671 ;;		_AppInitialize
   672 ;;		_AppProcess
   673 ;;		_SYSTEM_Initialize
   674 ;; This function is called by:
   675 ;;		Startup code after reset
   676 ;; This function uses a non-reentrant model
   677 ;;
   678                           
   679                           	psect	text0
   680  001F58                     __ptext0:
   681                           	opt stack 0
   682  001F58                     _main:
   683                           	opt stack 21
   684                           
   685                           ;main.c: 7: SYSTEM_Initialize();
   686                           
   687                           ;incstack = 0
   688  001F58  EC96  F00F         	call	_SYSTEM_Initialize	;wreg free
   689                           
   690                           ;main.c: 8: AppInitialize();
   691  001F5C  ECD4  F00F         	call	_AppInitialize	;wreg free
   692                           
   693                           ;main.c: 10: (INTCONbits.GIE = 1);
   694  001F60  8EF2               	bsf	intcon,7,c	;volatile
   695                           
   696                           ;main.c: 12: (INTCONbits.PEIE = 1);
   697  001F62  8CF2               	bsf	intcon,6,c	;volatile
   698                           
   699                           ;main.c: 14: AppProcess();
   700  001F64  ECDE  F00F         	call	_AppProcess	;wreg free
   701  001F68                     l181:
   702  001F68  D7FF               	goto	l181
   703  001F6A                     __end_of_main:
   704                           	opt stack 0
   705                           tblptru	equ	0xFF8
   706                           tblptrh	equ	0xFF7
   707                           tblptrl	equ	0xFF6
   708                           tablat	equ	0xFF5
   709                           intcon	equ	0xFF2
   710                           postinc0	equ	0xFEE
   711                           wreg	equ	0xFE8
   712                           postdec1	equ	0xFE5
   713                           fsr1h	equ	0xFE2
   714                           fsr1l	equ	0xFE1
   715                           
   716 ;; *************** function _SYSTEM_Initialize *****************
   717 ;; Defined at:
   718 ;;		line 66 in file "mcc_generated_files/mcc.c"
   719 ;; Parameters:    Size  Location     Type
   720 ;;		None
   721 ;; Auto vars:     Size  Location     Type
   722 ;;		None
   723 ;; Return value:  Size  Location     Type
   724 ;;                  1    wreg      void 
   725 ;; Registers used:
   726 ;;		wreg, status,2, cstack
   727 ;; Tracked objects:
   728 ;;		On entry : 0/0
   729 ;;		On exit  : 0/0
   730 ;;		Unchanged: 0/0
   731 ;; Data sizes:     COMRAM   BANK0   BANK1   BANK2   BANK3   BANK4   BANK5
   732 ;;      Params:         0       0       0       0       0       0       0
   733 ;;      Locals:         0       0       0       0       0       0       0
   734 ;;      Temps:          0       0       0       0       0       0       0
   735 ;;      Totals:         0       0       0       0       0       0       0
   736 ;;Total ram usage:        0 bytes
   737 ;; Hardware stack levels used:    1
   738 ;; Hardware stack levels required when called:    9
   739 ;; This function calls:
   740 ;;		_EUSART1_Initialize
   741 ;;		_INTERRUPT_Initialize
   742 ;;		_OSCILLATOR_Initialize
   743 ;;		_PIN_MANAGER_Initialize
   744 ;;		_TMR0_Initialize
   745 ;; This function is called by:
   746 ;;		_main
   747 ;; This function uses a non-reentrant model
   748 ;;
   749                           
   750                           	psect	text1
   751  001F2C                     __ptext1:
   752                           	opt stack 0
   753  001F2C                     _SYSTEM_Initialize:
   754                           	opt stack 21
   755                           
   756                           ;mcc.c: 68: OSCILLATOR_Initialize();
   757                           
   758                           ;incstack = 0
   759  001F2C  ECB5  F00F         	call	_OSCILLATOR_Initialize	;wreg free
   760                           
   761                           ;mcc.c: 69: PIN_MANAGER_Initialize();
   762  001F30  EC7C  F00E         	call	_PIN_MANAGER_Initialize	;wreg free
   763                           
   764                           ;mcc.c: 70: INTERRUPT_Initialize();
   765  001F34  ECC6  F00F         	call	_INTERRUPT_Initialize	;wreg free
   766                           
   767                           ;mcc.c: 71: TMR0_Initialize();
   768  001F38  ECA1  F00F         	call	_TMR0_Initialize	;wreg free
   769                           
   770                           ;mcc.c: 72: EUSART1_Initialize();
   771  001F3C  EC7C  F00F         	call	_EUSART1_Initialize	;wreg free
   772  001F40  0012               	return		;funcret
   773  001F42                     __end_of_SYSTEM_Initialize:
   774                           	opt stack 0
   775                           tblptru	equ	0xFF8
   776                           tblptrh	equ	0xFF7
   777                           tblptrl	equ	0xFF6
   778                           tablat	equ	0xFF5
   779                           intcon	equ	0xFF2
   780                           postinc0	equ	0xFEE
   781                           wreg	equ	0xFE8
   782                           postdec1	equ	0xFE5
   783                           fsr1h	equ	0xFE2
   784                           fsr1l	equ	0xFE1
   785                           
   786 ;; *************** function _TMR0_Initialize *****************
   787 ;; Defined at:
   788 ;;		line 18 in file "mcc_generated_files/tmr0.c"
   789 ;; Parameters:    Size  Location     Type
   790 ;;		None
   791 ;; Auto vars:     Size  Location     Type
   792 ;;		None
   793 ;; Return value:  Size  Location     Type
   794 ;;                  1    wreg      void 
   795 ;; Registers used:
   796 ;;		wreg, status,2, cstack
   797 ;; Tracked objects:
   798 ;;		On entry : 0/0
   799 ;;		On exit  : 0/0
   800 ;;		Unchanged: 0/0
   801 ;; Data sizes:     COMRAM   BANK0   BANK1   BANK2   BANK3   BANK4   BANK5
   802 ;;      Params:         0       0       0       0       0       0       0
   803 ;;      Locals:         0       0       0       0       0       0       0
   804 ;;      Temps:          0       0       0       0       0       0       0
   805 ;;      Totals:         0       0       0       0       0       0       0
   806 ;;Total ram usage:        0 bytes
   807 ;; Hardware stack levels used:    1
   808 ;; Hardware stack levels required when called:    8
   809 ;; This function calls:
   810 ;;		_TMR0_StartTimer
   811 ;; This function is called by:
   812 ;;		_SYSTEM_Initialize
   813 ;; This function uses a non-reentrant model
   814 ;;
   815                           
   816                           	psect	text2
   817  001F42                     __ptext2:
   818                           	opt stack 0
   819  001F42                     _TMR0_Initialize:
   820                           	opt stack 21
   821                           
   822                           ;tmr0.c: 23: T0CON = 0b11000000;
   823                           
   824                           ;incstack = 0
   825  001F42  0EC0               	movlw	192
   826  001F44  6ED5               	movwf	4053,c	;volatile
   827                           
   828                           ;tmr0.c: 30: TMR0H = 1;
   829  001F46  0E01               	movlw	1
   830  001F48  6ED7               	movwf	4055,c	;volatile
   831                           
   832                           ;tmr0.c: 31: TMR0L = 19;
   833  001F4A  0E13               	movlw	19
   834  001F4C  6ED6               	movwf	4054,c	;volatile
   835                           
   836                           ;tmr0.c: 39: INTCONbits.TMR0IF = 0;
   837  001F4E  94F2               	bcf	intcon,2,c	;volatile
   838                           
   839                           ;tmr0.c: 41: INTCONbits.TMR0IE = 1;
   840  001F50  8AF2               	bsf	intcon,5,c	;volatile
   841                           
   842                           ;tmr0.c: 43: TMR0_StartTimer();
   843  001F52  ECDA  F00F         	call	_TMR0_StartTimer	;wreg free
   844  001F56  0012               	return		;funcret
   845  001F58                     __end_of_TMR0_Initialize:
   846                           	opt stack 0
   847                           tblptru	equ	0xFF8
   848                           tblptrh	equ	0xFF7
   849                           tblptrl	equ	0xFF6
   850                           tablat	equ	0xFF5
   851                           intcon	equ	0xFF2
   852                           postinc0	equ	0xFEE
   853                           wreg	equ	0xFE8
   854                           postdec1	equ	0xFE5
   855                           fsr1h	equ	0xFE2
   856                           fsr1l	equ	0xFE1
   857                           
   858 ;; *************** function _TMR0_StartTimer *****************
   859 ;; Defined at:
   860 ;;		line 48 in file "mcc_generated_files/tmr0.c"
   861 ;; Parameters:    Size  Location     Type
   862 ;;		None
   863 ;; Auto vars:     Size  Location     Type
   864 ;;		None
   865 ;; Return value:  Size  Location     Type
   866 ;;                  1    wreg      void 
   867 ;; Registers used:
   868 ;;		None
   869 ;; Tracked objects:
   870 ;;		On entry : 0/0
   871 ;;		On exit  : 0/0
   872 ;;		Unchanged: 0/0
   873 ;; Data sizes:     COMRAM   BANK0   BANK1   BANK2   BANK3   BANK4   BANK5
   874 ;;      Params:         0       0       0       0       0       0       0
   875 ;;      Locals:         0       0       0       0       0       0       0
   876 ;;      Temps:          0       0       0       0       0       0       0
   877 ;;      Totals:         0       0       0       0       0       0       0
   878 ;;Total ram usage:        0 bytes
   879 ;; Hardware stack levels used:    1
   880 ;; Hardware stack levels required when called:    7
   881 ;; This function calls:
   882 ;;		Nothing
   883 ;; This function is called by:
   884 ;;		_TMR0_Initialize
   885 ;; This function uses a non-reentrant model
   886 ;;
   887                           
   888                           	psect	text3
   889  001FB4                     __ptext3:
   890                           	opt stack 0
   891  001FB4                     _TMR0_StartTimer:
   892                           	opt stack 21
   893                           
   894                           ;tmr0.c: 50: T0CONbits.TMR0ON = 1;
   895                           
   896                           ;incstack = 0
   897  001FB4  8ED5               	bsf	4053,7,c	;volatile
   898  001FB6  0012               	return		;funcret
   899  001FB8                     __end_of_TMR0_StartTimer:
   900                           	opt stack 0
   901                           tblptru	equ	0xFF8
   902                           tblptrh	equ	0xFF7
   903                           tblptrl	equ	0xFF6
   904                           tablat	equ	0xFF5
   905                           intcon	equ	0xFF2
   906                           postinc0	equ	0xFEE
   907                           wreg	equ	0xFE8
   908                           postdec1	equ	0xFE5
   909                           fsr1h	equ	0xFE2
   910                           fsr1l	equ	0xFE1
   911                           
   912 ;; *************** function _PIN_MANAGER_Initialize *****************
   913 ;; Defined at:
   914 ;;		line 4 in file "mcc_generated_files/pin_manager.c"
   915 ;; Parameters:    Size  Location     Type
   916 ;;		None
   917 ;; Auto vars:     Size  Location     Type
   918 ;;		None
   919 ;; Return value:  Size  Location     Type
   920 ;;                  1    wreg      void 
   921 ;; Registers used:
   922 ;;		wreg, status,2
   923 ;; Tracked objects:
   924 ;;		On entry : 0/0
   925 ;;		On exit  : 0/0
   926 ;;		Unchanged: 0/0
   927 ;; Data sizes:     COMRAM   BANK0   BANK1   BANK2   BANK3   BANK4   BANK5
   928 ;;      Params:         0       0       0       0       0       0       0
   929 ;;      Locals:         0       0       0       0       0       0       0
   930 ;;      Temps:          0       0       0       0       0       0       0
   931 ;;      Totals:         0       0       0       0       0       0       0
   932 ;;Total ram usage:        0 bytes
   933 ;; Hardware stack levels used:    1
   934 ;; Hardware stack levels required when called:    7
   935 ;; This function calls:
   936 ;;		Nothing
   937 ;; This function is called by:
   938 ;;		_SYSTEM_Initialize
   939 ;; This function uses a non-reentrant model
   940 ;;
   941                           
   942                           	psect	text4
   943  001CF8                     __ptext4:
   944                           	opt stack 0
   945  001CF8                     _PIN_MANAGER_Initialize:
   946                           	opt stack 22
   947                           
   948                           ;pin_manager.c: 5: LATA = 0x00;
   949                           
   950                           ;incstack = 0
   951  001CF8  0E00               	movlw	0
   952  001CFA  6E89               	movwf	3977,c	;volatile
   953                           
   954                           ;pin_manager.c: 6: TRISA = 0b00001011;
   955  001CFC  0E0B               	movlw	11
   956  001CFE  6E92               	movwf	3986,c	;volatile
   957                           
   958                           ;pin_manager.c: 7: ANSELA = 0b00000000;
   959  001D00  0E00               	movlw	0
   960  001D02  010F               	movlb	15	; () banked
   961  001D04  6F38               	movwf	56,b	;volatile
   962                           
   963                           ;pin_manager.c: 9: LATB = 0b00000000;
   964  001D06  0E00               	movlw	0
   965  001D08  6E8A               	movwf	3978,c	;volatile
   966                           
   967                           ;pin_manager.c: 10: TRISB = 0b00000000;
   968  001D0A  0E00               	movlw	0
   969  001D0C  6E93               	movwf	3987,c	;volatile
   970                           
   971                           ;pin_manager.c: 11: ANSELB = 0b00000000;
   972  001D0E  0E00               	movlw	0
   973  001D10  010F               	movlb	15	; () banked
   974  001D12  6F39               	movwf	57,b	;volatile
   975                           
   976                           ;pin_manager.c: 12: WPUB = 0b00000000;
   977  001D14  0E00               	movlw	0
   978  001D16  6E61               	movwf	3937,c	;volatile
   979                           
   980                           ;pin_manager.c: 14: LATC = 0b00000000;
   981  001D18  0E00               	movlw	0
   982  001D1A  6E8B               	movwf	3979,c	;volatile
   983                           
   984                           ;pin_manager.c: 15: TRISC = 0b10000010;
   985  001D1C  0E82               	movlw	130
   986  001D1E  6E94               	movwf	3988,c	;volatile
   987                           
   988                           ;pin_manager.c: 16: ANSELC = 0b00000000;
   989  001D20  0E00               	movlw	0
   990  001D22  010F               	movlb	15	; () banked
   991  001D24  6F3A               	movwf	58,b	;volatile
   992                           
   993                           ; BSR set to: 15
   994                           ;pin_manager.c: 18: INTCON2bits.nRBPU = 0x01;
   995  001D26  8EF1               	bsf	intcon2,7,c	;volatile
   996                           
   997                           ; BSR set to: 15
   998  001D28  0012               	return		;funcret
   999  001D2A                     __end_of_PIN_MANAGER_Initialize:
  1000                           	opt stack 0
  1001                           tblptru	equ	0xFF8
  1002                           tblptrh	equ	0xFF7
  1003                           tblptrl	equ	0xFF6
  1004                           tablat	equ	0xFF5
  1005                           intcon	equ	0xFF2
  1006                           intcon2	equ	0xFF1
  1007                           postinc0	equ	0xFEE
  1008                           wreg	equ	0xFE8
  1009                           postdec1	equ	0xFE5
  1010                           fsr1h	equ	0xFE2
  1011                           fsr1l	equ	0xFE1
  1012                           
  1013 ;; *************** function _OSCILLATOR_Initialize *****************
  1014 ;; Defined at:
  1015 ;;		line 76 in file "mcc_generated_files/mcc.c"
  1016 ;; Parameters:    Size  Location     Type
  1017 ;;		None
  1018 ;; Auto vars:     Size  Location     Type
  1019 ;;		None
  1020 ;; Return value:  Size  Location     Type
  1021 ;;                  1    wreg      void 
  1022 ;; Registers used:
  1023 ;;		wreg, status,2
  1024 ;; Tracked objects:
  1025 ;;		On entry : 0/0
  1026 ;;		On exit  : 0/0
  1027 ;;		Unchanged: 0/0
  1028 ;; Data sizes:     COMRAM   BANK0   BANK1   BANK2   BANK3   BANK4   BANK5
  1029 ;;      Params:         0       0       0       0       0       0       0
  1030 ;;      Locals:         0       0       0       0       0       0       0
  1031 ;;      Temps:          0       0       0       0       0       0       0
  1032 ;;      Totals:         0       0       0       0       0       0       0
  1033 ;;Total ram usage:        0 bytes
  1034 ;; Hardware stack levels used:    1
  1035 ;; Hardware stack levels required when called:    7
  1036 ;; This function calls:
  1037 ;;		Nothing
  1038 ;; This function is called by:
  1039 ;;		_SYSTEM_Initialize
  1040 ;; This function uses a non-reentrant model
  1041 ;;
  1042                           
  1043                           	psect	text5
  1044  001F6A                     __ptext5:
  1045                           	opt stack 0
  1046  001F6A                     _OSCILLATOR_Initialize:
  1047                           	opt stack 22
  1048                           
  1049                           ;mcc.c: 79: OSCCON = 0x70;
  1050                           
  1051                           ; BSR set to: 15
  1052                           ;incstack = 0
  1053  001F6A  0E70               	movlw	112
  1054  001F6C  6ED3               	movwf	4051,c	;volatile
  1055                           
  1056                           ;mcc.c: 85: OSCCON2 = 0x04;
  1057  001F6E  0E04               	movlw	4
  1058  001F70  6ED2               	movwf	4050,c	;volatile
  1059                           
  1060                           ;mcc.c: 87: OSCTUNE = 0x40;
  1061  001F72  0E40               	movlw	64
  1062  001F74  6E9B               	movwf	3995,c	;volatile
  1063  001F76                     l123:
  1064  001F76  BED2               	btfsc	4050,7,c	;volatile
  1065  001F78  0012               	return	
  1066  001F7A  D7FD               	goto	l123
  1067  001F7C                     __end_of_OSCILLATOR_Initialize:
  1068                           	opt stack 0
  1069                           tblptru	equ	0xFF8
  1070                           tblptrh	equ	0xFF7
  1071                           tblptrl	equ	0xFF6
  1072                           tablat	equ	0xFF5
  1073                           intcon	equ	0xFF2
  1074                           intcon2	equ	0xFF1
  1075                           postinc0	equ	0xFEE
  1076                           wreg	equ	0xFE8
  1077                           postdec1	equ	0xFE5
  1078                           fsr1h	equ	0xFE2
  1079                           fsr1l	equ	0xFE1
  1080                           
  1081 ;; *************** function _INTERRUPT_Initialize *****************
  1082 ;; Defined at:
  1083 ;;		line 5 in file "mcc_generated_files/interrupt_manager.c"
  1084 ;; Parameters:    Size  Location     Type
  1085 ;;		None
  1086 ;; Auto vars:     Size  Location     Type
  1087 ;;		None
  1088 ;; Return value:  Size  Location     Type
  1089 ;;                  1    wreg      void 
  1090 ;; Registers used:
  1091 ;;		None
  1092 ;; Tracked objects:
  1093 ;;		On entry : 0/0
  1094 ;;		On exit  : 0/0
  1095 ;;		Unchanged: 0/0
  1096 ;; Data sizes:     COMRAM   BANK0   BANK1   BANK2   BANK3   BANK4   BANK5
  1097 ;;      Params:         0       0       0       0       0       0       0
  1098 ;;      Locals:         0       0       0       0       0       0       0
  1099 ;;      Temps:          0       0       0       0       0       0       0
  1100 ;;      Totals:         0       0       0       0       0       0       0
  1101 ;;Total ram usage:        0 bytes
  1102 ;; Hardware stack levels used:    1
  1103 ;; Hardware stack levels required when called:    7
  1104 ;; This function calls:
  1105 ;;		Nothing
  1106 ;; This function is called by:
  1107 ;;		_SYSTEM_Initialize
  1108 ;; This function uses a non-reentrant model
  1109 ;;
  1110                           
  1111                           	psect	text6
  1112  001F8C                     __ptext6:
  1113                           	opt stack 0
  1114  001F8C                     _INTERRUPT_Initialize:
  1115                           	opt stack 22
  1116                           
  1117                           ;interrupt_manager.c: 7: RCONbits.IPEN = 0;
  1118                           
  1119                           ;incstack = 0
  1120  001F8C  9ED0               	bcf	4048,7,c	;volatile
  1121                           
  1122                           ;interrupt_manager.c: 10: INTCON2bits.TMR0IP = 0;
  1123  001F8E  94F1               	bcf	intcon2,2,c	;volatile
  1124                           
  1125                           ;interrupt_manager.c: 12: IPR1bits.RC1IP = 0;
  1126  001F90  9A9F               	bcf	3999,5,c	;volatile
  1127                           
  1128                           ;interrupt_manager.c: 14: IPR1bits.TX1IP = 0;
  1129  001F92  989F               	bcf	3999,4,c	;volatile
  1130  001F94  0012               	return		;funcret
  1131  001F96                     __end_of_INTERRUPT_Initialize:
  1132                           	opt stack 0
  1133                           tblptru	equ	0xFF8
  1134                           tblptrh	equ	0xFF7
  1135                           tblptrl	equ	0xFF6
  1136                           tablat	equ	0xFF5
  1137                           intcon	equ	0xFF2
  1138                           intcon2	equ	0xFF1
  1139                           postinc0	equ	0xFEE
  1140                           wreg	equ	0xFE8
  1141                           postdec1	equ	0xFE5
  1142                           fsr1h	equ	0xFE2
  1143                           fsr1l	equ	0xFE1
  1144                           
  1145 ;; *************** function _EUSART1_Initialize *****************
  1146 ;; Defined at:
  1147 ;;		line 15 in file "mcc_generated_files/eusart1.c"
  1148 ;; Parameters:    Size  Location     Type
  1149 ;;		None
  1150 ;; Auto vars:     Size  Location     Type
  1151 ;;		None
  1152 ;; Return value:  Size  Location     Type
  1153 ;;                  1    wreg      void 
  1154 ;; Registers used:
  1155 ;;		wreg, status,2
  1156 ;; Tracked objects:
  1157 ;;		On entry : 0/0
  1158 ;;		On exit  : 0/0
  1159 ;;		Unchanged: 0/0
  1160 ;; Data sizes:     COMRAM   BANK0   BANK1   BANK2   BANK3   BANK4   BANK5
  1161 ;;      Params:         0       0       0       0       0       0       0
  1162 ;;      Locals:         0       0       0       0       0       0       0
  1163 ;;      Temps:          0       0       0       0       0       0       0
  1164 ;;      Totals:         0       0       0       0       0       0       0
  1165 ;;Total ram usage:        0 bytes
  1166 ;; Hardware stack levels used:    1
  1167 ;; Hardware stack levels required when called:    7
  1168 ;; This function calls:
  1169 ;;		Nothing
  1170 ;; This function is called by:
  1171 ;;		_SYSTEM_Initialize
  1172 ;; This function uses a non-reentrant model
  1173 ;;
  1174                           
  1175                           	psect	text7
  1176  001EF8                     __ptext7:
  1177                           	opt stack 0
  1178  001EF8                     _EUSART1_Initialize:
  1179                           	opt stack 22
  1180                           
  1181                           ;eusart1.c: 17: PIE1bits.RC1IE = 0;
  1182                           
  1183                           ;incstack = 0
  1184  001EF8  9A9D               	bcf	3997,5,c	;volatile
  1185                           
  1186                           ;eusart1.c: 18: PIE1bits.TX1IE = 0;
  1187  001EFA  989D               	bcf	3997,4,c	;volatile
  1188                           
  1189                           ;eusart1.c: 27: BAUD1CON = 0x48;
  1190  001EFC  0E48               	movlw	72
  1191  001EFE  6EB8               	movwf	4024,c	;volatile
  1192                           
  1193                           ;eusart1.c: 38: RC1STA = 0b10010000;
  1194  001F00  0E90               	movlw	144
  1195  001F02  6EAB               	movwf	4011,c	;volatile
  1196                           
  1197                           ;eusart1.c: 48: TX1STA = 0b00100110;
  1198  001F04  0E26               	movlw	38
  1199  001F06  6EAC               	movwf	4012,c	;volatile
  1200                           
  1201                           ;eusart1.c: 67: else{
  1202                           ;eusart1.c: 68: SPBRGH1 = 0;
  1203                           
  1204                           ;eusart1.c: 66: }
  1205                           
  1206                           ;eusart1.c: 65: SPBRG1=(int)(((64000000/115200)/4)-1)&0x00ff;
  1207                           
  1208                           ;eusart1.c: 64: SPBRGH1 = 1;
  1209                           
  1210                           ;eusart1.c: 63: if( ((64000000/115200)/4)-1 > 255 ){
  1211  001F08  0E00               	movlw	0
  1212  001F0A  6EB0               	movwf	4016,c	;volatile
  1213                           
  1214                           ;eusart1.c: 69: SPBRG1=(int)(((64000000/115200)/4)-1)&0x00ff;
  1215  001F0C  0E89               	movlw	137
  1216  001F0E  6EAF               	movwf	4015,c	;volatile
  1217                           
  1218                           ;eusart1.c: 70: }
  1219                           ;eusart1.c: 72: PIE1bits.RC1IE = 1;
  1220  001F10  8A9D               	bsf	3997,5,c	;volatile
  1221  001F12  0012               	return		;funcret
  1222  001F14                     __end_of_EUSART1_Initialize:
  1223                           	opt stack 0
  1224                           tblptru	equ	0xFF8
  1225                           tblptrh	equ	0xFF7
  1226                           tblptrl	equ	0xFF6
  1227                           tablat	equ	0xFF5
  1228                           intcon	equ	0xFF2
  1229                           intcon2	equ	0xFF1
  1230                           postinc0	equ	0xFEE
  1231                           wreg	equ	0xFE8
  1232                           postdec1	equ	0xFE5
  1233                           fsr1h	equ	0xFE2
  1234                           fsr1l	equ	0xFE1
  1235                           
  1236 ;; *************** function _AppProcess *****************
  1237 ;; Defined at:
  1238 ;;		line 98 in file "mcc_generated_files/app.c"
  1239 ;; Parameters:    Size  Location     Type
  1240 ;;		None
  1241 ;; Auto vars:     Size  Location     Type
  1242 ;;		None
  1243 ;; Return value:  Size  Location     Type
  1244 ;;                  2  178[None  ] int 
  1245 ;; Registers used:
  1246 ;;		None
  1247 ;; Tracked objects:
  1248 ;;		On entry : 0/0
  1249 ;;		On exit  : 0/0
  1250 ;;		Unchanged: 0/0
  1251 ;; Data sizes:     COMRAM   BANK0   BANK1   BANK2   BANK3   BANK4   BANK5
  1252 ;;      Params:         0       0       0       0       0       0       0
  1253 ;;      Locals:         0       0       0       0       0       0       0
  1254 ;;      Temps:          0       0       0       0       0       0       0
  1255 ;;      Totals:         0       0       0       0       0       0       0
  1256 ;;Total ram usage:        0 bytes
  1257 ;; Hardware stack levels used:    1
  1258 ;; Hardware stack levels required when called:    7
  1259 ;; This function calls:
  1260 ;;		Nothing
  1261 ;; This function is called by:
  1262 ;;		_main
  1263 ;; This function uses a non-reentrant model
  1264 ;;
  1265                           
  1266                           	psect	text8
  1267  001FBC                     __ptext8:
  1268                           	opt stack 0
  1269  001FBC                     _AppProcess:
  1270                           	opt stack 23
  1271  001FBC                     l276:
  1272  001FBC  D7FF               	goto	l276
  1273  001FBE                     __end_of_AppProcess:
  1274                           	opt stack 0
  1275                           tblptru	equ	0xFF8
  1276                           tblptrh	equ	0xFF7
  1277                           tblptrl	equ	0xFF6
  1278                           tablat	equ	0xFF5
  1279                           intcon	equ	0xFF2
  1280                           intcon2	equ	0xFF1
  1281                           postinc0	equ	0xFEE
  1282                           wreg	equ	0xFE8
  1283                           postdec1	equ	0xFE5
  1284                           fsr1h	equ	0xFE2
  1285                           fsr1l	equ	0xFE1
  1286                           
  1287 ;; *************** function _AppInitialize *****************
  1288 ;; Defined at:
  1289 ;;		line 84 in file "mcc_generated_files/app.c"
  1290 ;; Parameters:    Size  Location     Type
  1291 ;;		None
  1292 ;; Auto vars:     Size  Location     Type
  1293 ;;		None
  1294 ;; Return value:  Size  Location     Type
  1295 ;;                  2  174[None  ] int 
  1296 ;; Registers used:
  1297 ;;		None
  1298 ;; Tracked objects:
  1299 ;;		On entry : 0/0
  1300 ;;		On exit  : 0/0
  1301 ;;		Unchanged: 0/0
  1302 ;; Data sizes:     COMRAM   BANK0   BANK1   BANK2   BANK3   BANK4   BANK5
  1303 ;;      Params:         0       0       0       0       0       0       0
  1304 ;;      Locals:         0       0       0       0       0       0       0
  1305 ;;      Temps:          0       0       0       0       0       0       0
  1306 ;;      Totals:         0       0       0       0       0       0       0
  1307 ;;Total ram usage:        0 bytes
  1308 ;; Hardware stack levels used:    1
  1309 ;; Hardware stack levels required when called:    7
  1310 ;; This function calls:
  1311 ;;		Nothing
  1312 ;; This function is called by:
  1313 ;;		_main
  1314 ;; This function uses a non-reentrant model
  1315 ;;
  1316                           
  1317                           	psect	text9
  1318  001FA8                     __ptext9:
  1319                           	opt stack 0
  1320  001FA8                     _AppInitialize:
  1321                           	opt stack 23
  1322                           
  1323                           ;app.c: 87: INTCONbits.INT0IE = 1;
  1324                           
  1325                           ;incstack = 0
  1326  001FA8  88F2               	bsf	intcon,4,c	;volatile
  1327                           
  1328                           ;app.c: 89: INTCON2bits.INTEDG0 = 1;
  1329  001FAA  8CF1               	bsf	intcon2,6,c	;volatile
  1330  001FAC  0012               	return		;funcret
  1331  001FAE                     __end_of_AppInitialize:
  1332                           	opt stack 0
  1333                           tblptru	equ	0xFF8
  1334                           tblptrh	equ	0xFF7
  1335                           tblptrl	equ	0xFF6
  1336                           tablat	equ	0xFF5
  1337                           intcon	equ	0xFF2
  1338                           intcon2	equ	0xFF1
  1339                           postinc0	equ	0xFEE
  1340                           wreg	equ	0xFE8
  1341                           postdec1	equ	0xFE5
  1342                           fsr1h	equ	0xFE2
  1343                           fsr1l	equ	0xFE1
  1344                           
  1345 ;; *************** function _INTERRUPT_InterruptManager *****************
  1346 ;; Defined at:
  1347 ;;		line 18 in file "mcc_generated_files/interrupt_manager.c"
  1348 ;; Parameters:    Size  Location     Type
  1349 ;;		None
  1350 ;; Auto vars:     Size  Location     Type
  1351 ;;		None
  1352 ;; Return value:  Size  Location     Type
  1353 ;;                  1    wreg      void 
  1354 ;; Registers used:
  1355 ;;		wreg, fsr2l, fsr2h, status,2, status,0, prodl, prodh, cstack
  1356 ;; Tracked objects:
  1357 ;;		On entry : 0/0
  1358 ;;		On exit  : 0/0
  1359 ;;		Unchanged: 0/0
  1360 ;; Data sizes:     COMRAM   BANK0   BANK1   BANK2   BANK3   BANK4   BANK5
  1361 ;;      Params:         0       0       0       0       0       0       0
  1362 ;;      Locals:         0       0       0       0       0       0       0
  1363 ;;      Temps:         14       0       0       0       0       0       0
  1364 ;;      Totals:        14       0       0       0       0       0       0
  1365 ;;Total ram usage:       14 bytes
  1366 ;; Hardware stack levels used:    1
  1367 ;; Hardware stack levels required when called:    6
  1368 ;; This function calls:
  1369 ;;		_EUSART1_Receive_ISR
  1370 ;;		_EUSART1_Transmit_ISR
  1371 ;;		_TMR0_ISR
  1372 ;; This function is called by:
  1373 ;;		Interrupt level 2
  1374 ;; This function uses a non-reentrant model
  1375 ;;
  1376                           
  1377                           	psect	intcode
  1378  000008                     __pintcode:
  1379                           	opt stack 0
  1380  000008                     _INTERRUPT_InterruptManager:
  1381                           	opt stack 21
  1382                           
  1383                           ;incstack = 0
  1384  000008  8258               	bsf	btemp,1,c	;set compiler interrupt flag (level 2)
  1385  00000A  CFFA F01D          	movff	pclath,??_INTERRUPT_InterruptManager
  1386  00000E  CFFB F01E          	movff	pclatu,??_INTERRUPT_InterruptManager+1
  1387  000012  CFE9 F01F          	movff	fsr0l,??_INTERRUPT_InterruptManager+2
  1388  000016  CFEA F020          	movff	fsr0h,??_INTERRUPT_InterruptManager+3
  1389  00001A  CFE1 F021          	movff	fsr1l,??_INTERRUPT_InterruptManager+4
  1390  00001E  CFE2 F022          	movff	fsr1h,??_INTERRUPT_InterruptManager+5
  1391  000022  CFD9 F023          	movff	fsr2l,??_INTERRUPT_InterruptManager+6
  1392  000026  CFDA F024          	movff	fsr2h,??_INTERRUPT_InterruptManager+7
  1393  00002A  CFF3 F025          	movff	prodl,??_INTERRUPT_InterruptManager+8
  1394  00002E  CFF4 F026          	movff	prodh,??_INTERRUPT_InterruptManager+9
  1395  000032  CFF6 F027          	movff	tblptrl,??_INTERRUPT_InterruptManager+10
  1396  000036  CFF7 F028          	movff	tblptrh,??_INTERRUPT_InterruptManager+11
  1397  00003A  CFF8 F029          	movff	tblptru,??_INTERRUPT_InterruptManager+12
  1398  00003E  CFF5 F02A          	movff	tablat,??_INTERRUPT_InterruptManager+13
  1399                           
  1400                           ;interrupt_manager.c: 20: if (INTCONbits.TMR0IE == 1 && INTCONbits.TMR0IF == 1) {
  1401  000042  BAF2               	btfsc	intcon,5,c	;volatile
  1402  000044  A4F2               	btfss	intcon,2,c	;volatile
  1403  000046  D003               	goto	i2l91
  1404                           
  1405                           ;interrupt_manager.c: 21: TMR0_ISR();
  1406  000048  ECBE  F00F         	call	_TMR0_ISR	;wreg free
  1407                           
  1408                           ;interrupt_manager.c: 22: } else if (PIE1bits.RC1IE == 1 && PIR1bits.RC1IF == 1) {
  1409  00004C  D010               	goto	i2l92
  1410  00004E                     i2l91:
  1411  00004E  BA9D               	btfsc	3997,5,c	;volatile
  1412  000050  AA9E               	btfss	3998,5,c	;volatile
  1413  000052  D003               	goto	i2l93
  1414                           
  1415                           ;interrupt_manager.c: 23: EUSART1_Receive_ISR();
  1416  000054  EC8A  F00F         	call	_EUSART1_Receive_ISR	;wreg free
  1417                           
  1418                           ;interrupt_manager.c: 24: } else if (PIE1bits.TX1IE == 1 && PIR1bits.TX1IF == 1) {
  1419  000058  D00A               	goto	i2l92
  1420  00005A                     i2l93:
  1421  00005A  B89D               	btfsc	3997,4,c	;volatile
  1422  00005C  A89E               	btfss	3998,4,c	;volatile
  1423  00005E  D003               	goto	i2l95
  1424                           
  1425                           ;interrupt_manager.c: 25: EUSART1_Transmit_ISR();
  1426  000060  ECDC  F00F         	call	_EUSART1_Transmit_ISR	;wreg free
  1427                           
  1428                           ;interrupt_manager.c: 26: } else if(INTCONbits.INT0IE && INTCONbits.INT0IF){
  1429  000064  D004               	goto	i2l92
  1430  000066                     i2l95:
  1431  000066  B8F2               	btfsc	intcon,4,c	;volatile
  1432  000068  A2F2               	btfss	intcon,1,c	;volatile
  1433  00006A  D001               	goto	i2l92
  1434                           
  1435                           ;interrupt_manager.c: 28: INTCONbits.INT0IF = 0;
  1436  00006C  92F2               	bcf	intcon,1,c	;volatile
  1437  00006E                     i2l92:
  1438                           
  1439                           ;interrupt_manager.c: 32: }
  1440                           ;interrupt_manager.c: 34: INTCON2bits.TMR0IP = 1;
  1441  00006E  84F1               	bsf	intcon2,2,c	;volatile
  1442  000070  C02A  FFF5         	movff	??_INTERRUPT_InterruptManager+13,tablat
  1443  000074  C029  FFF8         	movff	??_INTERRUPT_InterruptManager+12,tblptru
  1444  000078  C028  FFF7         	movff	??_INTERRUPT_InterruptManager+11,tblptrh
  1445  00007C  C027  FFF6         	movff	??_INTERRUPT_InterruptManager+10,tblptrl
  1446  000080  C026  FFF4         	movff	??_INTERRUPT_InterruptManager+9,prodh
  1447  000084  C025  FFF3         	movff	??_INTERRUPT_InterruptManager+8,prodl
  1448  000088  C024  FFDA         	movff	??_INTERRUPT_InterruptManager+7,fsr2h
  1449  00008C  C023  FFD9         	movff	??_INTERRUPT_InterruptManager+6,fsr2l
  1450  000090  C022  FFE2         	movff	??_INTERRUPT_InterruptManager+5,fsr1h
  1451  000094  C021  FFE1         	movff	??_INTERRUPT_InterruptManager+4,fsr1l
  1452  000098  C020  FFEA         	movff	??_INTERRUPT_InterruptManager+3,fsr0h
  1453  00009C  C01F  FFE9         	movff	??_INTERRUPT_InterruptManager+2,fsr0l
  1454  0000A0  C01E  FFFB         	movff	??_INTERRUPT_InterruptManager+1,pclatu
  1455  0000A4  C01D  FFFA         	movff	??_INTERRUPT_InterruptManager,pclath
  1456  0000A8  9258               	bcf	btemp,1,c	;clear compiler interrupt flag (level 2)
  1457  0000AA  0011               	retfie		f
  1458  0000AC                     __end_of_INTERRUPT_InterruptManager:
  1459                           	opt stack 0
  1460                           pclatu	equ	0xFFB
  1461                           pclath	equ	0xFFA
  1462                           tblptru	equ	0xFF8
  1463                           tblptrh	equ	0xFF7
  1464                           tblptrl	equ	0xFF6
  1465                           tablat	equ	0xFF5
  1466                           prodh	equ	0xFF4
  1467                           prodl	equ	0xFF3
  1468                           intcon	equ	0xFF2
  1469                           intcon2	equ	0xFF1
  1470                           postinc0	equ	0xFEE
  1471                           fsr0h	equ	0xFEA
  1472                           fsr0l	equ	0xFE9
  1473                           wreg	equ	0xFE8
  1474                           postdec1	equ	0xFE5
  1475                           fsr1h	equ	0xFE2
  1476                           fsr1l	equ	0xFE1
  1477                           fsr2h	equ	0xFDA
  1478                           fsr2l	equ	0xFD9
  1479                           
  1480 ;; *************** function _TMR0_ISR *****************
  1481 ;; Defined at:
  1482 ;;		line 90 in file "mcc_generated_files/tmr0.c"
  1483 ;; Parameters:    Size  Location     Type
  1484 ;;		None
  1485 ;; Auto vars:     Size  Location     Type
  1486 ;;		None
  1487 ;; Return value:  Size  Location     Type
  1488 ;;                  1    wreg      void 
  1489 ;; Registers used:
  1490 ;;		wreg, fsr2l, fsr2h, status,2, status,0, prodl, prodh, cstack
  1491 ;; Tracked objects:
  1492 ;;		On entry : 0/0
  1493 ;;		On exit  : 0/0
  1494 ;;		Unchanged: 0/0
  1495 ;; Data sizes:     COMRAM   BANK0   BANK1   BANK2   BANK3   BANK4   BANK5
  1496 ;;      Params:         0       0       0       0       0       0       0
  1497 ;;      Locals:         0       0       0       0       0       0       0
  1498 ;;      Temps:          0       0       0       0       0       0       0
  1499 ;;      Totals:         0       0       0       0       0       0       0
  1500 ;;Total ram usage:        0 bytes
  1501 ;; Hardware stack levels used:    1
  1502 ;; Hardware stack levels required when called:    5
  1503 ;; This function calls:
  1504 ;;		_TMR0_CallBack
  1505 ;; This function is called by:
  1506 ;;		_INTERRUPT_InterruptManager
  1507 ;; This function uses a non-reentrant model
  1508 ;;
  1509                           
  1510                           	psect	text11
  1511  001F7C                     __ptext11:
  1512                           	opt stack 0
  1513  001F7C                     _TMR0_ISR:
  1514                           	opt stack 21
  1515                           
  1516                           ;tmr0.c: 92: INTCONbits.TMR0IF = 0;
  1517                           
  1518                           ;incstack = 0
  1519  001F7C  94F2               	bcf	intcon,2,c	;volatile
  1520                           
  1521                           ;tmr0.c: 94: TMR0H = 1;
  1522  001F7E  0E01               	movlw	1
  1523  001F80  6ED7               	movwf	4055,c	;volatile
  1524                           
  1525                           ;tmr0.c: 95: TMR0L = 19;
  1526  001F82  0E13               	movlw	19
  1527  001F84  6ED6               	movwf	4054,c	;volatile
  1528                           
  1529                           ;tmr0.c: 103: TMR0_CallBack();
  1530  001F86  ECD7  F00F         	call	_TMR0_CallBack	;wreg free
  1531  001F8A  0012               	return		;funcret
  1532  001F8C                     __end_of_TMR0_ISR:
  1533                           	opt stack 0
  1534                           pclatu	equ	0xFFB
  1535                           pclath	equ	0xFFA
  1536                           tblptru	equ	0xFF8
  1537                           tblptrh	equ	0xFF7
  1538                           tblptrl	equ	0xFF6
  1539                           tablat	equ	0xFF5
  1540                           prodh	equ	0xFF4
  1541                           prodl	equ	0xFF3
  1542                           intcon	equ	0xFF2
  1543                           intcon2	equ	0xFF1
  1544                           postinc0	equ	0xFEE
  1545                           fsr0h	equ	0xFEA
  1546                           fsr0l	equ	0xFE9
  1547                           wreg	equ	0xFE8
  1548                           postdec1	equ	0xFE5
  1549                           fsr1h	equ	0xFE2
  1550                           fsr1l	equ	0xFE1
  1551                           fsr2h	equ	0xFDA
  1552                           fsr2l	equ	0xFD9
  1553                           
  1554 ;; *************** function _TMR0_CallBack *****************
  1555 ;; Defined at:
  1556 ;;		line 109 in file "mcc_generated_files/tmr0.c"
  1557 ;; Parameters:    Size  Location     Type
  1558 ;;		None
  1559 ;; Auto vars:     Size  Location     Type
  1560 ;;		None
  1561 ;; Return value:  Size  Location     Type
  1562 ;;                  1    wreg      void 
  1563 ;; Registers used:
  1564 ;;		wreg, fsr2l, fsr2h, status,2, status,0, prodl, prodh, cstack
  1565 ;; Tracked objects:
  1566 ;;		On entry : 0/0
  1567 ;;		On exit  : 0/0
  1568 ;;		Unchanged: 0/0
  1569 ;; Data sizes:     COMRAM   BANK0   BANK1   BANK2   BANK3   BANK4   BANK5
  1570 ;;      Params:         0       0       0       0       0       0       0
  1571 ;;      Locals:         0       0       0       0       0       0       0
  1572 ;;      Temps:          0       0       0       0       0       0       0
  1573 ;;      Totals:         0       0       0       0       0       0       0
  1574 ;;Total ram usage:        0 bytes
  1575 ;; Hardware stack levels used:    1
  1576 ;; Hardware stack levels required when called:    4
  1577 ;; This function calls:
  1578 ;;		_AppTimer30us
  1579 ;; This function is called by:
  1580 ;;		_TMR0_ISR
  1581 ;; This function uses a non-reentrant model
  1582 ;;
  1583                           
  1584                           	psect	text12
  1585  001FAE                     __ptext12:
  1586                           	opt stack 0
  1587  001FAE                     _TMR0_CallBack:
  1588                           	opt stack 21
  1589                           
  1590                           ;tmr0.c: 112: AppTimer30us();
  1591                           
  1592                           ;incstack = 0
  1593  001FAE  EC37  F00E         	call	_AppTimer30us	;wreg free
  1594  001FB2  0012               	return		;funcret
  1595  001FB4                     __end_of_TMR0_CallBack:
  1596                           	opt stack 0
  1597                           pclatu	equ	0xFFB
  1598                           pclath	equ	0xFFA
  1599                           tblptru	equ	0xFF8
  1600                           tblptrh	equ	0xFF7
  1601                           tblptrl	equ	0xFF6
  1602                           tablat	equ	0xFF5
  1603                           prodh	equ	0xFF4
  1604                           prodl	equ	0xFF3
  1605                           intcon	equ	0xFF2
  1606                           intcon2	equ	0xFF1
  1607                           postinc0	equ	0xFEE
  1608                           fsr0h	equ	0xFEA
  1609                           fsr0l	equ	0xFE9
  1610                           wreg	equ	0xFE8
  1611                           postdec1	equ	0xFE5
  1612                           fsr1h	equ	0xFE2
  1613                           fsr1l	equ	0xFE1
  1614                           fsr2h	equ	0xFDA
  1615                           fsr2l	equ	0xFD9
  1616                           
  1617 ;; *************** function _AppTimer30us *****************
  1618 ;; Defined at:
  1619 ;;		line 505 in file "mcc_generated_files/app.c"
  1620 ;; Parameters:    Size  Location     Type
  1621 ;;		None
  1622 ;; Auto vars:     Size  Location     Type
  1623 ;;		None
  1624 ;; Return value:  Size  Location     Type
  1625 ;;                  2   16[None  ] int 
  1626 ;; Registers used:
  1627 ;;		wreg, fsr2l, fsr2h, status,2, status,0, prodl, prodh, cstack
  1628 ;; Tracked objects:
  1629 ;;		On entry : 0/0
  1630 ;;		On exit  : 0/0
  1631 ;;		Unchanged: 0/0
  1632 ;; Data sizes:     COMRAM   BANK0   BANK1   BANK2   BANK3   BANK4   BANK5
  1633 ;;      Params:         0       0       0       0       0       0       0
  1634 ;;      Locals:         0       0       0       0       0       0       0
  1635 ;;      Temps:          0       0       0       0       0       0       0
  1636 ;;      Totals:         0       0       0       0       0       0       0
  1637 ;;Total ram usage:        0 bytes
  1638 ;; Hardware stack levels used:    1
  1639 ;; Hardware stack levels required when called:    3
  1640 ;; This function calls:
  1641 ;;		_AppTimer100ms
  1642 ;;		_AppTimer10ms
  1643 ;;		_AppTimer1ms
  1644 ;;		_AppTimer1s
  1645 ;; This function is called by:
  1646 ;;		_TMR0_CallBack
  1647 ;; This function uses a non-reentrant model
  1648 ;;
  1649                           
  1650                           	psect	text13
  1651  001C6E                     __ptext13:
  1652                           	opt stack 0
  1653  001C6E                     _AppTimer30us:
  1654                           	opt stack 21
  1655                           
  1656                           ;app.c: 506: static int count1ms = 4;
  1657                           ;app.c: 507: static int count10ms = 9;
  1658                           ;app.c: 508: static int count100ms = 9;
  1659                           ;app.c: 509: static int count1000ms = 9;
  1660                           ;app.c: 512: if (count1ms > 0) count1ms--;
  1661                           
  1662                           ;incstack = 0
  1663  001C6E  BE56               	btfsc	AppTimer30us@count1ms+1,7,c
  1664  001C70  D009               	goto	i2l3955
  1665  001C72  5056               	movf	AppTimer30us@count1ms+1,w,c
  1666  001C74  E103               	bnz	i2u425_40
  1667  001C76  0455               	decf	AppTimer30us@count1ms,w,c
  1668  001C78  A0D8               	btfss	status,0,c
  1669  001C7A  D004               	goto	i2l3955
  1670  001C7C                     i2u425_40:
  1671  001C7C  0655               	decf	AppTimer30us@count1ms,f,c
  1672  001C7E  A0D8               	btfss	status,0,c
  1673  001C80  0656               	decf	AppTimer30us@count1ms+1,f,c
  1674  001C82  0012               	return	
  1675  001C84                     i2l3955:
  1676                           
  1677                           ;app.c: 513: else {
  1678                           ;app.c: 514: count1ms = 33;
  1679  001C84  0E00               	movlw	0
  1680  001C86  6E56               	movwf	AppTimer30us@count1ms+1,c
  1681  001C88  0E21               	movlw	33
  1682  001C8A  6E55               	movwf	AppTimer30us@count1ms,c
  1683                           
  1684                           ;app.c: 515: AppTimer1ms();
  1685  001C8C  EC62  F00D         	call	_AppTimer1ms	;wreg free
  1686                           
  1687                           ;app.c: 516: if (count10ms > 0)count10ms--;
  1688  001C90  BE54               	btfsc	AppTimer30us@count10ms+1,7,c
  1689  001C92  D009               	goto	i2l3963
  1690  001C94  5054               	movf	AppTimer30us@count10ms+1,w,c
  1691  001C96  E103               	bnz	i2u426_40
  1692  001C98  0453               	decf	AppTimer30us@count10ms,w,c
  1693  001C9A  A0D8               	btfss	status,0,c
  1694  001C9C  D004               	goto	i2l3963
  1695  001C9E                     i2u426_40:
  1696  001C9E  0653               	decf	AppTimer30us@count10ms,f,c
  1697  001CA0  A0D8               	btfss	status,0,c
  1698  001CA2  0654               	decf	AppTimer30us@count10ms+1,f,c
  1699  001CA4  0012               	return	
  1700  001CA6                     i2l3963:
  1701                           
  1702                           ;app.c: 517: else {
  1703                           ;app.c: 518: count10ms = 9;
  1704  001CA6  0E00               	movlw	0
  1705  001CA8  6E54               	movwf	AppTimer30us@count10ms+1,c
  1706  001CAA  0E09               	movlw	9
  1707  001CAC  6E53               	movwf	AppTimer30us@count10ms,c
  1708                           
  1709                           ;app.c: 519: AppTimer10ms();
  1710  001CAE  ECE0  F00F         	call	_AppTimer10ms	;wreg free
  1711                           
  1712                           ;app.c: 520: if (count100ms > 0)count100ms--;
  1713  001CB2  BE52               	btfsc	AppTimer30us@count100ms+1,7,c
  1714  001CB4  D009               	goto	i2l3971
  1715  001CB6  5052               	movf	AppTimer30us@count100ms+1,w,c
  1716  001CB8  E103               	bnz	i2u427_40
  1717  001CBA  0451               	decf	AppTimer30us@count100ms,w,c
  1718  001CBC  A0D8               	btfss	status,0,c
  1719  001CBE  D004               	goto	i2l3971
  1720  001CC0                     i2u427_40:
  1721  001CC0  0651               	decf	AppTimer30us@count100ms,f,c
  1722  001CC2  A0D8               	btfss	status,0,c
  1723  001CC4  0652               	decf	AppTimer30us@count100ms+1,f,c
  1724  001CC6  0012               	return	
  1725  001CC8                     i2l3971:
  1726                           
  1727                           ;app.c: 521: else {
  1728                           ;app.c: 522: count100ms = 9;
  1729  001CC8  0E00               	movlw	0
  1730  001CCA  6E52               	movwf	AppTimer30us@count100ms+1,c
  1731  001CCC  0E09               	movlw	9
  1732  001CCE  6E51               	movwf	AppTimer30us@count100ms,c
  1733                           
  1734                           ;app.c: 523: AppTimer100ms();
  1735  001CD0  ECE1  F00F         	call	_AppTimer100ms	;wreg free
  1736                           
  1737                           ;app.c: 524: if (count1000ms > 0)count1000ms--;
  1738  001CD4  BE50               	btfsc	AppTimer30us@count1000ms+1,7,c
  1739  001CD6  D009               	goto	i2l3979
  1740  001CD8  5050               	movf	AppTimer30us@count1000ms+1,w,c
  1741  001CDA  E103               	bnz	i2u428_40
  1742  001CDC  044F               	decf	AppTimer30us@count1000ms,w,c
  1743  001CDE  A0D8               	btfss	status,0,c
  1744  001CE0  D004               	goto	i2l3979
  1745  001CE2                     i2u428_40:
  1746  001CE2  064F               	decf	AppTimer30us@count1000ms,f,c
  1747  001CE4  A0D8               	btfss	status,0,c
  1748  001CE6  0650               	decf	AppTimer30us@count1000ms+1,f,c
  1749  001CE8  0012               	return	
  1750  001CEA                     i2l3979:
  1751                           
  1752                           ;app.c: 525: else {
  1753                           ;app.c: 526: count1000ms = 9;
  1754  001CEA  0E00               	movlw	0
  1755  001CEC  6E50               	movwf	AppTimer30us@count1000ms+1,c
  1756  001CEE  0E09               	movlw	9
  1757  001CF0  6E4F               	movwf	AppTimer30us@count1000ms,c
  1758                           
  1759                           ;app.c: 527: AppTimer1s();
  1760  001CF2  ECDF  F00F         	call	_AppTimer1s	;wreg free
  1761  001CF6  0012               	return	
  1762  001CF8                     __end_of_AppTimer30us:
  1763                           	opt stack 0
  1764                           pclatu	equ	0xFFB
  1765                           pclath	equ	0xFFA
  1766                           tblptru	equ	0xFF8
  1767                           tblptrh	equ	0xFF7
  1768                           tblptrl	equ	0xFF6
  1769                           tablat	equ	0xFF5
  1770                           prodh	equ	0xFF4
  1771                           prodl	equ	0xFF3
  1772                           intcon	equ	0xFF2
  1773                           intcon2	equ	0xFF1
  1774                           postinc0	equ	0xFEE
  1775                           fsr0h	equ	0xFEA
  1776                           fsr0l	equ	0xFE9
  1777                           wreg	equ	0xFE8
  1778                           postdec1	equ	0xFE5
  1779                           fsr1h	equ	0xFE2
  1780                           fsr1l	equ	0xFE1
  1781                           fsr2h	equ	0xFDA
  1782                           fsr2l	equ	0xFD9
  1783                           status	equ	0xFD8
  1784                           
  1785 ;; *************** function _AppTimer1s *****************
  1786 ;; Defined at:
  1787 ;;		line 447 in file "mcc_generated_files/app.c"
  1788 ;; Parameters:    Size  Location     Type
  1789 ;;		None
  1790 ;; Auto vars:     Size  Location     Type
  1791 ;;		None
  1792 ;; Return value:  Size  Location     Type
  1793 ;;                  1    wreg      void 
  1794 ;; Registers used:
  1795 ;;		None
  1796 ;; Tracked objects:
  1797 ;;		On entry : 0/0
  1798 ;;		On exit  : 0/0
  1799 ;;		Unchanged: 0/0
  1800 ;; Data sizes:     COMRAM   BANK0   BANK1   BANK2   BANK3   BANK4   BANK5
  1801 ;;      Params:         0       0       0       0       0       0       0
  1802 ;;      Locals:         0       0       0       0       0       0       0
  1803 ;;      Temps:          0       0       0       0       0       0       0
  1804 ;;      Totals:         0       0       0       0       0       0       0
  1805 ;;Total ram usage:        0 bytes
  1806 ;; Hardware stack levels used:    1
  1807 ;; This function calls:
  1808 ;;		Nothing
  1809 ;; This function is called by:
  1810 ;;		_AppTimer30us
  1811 ;; This function uses a non-reentrant model
  1812 ;;
  1813                           
  1814                           	psect	text14
  1815  001FBE                     __ptext14:
  1816                           	opt stack 0
  1817  001FBE                     _AppTimer1s:
  1818                           	opt stack 23
  1819                           
  1820                           ;incstack = 0
  1821  001FBE  0012               	return		;funcret
  1822  001FC0                     __end_of_AppTimer1s:
  1823                           	opt stack 0
  1824                           pclatu	equ	0xFFB
  1825                           pclath	equ	0xFFA
  1826                           tblptru	equ	0xFF8
  1827                           tblptrh	equ	0xFF7
  1828                           tblptrl	equ	0xFF6
  1829                           tablat	equ	0xFF5
  1830                           prodh	equ	0xFF4
  1831                           prodl	equ	0xFF3
  1832                           intcon	equ	0xFF2
  1833                           intcon2	equ	0xFF1
  1834                           postinc0	equ	0xFEE
  1835                           fsr0h	equ	0xFEA
  1836                           fsr0l	equ	0xFE9
  1837                           wreg	equ	0xFE8
  1838                           postdec1	equ	0xFE5
  1839                           fsr1h	equ	0xFE2
  1840                           fsr1l	equ	0xFE1
  1841                           fsr2h	equ	0xFDA
  1842                           fsr2l	equ	0xFD9
  1843                           status	equ	0xFD8
  1844                           
  1845 ;; *************** function _AppTimer1ms *****************
  1846 ;; Defined at:
  1847 ;;		line 462 in file "mcc_generated_files/app.c"
  1848 ;; Parameters:    Size  Location     Type
  1849 ;;		None
  1850 ;; Auto vars:     Size  Location     Type
  1851 ;;		None
  1852 ;; Return value:  Size  Location     Type
  1853 ;;                  1    wreg      void 
  1854 ;; Registers used:
  1855 ;;		wreg, fsr2l, fsr2h, status,2, status,0, prodl, prodh, cstack
  1856 ;; Tracked objects:
  1857 ;;		On entry : 0/0
  1858 ;;		On exit  : 0/0
  1859 ;;		Unchanged: 0/0
  1860 ;; Data sizes:     COMRAM   BANK0   BANK1   BANK2   BANK3   BANK4   BANK5
  1861 ;;      Params:         0       0       0       0       0       0       0
  1862 ;;      Locals:         0       0       0       0       0       0       0
  1863 ;;      Temps:          0       0       0       0       0       0       0
  1864 ;;      Totals:         0       0       0       0       0       0       0
  1865 ;;Total ram usage:        0 bytes
  1866 ;; Hardware stack levels used:    1
  1867 ;; Hardware stack levels required when called:    2
  1868 ;; This function calls:
  1869 ;;		_SendBuffCh0
  1870 ;;		_SendBuffCh1
  1871 ;;		_SendBuffCh2
  1872 ;;		_SendBuffCh3
  1873 ;;		_SendBuffCh4
  1874 ;;		_SendBuffCh5
  1875 ;;		_SendBuffCh6
  1876 ;; This function is called by:
  1877 ;;		_AppTimer30us
  1878 ;; This function uses a non-reentrant model
  1879 ;;
  1880                           
  1881                           	psect	text15
  1882  001AC4                     __ptext15:
  1883                           	opt stack 0
  1884  001AC4                     _AppTimer1ms:
  1885                           	opt stack 21
  1886                           
  1887                           ;app.c: 464: if(ShootLedsCh0 == 1){
  1888                           
  1889                           ;incstack = 0
  1890  001AC4  0449               	decf	_ShootLedsCh0,w,c
  1891  001AC6  104A               	iorwf	_ShootLedsCh0+1,w,c
  1892  001AC8  A4D8               	btfss	status,2,c
  1893  001ACA  D00F               	goto	i2l3855
  1894                           
  1895                           ;app.c: 465: for(Idx=0; Idx < 64; Idx++)
  1896  001ACC  0E00               	movlw	0
  1897  001ACE  6E4E               	movwf	_Idx,c
  1898  001AD0                     i2l3843:
  1899  001AD0  0E3F               	movlw	63
  1900  001AD2  644E               	cpfsgt	_Idx,c
  1901  001AD4  D001               	goto	i2l3847
  1902  001AD6  D005               	goto	i2l3853
  1903  001AD8                     i2l3847:
  1904                           
  1905                           ;app.c: 466: SendBuffCh0(Idx);
  1906  001AD8  504E               	movf	_Idx,w,c
  1907  001ADA  ECFC  F00A         	call	_SendBuffCh0
  1908  001ADE  2A4E               	incf	_Idx,f,c
  1909  001AE0  D7F7               	goto	i2l3843
  1910  001AE2                     i2l3853:
  1911                           
  1912                           ;app.c: 467: ShootLedsCh0 = 0;
  1913  001AE2  0E00               	movlw	0
  1914  001AE4  6E4A               	movwf	_ShootLedsCh0+1,c
  1915  001AE6  0E00               	movlw	0
  1916  001AE8  6E49               	movwf	_ShootLedsCh0,c
  1917  001AEA                     i2l3855:
  1918                           
  1919                           ;app.c: 468: }
  1920                           ;app.c: 469: if(ShootLedsCh1 == 1){
  1921  001AEA  0447               	decf	_ShootLedsCh1,w,c
  1922  001AEC  1048               	iorwf	_ShootLedsCh1+1,w,c
  1923  001AEE  A4D8               	btfss	status,2,c
  1924  001AF0  D00F               	goto	i2l3871
  1925                           
  1926                           ;app.c: 470: for(Idx=0; Idx < 64; Idx++)
  1927  001AF2  0E00               	movlw	0
  1928  001AF4  6E4E               	movwf	_Idx,c
  1929  001AF6                     i2l3859:
  1930  001AF6  0E3F               	movlw	63
  1931  001AF8  644E               	cpfsgt	_Idx,c
  1932  001AFA  D001               	goto	i2l3863
  1933  001AFC  D005               	goto	i2l3869
  1934  001AFE                     i2l3863:
  1935                           
  1936                           ;app.c: 471: SendBuffCh1(Idx);
  1937  001AFE  504E               	movf	_Idx,w,c
  1938  001B00  EC7A  F009         	call	_SendBuffCh1
  1939  001B04  2A4E               	incf	_Idx,f,c
  1940  001B06  D7F7               	goto	i2l3859
  1941  001B08                     i2l3869:
  1942                           
  1943                           ;app.c: 472: ShootLedsCh1 = 0;
  1944  001B08  0E00               	movlw	0
  1945  001B0A  6E48               	movwf	_ShootLedsCh1+1,c
  1946  001B0C  0E00               	movlw	0
  1947  001B0E  6E47               	movwf	_ShootLedsCh1,c
  1948  001B10                     i2l3871:
  1949                           
  1950                           ;app.c: 473: }
  1951                           ;app.c: 474: if(ShootLedsCh2 == 1){
  1952  001B10  0445               	decf	_ShootLedsCh2,w,c
  1953  001B12  1046               	iorwf	_ShootLedsCh2+1,w,c
  1954  001B14  A4D8               	btfss	status,2,c
  1955  001B16  D00F               	goto	i2l3887
  1956                           
  1957                           ;app.c: 475: for(Idx=0; Idx < 64; Idx++)
  1958  001B18  0E00               	movlw	0
  1959  001B1A  6E4E               	movwf	_Idx,c
  1960  001B1C                     i2l3875:
  1961  001B1C  0E3F               	movlw	63
  1962  001B1E  644E               	cpfsgt	_Idx,c
  1963  001B20  D001               	goto	i2l3879
  1964  001B22  D005               	goto	i2l3885
  1965  001B24                     i2l3879:
  1966                           
  1967                           ;app.c: 476: SendBuffCh2(Idx);
  1968  001B24  504E               	movf	_Idx,w,c
  1969  001B26  ECF8  F007         	call	_SendBuffCh2
  1970  001B2A  2A4E               	incf	_Idx,f,c
  1971  001B2C  D7F7               	goto	i2l3875
  1972  001B2E                     i2l3885:
  1973                           
  1974                           ;app.c: 477: ShootLedsCh2 = 0;
  1975  001B2E  0E00               	movlw	0
  1976  001B30  6E46               	movwf	_ShootLedsCh2+1,c
  1977  001B32  0E00               	movlw	0
  1978  001B34  6E45               	movwf	_ShootLedsCh2,c
  1979  001B36                     i2l3887:
  1980                           
  1981                           ;app.c: 478: }
  1982                           ;app.c: 479: if(ShootLedsCh3 == 1){
  1983  001B36  0443               	decf	_ShootLedsCh3,w,c
  1984  001B38  1044               	iorwf	_ShootLedsCh3+1,w,c
  1985  001B3A  A4D8               	btfss	status,2,c
  1986  001B3C  D00F               	goto	i2l3903
  1987                           
  1988                           ;app.c: 480: for(Idx=0; Idx < 64; Idx++)
  1989  001B3E  0E00               	movlw	0
  1990  001B40  6E4E               	movwf	_Idx,c
  1991  001B42                     i2l3891:
  1992  001B42  0E3F               	movlw	63
  1993  001B44  644E               	cpfsgt	_Idx,c
  1994  001B46  D001               	goto	i2l3895
  1995  001B48  D005               	goto	i2l3901
  1996  001B4A                     i2l3895:
  1997                           
  1998                           ;app.c: 481: SendBuffCh3(Idx);
  1999  001B4A  504E               	movf	_Idx,w,c
  2000  001B4C  EC76  F006         	call	_SendBuffCh3
  2001  001B50  2A4E               	incf	_Idx,f,c
  2002  001B52  D7F7               	goto	i2l3891
  2003  001B54                     i2l3901:
  2004                           
  2005                           ;app.c: 482: ShootLedsCh3 = 0;
  2006  001B54  0E00               	movlw	0
  2007  001B56  6E44               	movwf	_ShootLedsCh3+1,c
  2008  001B58  0E00               	movlw	0
  2009  001B5A  6E43               	movwf	_ShootLedsCh3,c
  2010  001B5C                     i2l3903:
  2011                           
  2012                           ;app.c: 483: }
  2013                           ;app.c: 484: if(ShootLedsCh4 == 1){
  2014  001B5C  0441               	decf	_ShootLedsCh4,w,c
  2015  001B5E  1042               	iorwf	_ShootLedsCh4+1,w,c
  2016  001B60  A4D8               	btfss	status,2,c
  2017  001B62  D00F               	goto	i2l3919
  2018                           
  2019                           ;app.c: 485: for(Idx=0; Idx < 64; Idx++)
  2020  001B64  0E00               	movlw	0
  2021  001B66  6E4E               	movwf	_Idx,c
  2022  001B68                     i2l3907:
  2023  001B68  0E3F               	movlw	63
  2024  001B6A  644E               	cpfsgt	_Idx,c
  2025  001B6C  D001               	goto	i2l3911
  2026  001B6E  D005               	goto	i2l3917
  2027  001B70                     i2l3911:
  2028                           
  2029                           ;app.c: 486: SendBuffCh4(Idx);
  2030  001B70  504E               	movf	_Idx,w,c
  2031  001B72  ECF4  F004         	call	_SendBuffCh4
  2032  001B76  2A4E               	incf	_Idx,f,c
  2033  001B78  D7F7               	goto	i2l3907
  2034  001B7A                     i2l3917:
  2035                           
  2036                           ;app.c: 487: ShootLedsCh4 = 0;
  2037  001B7A  0E00               	movlw	0
  2038  001B7C  6E42               	movwf	_ShootLedsCh4+1,c
  2039  001B7E  0E00               	movlw	0
  2040  001B80  6E41               	movwf	_ShootLedsCh4,c
  2041  001B82                     i2l3919:
  2042                           
  2043                           ;app.c: 488: }
  2044                           ;app.c: 489: if(ShootLedsCh5 == 1){
  2045  001B82  043F               	decf	_ShootLedsCh5,w,c
  2046  001B84  1040               	iorwf	_ShootLedsCh5+1,w,c
  2047  001B86  A4D8               	btfss	status,2,c
  2048  001B88  D00F               	goto	i2l3935
  2049                           
  2050                           ;app.c: 490: for(Idx=0; Idx < 64; Idx++)
  2051  001B8A  0E00               	movlw	0
  2052  001B8C  6E4E               	movwf	_Idx,c
  2053  001B8E                     i2l3923:
  2054  001B8E  0E3F               	movlw	63
  2055  001B90  644E               	cpfsgt	_Idx,c
  2056  001B92  D001               	goto	i2l3927
  2057  001B94  D005               	goto	i2l3933
  2058  001B96                     i2l3927:
  2059                           
  2060                           ;app.c: 491: SendBuffCh5(Idx);
  2061  001B96  504E               	movf	_Idx,w,c
  2062  001B98  EC72  F003         	call	_SendBuffCh5
  2063  001B9C  2A4E               	incf	_Idx,f,c
  2064  001B9E  D7F7               	goto	i2l3923
  2065  001BA0                     i2l3933:
  2066                           
  2067                           ;app.c: 492: ShootLedsCh5 = 0;
  2068  001BA0  0E00               	movlw	0
  2069  001BA2  6E40               	movwf	_ShootLedsCh5+1,c
  2070  001BA4  0E00               	movlw	0
  2071  001BA6  6E3F               	movwf	_ShootLedsCh5,c
  2072  001BA8                     i2l3935:
  2073                           
  2074                           ;app.c: 493: }
  2075                           ;app.c: 494: if(ShootLedsCh6 == 1){
  2076  001BA8  043D               	decf	_ShootLedsCh6,w,c
  2077  001BAA  103E               	iorwf	_ShootLedsCh6+1,w,c
  2078  001BAC  A4D8               	btfss	status,2,c
  2079  001BAE  0012               	return	
  2080                           
  2081                           ;app.c: 495: for(Idx=0; Idx < 64; Idx++)
  2082  001BB0  0E00               	movlw	0
  2083  001BB2  6E4E               	movwf	_Idx,c
  2084  001BB4                     i2l3939:
  2085  001BB4  0E3F               	movlw	63
  2086  001BB6  644E               	cpfsgt	_Idx,c
  2087  001BB8  D001               	goto	i2l3943
  2088  001BBA  D005               	goto	i2l3949
  2089  001BBC                     i2l3943:
  2090                           
  2091                           ;app.c: 496: SendBuffCh6(Idx);
  2092  001BBC  504E               	movf	_Idx,w,c
  2093  001BBE  ECF0  F001         	call	_SendBuffCh6
  2094  001BC2  2A4E               	incf	_Idx,f,c
  2095  001BC4  D7F7               	goto	i2l3939
  2096  001BC6                     i2l3949:
  2097                           
  2098                           ;app.c: 497: ShootLedsCh6 = 0;
  2099  001BC6  0E00               	movlw	0
  2100  001BC8  6E3E               	movwf	_ShootLedsCh6+1,c
  2101  001BCA  0E00               	movlw	0
  2102  001BCC  6E3D               	movwf	_ShootLedsCh6,c
  2103  001BCE  0012               	return	
  2104  001BD0                     __end_of_AppTimer1ms:
  2105                           	opt stack 0
  2106                           pclatu	equ	0xFFB
  2107                           pclath	equ	0xFFA
  2108                           tblptru	equ	0xFF8
  2109                           tblptrh	equ	0xFF7
  2110                           tblptrl	equ	0xFF6
  2111                           tablat	equ	0xFF5
  2112                           prodh	equ	0xFF4
  2113                           prodl	equ	0xFF3
  2114                           intcon	equ	0xFF2
  2115                           intcon2	equ	0xFF1
  2116                           postinc0	equ	0xFEE
  2117                           fsr0h	equ	0xFEA
  2118                           fsr0l	equ	0xFE9
  2119                           wreg	equ	0xFE8
  2120                           postdec1	equ	0xFE5
  2121                           fsr1h	equ	0xFE2
  2122                           fsr1l	equ	0xFE1
  2123                           fsr2h	equ	0xFDA
  2124                           fsr2l	equ	0xFD9
  2125                           status	equ	0xFD8
  2126                           
  2127 ;; *************** function _SendBuffCh6 *****************
  2128 ;; Defined at:
  2129 ;;		line 359 in file "mcc_generated_files/app.c"
  2130 ;; Parameters:    Size  Location     Type
  2131 ;;  idx             1    wreg     unsigned char 
  2132 ;; Auto vars:     Size  Location     Type
  2133 ;;  idx             1    0[COMRAM] unsigned char 
  2134 ;; Return value:  Size  Location     Type
  2135 ;;                  1    wreg      void 
  2136 ;; Registers used:
  2137 ;;		wreg, fsr2l, fsr2h, status,2, status,0, prodl, prodh, cstack
  2138 ;; Tracked objects:
  2139 ;;		On entry : 0/0
  2140 ;;		On exit  : 0/0
  2141 ;;		Unchanged: 0/0
  2142 ;; Data sizes:     COMRAM   BANK0   BANK1   BANK2   BANK3   BANK4   BANK5
  2143 ;;      Params:         0       0       0       0       0       0       0
  2144 ;;      Locals:         1       0       0       0       0       0       0
  2145 ;;      Temps:          0       0       0       0       0       0       0
  2146 ;;      Totals:         1       0       0       0       0       0       0
  2147 ;;Total ram usage:        1 bytes
  2148 ;; Hardware stack levels used:    1
  2149 ;; Hardware stack levels required when called:    1
  2150 ;; This function calls:
  2151 ;;		_um_6
  2152 ;;		_zero_6
  2153 ;; This function is called by:
  2154 ;;		_AppTimer1ms
  2155 ;; This function uses a non-reentrant model
  2156 ;;
  2157                           
  2158                           	psect	text16
  2159  0003E0                     __ptext16:
  2160                           	opt stack 0
  2161  0003E0                     _SendBuffCh6:
  2162                           	opt stack 21
  2163                           
  2164                           ;incstack = 0
  2165                           ;SendBuffCh6@idx stored from wreg
  2166  0003E0  6E01               	movwf	SendBuffCh6@idx,c
  2167                           
  2168                           ;app.c: 361: if( (G6[idx] & 128) > 0) um_6();else zero_6();
  2169  0003E2  5001               	movf	SendBuffCh6@idx,w,c
  2170  0003E4  0D01               	mullw	1
  2171  0003E6  0E40               	movlw	low _G6
  2172  0003E8  24F3               	addwf	prodl,w,c
  2173  0003EA  6ED9               	movwf	fsr2l,c
  2174  0003EC  0E05               	movlw	high _G6
  2175  0003EE  20F4               	addwfc	prodh,w,c
  2176  0003F0  6EDA               	movwf	fsr2h,c
  2177  0003F2  0105               	movlb	5	; () banked
  2178  0003F4  AEDF               	btfss	indf2,7,c
  2179  0003F6  D003               	goto	i2l3699
  2180                           
  2181                           ; BSR set to: 5
  2182  0003F8  EC95  F00E         	call	_um_6	;wreg free
  2183  0003FC  D002               	goto	i2l3701
  2184  0003FE                     i2l3699:
  2185  0003FE  EC13  F00F         	call	_zero_6	;wreg free
  2186  000402                     i2l3701:
  2187                           
  2188                           ;app.c: 362: if( (G6[idx] & 64) > 0) um_6();else zero_6();
  2189  000402  5001               	movf	SendBuffCh6@idx,w,c
  2190  000404  0D01               	mullw	1
  2191  000406  0E40               	movlw	low _G6
  2192  000408  24F3               	addwf	prodl,w,c
  2193  00040A  6ED9               	movwf	fsr2l,c
  2194  00040C  0E05               	movlw	high _G6
  2195  00040E  20F4               	addwfc	prodh,w,c
  2196  000410  6EDA               	movwf	fsr2h,c
  2197  000412  0105               	movlb	5	; () banked
  2198  000414  ACDF               	btfss	indf2,6,c
  2199  000416  D003               	goto	i2l3705
  2200                           
  2201                           ; BSR set to: 5
  2202  000418  EC95  F00E         	call	_um_6	;wreg free
  2203  00041C  D002               	goto	i2l3707
  2204  00041E                     i2l3705:
  2205  00041E  EC13  F00F         	call	_zero_6	;wreg free
  2206  000422                     i2l3707:
  2207                           
  2208                           ;app.c: 363: if( (G6[idx] & 32) > 0) um_6();else zero_6();
  2209  000422  5001               	movf	SendBuffCh6@idx,w,c
  2210  000424  0D01               	mullw	1
  2211  000426  0E40               	movlw	low _G6
  2212  000428  24F3               	addwf	prodl,w,c
  2213  00042A  6ED9               	movwf	fsr2l,c
  2214  00042C  0E05               	movlw	high _G6
  2215  00042E  20F4               	addwfc	prodh,w,c
  2216  000430  6EDA               	movwf	fsr2h,c
  2217  000432  0105               	movlb	5	; () banked
  2218  000434  AADF               	btfss	indf2,5,c
  2219  000436  D003               	goto	i2l3711
  2220                           
  2221                           ; BSR set to: 5
  2222  000438  EC95  F00E         	call	_um_6	;wreg free
  2223  00043C  D002               	goto	i2l3713
  2224  00043E                     i2l3711:
  2225  00043E  EC13  F00F         	call	_zero_6	;wreg free
  2226  000442                     i2l3713:
  2227                           
  2228                           ;app.c: 364: if( (G6[idx] & 16) > 0) um_6();else zero_6();
  2229  000442  5001               	movf	SendBuffCh6@idx,w,c
  2230  000444  0D01               	mullw	1
  2231  000446  0E40               	movlw	low _G6
  2232  000448  24F3               	addwf	prodl,w,c
  2233  00044A  6ED9               	movwf	fsr2l,c
  2234  00044C  0E05               	movlw	high _G6
  2235  00044E  20F4               	addwfc	prodh,w,c
  2236  000450  6EDA               	movwf	fsr2h,c
  2237  000452  0105               	movlb	5	; () banked
  2238  000454  A8DF               	btfss	indf2,4,c
  2239  000456  D003               	goto	i2l3717
  2240                           
  2241                           ; BSR set to: 5
  2242  000458  EC95  F00E         	call	_um_6	;wreg free
  2243  00045C  D002               	goto	i2l3719
  2244  00045E                     i2l3717:
  2245  00045E  EC13  F00F         	call	_zero_6	;wreg free
  2246  000462                     i2l3719:
  2247                           
  2248                           ;app.c: 365: if( (G6[idx] & 8) > 0) um_6();else zero_6();
  2249  000462  5001               	movf	SendBuffCh6@idx,w,c
  2250  000464  0D01               	mullw	1
  2251  000466  0E40               	movlw	low _G6
  2252  000468  24F3               	addwf	prodl,w,c
  2253  00046A  6ED9               	movwf	fsr2l,c
  2254  00046C  0E05               	movlw	high _G6
  2255  00046E  20F4               	addwfc	prodh,w,c
  2256  000470  6EDA               	movwf	fsr2h,c
  2257  000472  0105               	movlb	5	; () banked
  2258  000474  A6DF               	btfss	indf2,3,c
  2259  000476  D003               	goto	i2l3723
  2260                           
  2261                           ; BSR set to: 5
  2262  000478  EC95  F00E         	call	_um_6	;wreg free
  2263  00047C  D002               	goto	i2l3725
  2264  00047E                     i2l3723:
  2265  00047E  EC13  F00F         	call	_zero_6	;wreg free
  2266  000482                     i2l3725:
  2267                           
  2268                           ;app.c: 366: if( (G6[idx] & 4) > 0) um_6();else zero_6();
  2269  000482  5001               	movf	SendBuffCh6@idx,w,c
  2270  000484  0D01               	mullw	1
  2271  000486  0E40               	movlw	low _G6
  2272  000488  24F3               	addwf	prodl,w,c
  2273  00048A  6ED9               	movwf	fsr2l,c
  2274  00048C  0E05               	movlw	high _G6
  2275  00048E  20F4               	addwfc	prodh,w,c
  2276  000490  6EDA               	movwf	fsr2h,c
  2277  000492  0105               	movlb	5	; () banked
  2278  000494  A4DF               	btfss	indf2,2,c
  2279  000496  D003               	goto	i2l3729
  2280                           
  2281                           ; BSR set to: 5
  2282  000498  EC95  F00E         	call	_um_6	;wreg free
  2283  00049C  D002               	goto	i2l3731
  2284  00049E                     i2l3729:
  2285  00049E  EC13  F00F         	call	_zero_6	;wreg free
  2286  0004A2                     i2l3731:
  2287                           
  2288                           ;app.c: 367: if( (G6[idx] & 2) > 0) um_6();else zero_6();
  2289  0004A2  5001               	movf	SendBuffCh6@idx,w,c
  2290  0004A4  0D01               	mullw	1
  2291  0004A6  0E40               	movlw	low _G6
  2292  0004A8  24F3               	addwf	prodl,w,c
  2293  0004AA  6ED9               	movwf	fsr2l,c
  2294  0004AC  0E05               	movlw	high _G6
  2295  0004AE  20F4               	addwfc	prodh,w,c
  2296  0004B0  6EDA               	movwf	fsr2h,c
  2297  0004B2  0105               	movlb	5	; () banked
  2298  0004B4  A2DF               	btfss	indf2,1,c
  2299  0004B6  D003               	goto	i2l3735
  2300                           
  2301                           ; BSR set to: 5
  2302  0004B8  EC95  F00E         	call	_um_6	;wreg free
  2303  0004BC  D002               	goto	i2l3737
  2304  0004BE                     i2l3735:
  2305  0004BE  EC13  F00F         	call	_zero_6	;wreg free
  2306  0004C2                     i2l3737:
  2307                           
  2308                           ;app.c: 368: if( (G6[idx] & 1) > 0) um_6();else zero_6();
  2309  0004C2  5001               	movf	SendBuffCh6@idx,w,c
  2310  0004C4  0D01               	mullw	1
  2311  0004C6  0E40               	movlw	low _G6
  2312  0004C8  24F3               	addwf	prodl,w,c
  2313  0004CA  6ED9               	movwf	fsr2l,c
  2314  0004CC  0E05               	movlw	high _G6
  2315  0004CE  20F4               	addwfc	prodh,w,c
  2316  0004D0  6EDA               	movwf	fsr2h,c
  2317  0004D2  0105               	movlb	5	; () banked
  2318  0004D4  A0DF               	btfss	indf2,0,c
  2319  0004D6  D003               	goto	i2l3741
  2320                           
  2321                           ; BSR set to: 5
  2322  0004D8  EC95  F00E         	call	_um_6	;wreg free
  2323  0004DC  D002               	goto	i2l3743
  2324  0004DE                     i2l3741:
  2325  0004DE  EC13  F00F         	call	_zero_6	;wreg free
  2326  0004E2                     i2l3743:
  2327                           
  2328                           ;app.c: 370: if( (R6[idx] & 128) > 0) um_6();else zero_6();
  2329  0004E2  5001               	movf	SendBuffCh6@idx,w,c
  2330  0004E4  0D01               	mullw	1
  2331  0004E6  0E80               	movlw	low _R6
  2332  0004E8  24F3               	addwf	prodl,w,c
  2333  0004EA  6ED9               	movwf	fsr2l,c
  2334  0004EC  0E05               	movlw	high _R6
  2335  0004EE  20F4               	addwfc	prodh,w,c
  2336  0004F0  6EDA               	movwf	fsr2h,c
  2337  0004F2  0105               	movlb	5	; () banked
  2338  0004F4  AEDF               	btfss	indf2,7,c
  2339  0004F6  D003               	goto	i2l3747
  2340                           
  2341                           ; BSR set to: 5
  2342  0004F8  EC95  F00E         	call	_um_6	;wreg free
  2343  0004FC  D002               	goto	i2l3749
  2344  0004FE                     i2l3747:
  2345  0004FE  EC13  F00F         	call	_zero_6	;wreg free
  2346  000502                     i2l3749:
  2347                           
  2348                           ;app.c: 371: if( (R6[idx] & 64) > 0) um_6();else zero_6();
  2349  000502  5001               	movf	SendBuffCh6@idx,w,c
  2350  000504  0D01               	mullw	1
  2351  000506  0E80               	movlw	low _R6
  2352  000508  24F3               	addwf	prodl,w,c
  2353  00050A  6ED9               	movwf	fsr2l,c
  2354  00050C  0E05               	movlw	high _R6
  2355  00050E  20F4               	addwfc	prodh,w,c
  2356  000510  6EDA               	movwf	fsr2h,c
  2357  000512  0105               	movlb	5	; () banked
  2358  000514  ACDF               	btfss	indf2,6,c
  2359  000516  D003               	goto	i2l3753
  2360                           
  2361                           ; BSR set to: 5
  2362  000518  EC95  F00E         	call	_um_6	;wreg free
  2363  00051C  D002               	goto	i2l3755
  2364  00051E                     i2l3753:
  2365  00051E  EC13  F00F         	call	_zero_6	;wreg free
  2366  000522                     i2l3755:
  2367                           
  2368                           ;app.c: 372: if( (R6[idx] & 32) > 0) um_6();else zero_6();
  2369  000522  5001               	movf	SendBuffCh6@idx,w,c
  2370  000524  0D01               	mullw	1
  2371  000526  0E80               	movlw	low _R6
  2372  000528  24F3               	addwf	prodl,w,c
  2373  00052A  6ED9               	movwf	fsr2l,c
  2374  00052C  0E05               	movlw	high _R6
  2375  00052E  20F4               	addwfc	prodh,w,c
  2376  000530  6EDA               	movwf	fsr2h,c
  2377  000532  0105               	movlb	5	; () banked
  2378  000534  AADF               	btfss	indf2,5,c
  2379  000536  D003               	goto	i2l3759
  2380                           
  2381                           ; BSR set to: 5
  2382  000538  EC95  F00E         	call	_um_6	;wreg free
  2383  00053C  D002               	goto	i2l3761
  2384  00053E                     i2l3759:
  2385  00053E  EC13  F00F         	call	_zero_6	;wreg free
  2386  000542                     i2l3761:
  2387                           
  2388                           ;app.c: 373: if( (R6[idx] & 16) > 0) um_6();else zero_6();
  2389  000542  5001               	movf	SendBuffCh6@idx,w,c
  2390  000544  0D01               	mullw	1
  2391  000546  0E80               	movlw	low _R6
  2392  000548  24F3               	addwf	prodl,w,c
  2393  00054A  6ED9               	movwf	fsr2l,c
  2394  00054C  0E05               	movlw	high _R6
  2395  00054E  20F4               	addwfc	prodh,w,c
  2396  000550  6EDA               	movwf	fsr2h,c
  2397  000552  0105               	movlb	5	; () banked
  2398  000554  A8DF               	btfss	indf2,4,c
  2399  000556  D003               	goto	i2l3765
  2400                           
  2401                           ; BSR set to: 5
  2402  000558  EC95  F00E         	call	_um_6	;wreg free
  2403  00055C  D002               	goto	i2l3767
  2404  00055E                     i2l3765:
  2405  00055E  EC13  F00F         	call	_zero_6	;wreg free
  2406  000562                     i2l3767:
  2407                           
  2408                           ;app.c: 374: if( (R6[idx] & 8) > 0) um_6();else zero_6();
  2409  000562  5001               	movf	SendBuffCh6@idx,w,c
  2410  000564  0D01               	mullw	1
  2411  000566  0E80               	movlw	low _R6
  2412  000568  24F3               	addwf	prodl,w,c
  2413  00056A  6ED9               	movwf	fsr2l,c
  2414  00056C  0E05               	movlw	high _R6
  2415  00056E  20F4               	addwfc	prodh,w,c
  2416  000570  6EDA               	movwf	fsr2h,c
  2417  000572  0105               	movlb	5	; () banked
  2418  000574  A6DF               	btfss	indf2,3,c
  2419  000576  D003               	goto	i2l3771
  2420                           
  2421                           ; BSR set to: 5
  2422  000578  EC95  F00E         	call	_um_6	;wreg free
  2423  00057C  D002               	goto	i2l3773
  2424  00057E                     i2l3771:
  2425  00057E  EC13  F00F         	call	_zero_6	;wreg free
  2426  000582                     i2l3773:
  2427                           
  2428                           ;app.c: 375: if( (R6[idx] & 4) > 0) um_6();else zero_6();
  2429  000582  5001               	movf	SendBuffCh6@idx,w,c
  2430  000584  0D01               	mullw	1
  2431  000586  0E80               	movlw	low _R6
  2432  000588  24F3               	addwf	prodl,w,c
  2433  00058A  6ED9               	movwf	fsr2l,c
  2434  00058C  0E05               	movlw	high _R6
  2435  00058E  20F4               	addwfc	prodh,w,c
  2436  000590  6EDA               	movwf	fsr2h,c
  2437  000592  0105               	movlb	5	; () banked
  2438  000594  A4DF               	btfss	indf2,2,c
  2439  000596  D003               	goto	i2l3777
  2440                           
  2441                           ; BSR set to: 5
  2442  000598  EC95  F00E         	call	_um_6	;wreg free
  2443  00059C  D002               	goto	i2l3779
  2444  00059E                     i2l3777:
  2445  00059E  EC13  F00F         	call	_zero_6	;wreg free
  2446  0005A2                     i2l3779:
  2447                           
  2448                           ;app.c: 376: if( (R6[idx] & 2) > 0) um_6();else zero_6();
  2449  0005A2  5001               	movf	SendBuffCh6@idx,w,c
  2450  0005A4  0D01               	mullw	1
  2451  0005A6  0E80               	movlw	low _R6
  2452  0005A8  24F3               	addwf	prodl,w,c
  2453  0005AA  6ED9               	movwf	fsr2l,c
  2454  0005AC  0E05               	movlw	high _R6
  2455  0005AE  20F4               	addwfc	prodh,w,c
  2456  0005B0  6EDA               	movwf	fsr2h,c
  2457  0005B2  0105               	movlb	5	; () banked
  2458  0005B4  A2DF               	btfss	indf2,1,c
  2459  0005B6  D003               	goto	i2l3783
  2460                           
  2461                           ; BSR set to: 5
  2462  0005B8  EC95  F00E         	call	_um_6	;wreg free
  2463  0005BC  D002               	goto	i2l3785
  2464  0005BE                     i2l3783:
  2465  0005BE  EC13  F00F         	call	_zero_6	;wreg free
  2466  0005C2                     i2l3785:
  2467                           
  2468                           ;app.c: 377: if( (R6[idx] & 1) > 0) um_6();else zero_6();
  2469  0005C2  5001               	movf	SendBuffCh6@idx,w,c
  2470  0005C4  0D01               	mullw	1
  2471  0005C6  0E80               	movlw	low _R6
  2472  0005C8  24F3               	addwf	prodl,w,c
  2473  0005CA  6ED9               	movwf	fsr2l,c
  2474  0005CC  0E05               	movlw	high _R6
  2475  0005CE  20F4               	addwfc	prodh,w,c
  2476  0005D0  6EDA               	movwf	fsr2h,c
  2477  0005D2  0105               	movlb	5	; () banked
  2478  0005D4  A0DF               	btfss	indf2,0,c
  2479  0005D6  D003               	goto	i2l3789
  2480                           
  2481                           ; BSR set to: 5
  2482  0005D8  EC95  F00E         	call	_um_6	;wreg free
  2483  0005DC  D002               	goto	i2l3791
  2484  0005DE                     i2l3789:
  2485  0005DE  EC13  F00F         	call	_zero_6	;wreg free
  2486  0005E2                     i2l3791:
  2487                           
  2488                           ;app.c: 379: if( (B6[idx] & 128) > 0) um_6();else zero_6();
  2489  0005E2  5001               	movf	SendBuffCh6@idx,w,c
  2490  0005E4  0D01               	mullw	1
  2491  0005E6  0E00               	movlw	low _B6
  2492  0005E8  24F3               	addwf	prodl,w,c
  2493  0005EA  6ED9               	movwf	fsr2l,c
  2494  0005EC  0E05               	movlw	high _B6
  2495  0005EE  20F4               	addwfc	prodh,w,c
  2496  0005F0  6EDA               	movwf	fsr2h,c
  2497  0005F2  0105               	movlb	5	; () banked
  2498  0005F4  AEDF               	btfss	indf2,7,c
  2499  0005F6  D003               	goto	i2l3795
  2500                           
  2501                           ; BSR set to: 5
  2502  0005F8  EC95  F00E         	call	_um_6	;wreg free
  2503  0005FC  D002               	goto	i2l3797
  2504  0005FE                     i2l3795:
  2505  0005FE  EC13  F00F         	call	_zero_6	;wreg free
  2506  000602                     i2l3797:
  2507                           
  2508                           ;app.c: 380: if( (B6[idx] & 64) > 0) um_6();else zero_6();
  2509  000602  5001               	movf	SendBuffCh6@idx,w,c
  2510  000604  0D01               	mullw	1
  2511  000606  0E00               	movlw	low _B6
  2512  000608  24F3               	addwf	prodl,w,c
  2513  00060A  6ED9               	movwf	fsr2l,c
  2514  00060C  0E05               	movlw	high _B6
  2515  00060E  20F4               	addwfc	prodh,w,c
  2516  000610  6EDA               	movwf	fsr2h,c
  2517  000612  0105               	movlb	5	; () banked
  2518  000614  ACDF               	btfss	indf2,6,c
  2519  000616  D003               	goto	i2l3801
  2520                           
  2521                           ; BSR set to: 5
  2522  000618  EC95  F00E         	call	_um_6	;wreg free
  2523  00061C  D002               	goto	i2l3803
  2524  00061E                     i2l3801:
  2525  00061E  EC13  F00F         	call	_zero_6	;wreg free
  2526  000622                     i2l3803:
  2527                           
  2528                           ;app.c: 381: if( (B6[idx] & 32) > 0) um_6();else zero_6();
  2529  000622  5001               	movf	SendBuffCh6@idx,w,c
  2530  000624  0D01               	mullw	1
  2531  000626  0E00               	movlw	low _B6
  2532  000628  24F3               	addwf	prodl,w,c
  2533  00062A  6ED9               	movwf	fsr2l,c
  2534  00062C  0E05               	movlw	high _B6
  2535  00062E  20F4               	addwfc	prodh,w,c
  2536  000630  6EDA               	movwf	fsr2h,c
  2537  000632  0105               	movlb	5	; () banked
  2538  000634  AADF               	btfss	indf2,5,c
  2539  000636  D003               	goto	i2l3807
  2540                           
  2541                           ; BSR set to: 5
  2542  000638  EC95  F00E         	call	_um_6	;wreg free
  2543  00063C  D002               	goto	i2l3809
  2544  00063E                     i2l3807:
  2545  00063E  EC13  F00F         	call	_zero_6	;wreg free
  2546  000642                     i2l3809:
  2547                           
  2548                           ;app.c: 382: if( (B6[idx] & 16) > 0) um_6();else zero_6();
  2549  000642  5001               	movf	SendBuffCh6@idx,w,c
  2550  000644  0D01               	mullw	1
  2551  000646  0E00               	movlw	low _B6
  2552  000648  24F3               	addwf	prodl,w,c
  2553  00064A  6ED9               	movwf	fsr2l,c
  2554  00064C  0E05               	movlw	high _B6
  2555  00064E  20F4               	addwfc	prodh,w,c
  2556  000650  6EDA               	movwf	fsr2h,c
  2557  000652  0105               	movlb	5	; () banked
  2558  000654  A8DF               	btfss	indf2,4,c
  2559  000656  D003               	goto	i2l3813
  2560                           
  2561                           ; BSR set to: 5
  2562  000658  EC95  F00E         	call	_um_6	;wreg free
  2563  00065C  D002               	goto	i2l3815
  2564  00065E                     i2l3813:
  2565  00065E  EC13  F00F         	call	_zero_6	;wreg free
  2566  000662                     i2l3815:
  2567                           
  2568                           ;app.c: 383: if( (B6[idx] & 8) > 0) um_6();else zero_6();
  2569  000662  5001               	movf	SendBuffCh6@idx,w,c
  2570  000664  0D01               	mullw	1
  2571  000666  0E00               	movlw	low _B6
  2572  000668  24F3               	addwf	prodl,w,c
  2573  00066A  6ED9               	movwf	fsr2l,c
  2574  00066C  0E05               	movlw	high _B6
  2575  00066E  20F4               	addwfc	prodh,w,c
  2576  000670  6EDA               	movwf	fsr2h,c
  2577  000672  0105               	movlb	5	; () banked
  2578  000674  A6DF               	btfss	indf2,3,c
  2579  000676  D003               	goto	i2l3819
  2580                           
  2581                           ; BSR set to: 5
  2582  000678  EC95  F00E         	call	_um_6	;wreg free
  2583  00067C  D002               	goto	i2l3821
  2584  00067E                     i2l3819:
  2585  00067E  EC13  F00F         	call	_zero_6	;wreg free
  2586  000682                     i2l3821:
  2587                           
  2588                           ;app.c: 384: if( (B6[idx] & 4) > 0) um_6();else zero_6();
  2589  000682  5001               	movf	SendBuffCh6@idx,w,c
  2590  000684  0D01               	mullw	1
  2591  000686  0E00               	movlw	low _B6
  2592  000688  24F3               	addwf	prodl,w,c
  2593  00068A  6ED9               	movwf	fsr2l,c
  2594  00068C  0E05               	movlw	high _B6
  2595  00068E  20F4               	addwfc	prodh,w,c
  2596  000690  6EDA               	movwf	fsr2h,c
  2597  000692  0105               	movlb	5	; () banked
  2598  000694  A4DF               	btfss	indf2,2,c
  2599  000696  D003               	goto	i2l3825
  2600                           
  2601                           ; BSR set to: 5
  2602  000698  EC95  F00E         	call	_um_6	;wreg free
  2603  00069C  D002               	goto	i2l3827
  2604  00069E                     i2l3825:
  2605  00069E  EC13  F00F         	call	_zero_6	;wreg free
  2606  0006A2                     i2l3827:
  2607                           
  2608                           ;app.c: 385: if( (B6[idx] & 2) > 0) um_6();else zero_6();
  2609  0006A2  5001               	movf	SendBuffCh6@idx,w,c
  2610  0006A4  0D01               	mullw	1
  2611  0006A6  0E00               	movlw	low _B6
  2612  0006A8  24F3               	addwf	prodl,w,c
  2613  0006AA  6ED9               	movwf	fsr2l,c
  2614  0006AC  0E05               	movlw	high _B6
  2615  0006AE  20F4               	addwfc	prodh,w,c
  2616  0006B0  6EDA               	movwf	fsr2h,c
  2617  0006B2  0105               	movlb	5	; () banked
  2618  0006B4  A2DF               	btfss	indf2,1,c
  2619  0006B6  D003               	goto	i2l3831
  2620                           
  2621                           ; BSR set to: 5
  2622  0006B8  EC95  F00E         	call	_um_6	;wreg free
  2623  0006BC  D002               	goto	i2l3833
  2624  0006BE                     i2l3831:
  2625  0006BE  EC13  F00F         	call	_zero_6	;wreg free
  2626  0006C2                     i2l3833:
  2627                           
  2628                           ;app.c: 386: if( (B6[idx] & 1) > 0) um_6();else zero_6();
  2629  0006C2  5001               	movf	SendBuffCh6@idx,w,c
  2630  0006C4  0D01               	mullw	1
  2631  0006C6  0E00               	movlw	low _B6
  2632  0006C8  24F3               	addwf	prodl,w,c
  2633  0006CA  6ED9               	movwf	fsr2l,c
  2634  0006CC  0E05               	movlw	high _B6
  2635  0006CE  20F4               	addwfc	prodh,w,c
  2636  0006D0  6EDA               	movwf	fsr2h,c
  2637  0006D2  0105               	movlb	5	; () banked
  2638  0006D4  A0DF               	btfss	indf2,0,c
  2639  0006D6  D003               	goto	i2l3837
  2640                           
  2641                           ; BSR set to: 5
  2642  0006D8  EC95  F00E         	call	_um_6	;wreg free
  2643  0006DC  0012               	return	
  2644  0006DE                     i2l3837:
  2645  0006DE  EC13  F00F         	call	_zero_6	;wreg free
  2646  0006E2  0012               	return	
  2647  0006E4                     __end_of_SendBuffCh6:
  2648                           	opt stack 0
  2649                           pclatu	equ	0xFFB
  2650                           pclath	equ	0xFFA
  2651                           tblptru	equ	0xFF8
  2652                           tblptrh	equ	0xFF7
  2653                           tblptrl	equ	0xFF6
  2654                           tablat	equ	0xFF5
  2655                           prodh	equ	0xFF4
  2656                           prodl	equ	0xFF3
  2657                           intcon	equ	0xFF2
  2658                           intcon2	equ	0xFF1
  2659                           postinc0	equ	0xFEE
  2660                           fsr0h	equ	0xFEA
  2661                           fsr0l	equ	0xFE9
  2662                           wreg	equ	0xFE8
  2663                           postdec1	equ	0xFE5
  2664                           fsr1h	equ	0xFE2
  2665                           fsr1l	equ	0xFE1
  2666                           indf2	equ	0xFDF
  2667                           fsr2h	equ	0xFDA
  2668                           fsr2l	equ	0xFD9
  2669                           status	equ	0xFD8
  2670                           
  2671 ;; *************** function _zero_6 *****************
  2672 ;; Defined at:
  2673 ;;		line 177 in file "mcc_generated_files/app.c"
  2674 ;; Parameters:    Size  Location     Type
  2675 ;;		None
  2676 ;; Auto vars:     Size  Location     Type
  2677 ;;		None
  2678 ;; Return value:  Size  Location     Type
  2679 ;;                  1    wreg      void 
  2680 ;; Registers used:
  2681 ;;		None
  2682 ;; Tracked objects:
  2683 ;;		On entry : 0/0
  2684 ;;		On exit  : 0/0
  2685 ;;		Unchanged: 0/0
  2686 ;; Data sizes:     COMRAM   BANK0   BANK1   BANK2   BANK3   BANK4   BANK5
  2687 ;;      Params:         0       0       0       0       0       0       0
  2688 ;;      Locals:         0       0       0       0       0       0       0
  2689 ;;      Temps:          0       0       0       0       0       0       0
  2690 ;;      Totals:         0       0       0       0       0       0       0
  2691 ;;Total ram usage:        0 bytes
  2692 ;; Hardware stack levels used:    1
  2693 ;; This function calls:
  2694 ;;		Nothing
  2695 ;; This function is called by:
  2696 ;;		_SendBuffCh6
  2697 ;; This function uses a non-reentrant model
  2698 ;;
  2699                           
  2700                           	psect	text17
  2701  001E26                     __ptext17:
  2702                           	opt stack 0
  2703  001E26                     _zero_6:
  2704                           	opt stack 21
  2705                           
  2706                           ;incstack = 0
  2707  001E26  8A8A               	bsf	3978,5,c	;volatile
  2708  001E28  F000               	nop	
  2709  001E2A  F000               	nop	
  2710  001E2C  F000               	nop	
  2711  001E2E  F000               	nop	
  2712  001E30  F000               	nop	
  2713  001E32  F000               	nop	
  2714                           
  2715                           ;app.c: 178: LATB5 = 0; __nop();__nop();__nop();__nop();__nop();__nop(); }
  2716  001E34  9A8A               	bcf	3978,5,c	;volatile
  2717  001E36  F000               	nop	
  2718  001E38  F000               	nop	
  2719  001E3A  F000               	nop	
  2720  001E3C  F000               	nop	
  2721  001E3E  F000               	nop	
  2722  001E40  F000               	nop	
  2723  001E42  0012               	return		;funcret
  2724  001E44                     __end_of_zero_6:
  2725                           	opt stack 0
  2726                           pclatu	equ	0xFFB
  2727                           pclath	equ	0xFFA
  2728                           tblptru	equ	0xFF8
  2729                           tblptrh	equ	0xFF7
  2730                           tblptrl	equ	0xFF6
  2731                           tablat	equ	0xFF5
  2732                           prodh	equ	0xFF4
  2733                           prodl	equ	0xFF3
  2734                           intcon	equ	0xFF2
  2735                           intcon2	equ	0xFF1
  2736                           postinc0	equ	0xFEE
  2737                           fsr0h	equ	0xFEA
  2738                           fsr0l	equ	0xFE9
  2739                           wreg	equ	0xFE8
  2740                           postdec1	equ	0xFE5
  2741                           fsr1h	equ	0xFE2
  2742                           fsr1l	equ	0xFE1
  2743                           indf2	equ	0xFDF
  2744                           fsr2h	equ	0xFDA
  2745                           fsr2l	equ	0xFD9
  2746                           status	equ	0xFD8
  2747                           
  2748 ;; *************** function _um_6 *****************
  2749 ;; Defined at:
  2750 ;;		line 173 in file "mcc_generated_files/app.c"
  2751 ;; Parameters:    Size  Location     Type
  2752 ;;		None
  2753 ;; Auto vars:     Size  Location     Type
  2754 ;;		None
  2755 ;; Return value:  Size  Location     Type
  2756 ;;                  1    wreg      void 
  2757 ;; Registers used:
  2758 ;;		None
  2759 ;; Tracked objects:
  2760 ;;		On entry : 0/0
  2761 ;;		On exit  : 0/0
  2762 ;;		Unchanged: 0/0
  2763 ;; Data sizes:     COMRAM   BANK0   BANK1   BANK2   BANK3   BANK4   BANK5
  2764 ;;      Params:         0       0       0       0       0       0       0
  2765 ;;      Locals:         0       0       0       0       0       0       0
  2766 ;;      Temps:          0       0       0       0       0       0       0
  2767 ;;      Totals:         0       0       0       0       0       0       0
  2768 ;;Total ram usage:        0 bytes
  2769 ;; Hardware stack levels used:    1
  2770 ;; This function calls:
  2771 ;;		Nothing
  2772 ;; This function is called by:
  2773 ;;		_SendBuffCh6
  2774 ;; This function uses a non-reentrant model
  2775 ;;
  2776                           
  2777                           	psect	text18
  2778  001D2A                     __ptext18:
  2779                           	opt stack 0
  2780  001D2A                     _um_6:
  2781                           	opt stack 21
  2782                           
  2783                           ;incstack = 0
  2784  001D2A  8A8A               	bsf	3978,5,c	;volatile
  2785  001D2C  F000               	nop	
  2786  001D2E  F000               	nop	
  2787  001D30  F000               	nop	
  2788  001D32  F000               	nop	
  2789  001D34  F000               	nop	
  2790  001D36  F000               	nop	
  2791                           
  2792                           ;app.c: 174: __nop();__nop();__nop();__nop();__nop();__nop();
  2793  001D38  F000               	nop	
  2794  001D3A  F000               	nop	
  2795  001D3C  F000               	nop	
  2796  001D3E  F000               	nop	
  2797  001D40  F000               	nop	
  2798  001D42  F000               	nop	
  2799                           
  2800                           ;app.c: 175: __nop();__nop();__nop(); LATB5 = 0;
  2801  001D44  F000               	nop	
  2802  001D46  F000               	nop	
  2803  001D48  F000               	nop	
  2804  001D4A  9A8A               	bcf	3978,5,c	;volatile
  2805  001D4C  0012               	return		;funcret
  2806  001D4E                     __end_of_um_6:
  2807                           	opt stack 0
  2808                           pclatu	equ	0xFFB
  2809                           pclath	equ	0xFFA
  2810                           tblptru	equ	0xFF8
  2811                           tblptrh	equ	0xFF7
  2812                           tblptrl	equ	0xFF6
  2813                           tablat	equ	0xFF5
  2814                           prodh	equ	0xFF4
  2815                           prodl	equ	0xFF3
  2816                           intcon	equ	0xFF2
  2817                           intcon2	equ	0xFF1
  2818                           postinc0	equ	0xFEE
  2819                           fsr0h	equ	0xFEA
  2820                           fsr0l	equ	0xFE9
  2821                           wreg	equ	0xFE8
  2822                           postdec1	equ	0xFE5
  2823                           fsr1h	equ	0xFE2
  2824                           fsr1l	equ	0xFE1
  2825                           indf2	equ	0xFDF
  2826                           fsr2h	equ	0xFDA
  2827                           fsr2l	equ	0xFD9
  2828                           status	equ	0xFD8
  2829                           
  2830 ;; *************** function _SendBuffCh5 *****************
  2831 ;; Defined at:
  2832 ;;		line 330 in file "mcc_generated_files/app.c"
  2833 ;; Parameters:    Size  Location     Type
  2834 ;;  idx             1    wreg     unsigned char 
  2835 ;; Auto vars:     Size  Location     Type
  2836 ;;  idx             1    0[COMRAM] unsigned char 
  2837 ;; Return value:  Size  Location     Type
  2838 ;;                  1    wreg      void 
  2839 ;; Registers used:
  2840 ;;		wreg, fsr2l, fsr2h, status,2, status,0, prodl, prodh, cstack
  2841 ;; Tracked objects:
  2842 ;;		On entry : 0/0
  2843 ;;		On exit  : 0/0
  2844 ;;		Unchanged: 0/0
  2845 ;; Data sizes:     COMRAM   BANK0   BANK1   BANK2   BANK3   BANK4   BANK5
  2846 ;;      Params:         0       0       0       0       0       0       0
  2847 ;;      Locals:         1       0       0       0       0       0       0
  2848 ;;      Temps:          0       0       0       0       0       0       0
  2849 ;;      Totals:         1       0       0       0       0       0       0
  2850 ;;Total ram usage:        1 bytes
  2851 ;; Hardware stack levels used:    1
  2852 ;; Hardware stack levels required when called:    1
  2853 ;; This function calls:
  2854 ;;		_um_5
  2855 ;;		_zero_5
  2856 ;; This function is called by:
  2857 ;;		_AppTimer1ms
  2858 ;; This function uses a non-reentrant model
  2859 ;;
  2860                           
  2861                           	psect	text19
  2862  0006E4                     __ptext19:
  2863                           	opt stack 0
  2864  0006E4                     _SendBuffCh5:
  2865                           	opt stack 21
  2866                           
  2867                           ;incstack = 0
  2868                           ;SendBuffCh5@idx stored from wreg
  2869  0006E4  6E01               	movwf	SendBuffCh5@idx,c
  2870                           
  2871                           ;app.c: 332: if( (G5[idx] & 128) > 0) um_5();else zero_5();
  2872  0006E6  5001               	movf	SendBuffCh5@idx,w,c
  2873  0006E8  0D01               	mullw	1
  2874  0006EA  0E40               	movlw	low _G5
  2875  0006EC  24F3               	addwf	prodl,w,c
  2876  0006EE  6ED9               	movwf	fsr2l,c
  2877  0006F0  0E04               	movlw	high _G5
  2878  0006F2  20F4               	addwfc	prodh,w,c
  2879  0006F4  6EDA               	movwf	fsr2h,c
  2880  0006F6  0104               	movlb	4	; () banked
  2881  0006F8  AEDF               	btfss	indf2,7,c
  2882  0006FA  D003               	goto	i2l3555
  2883                           
  2884                           ; BSR set to: 4
  2885  0006FC  ECA7  F00E         	call	_um_5	;wreg free
  2886  000700  D002               	goto	i2l3557
  2887  000702                     i2l3555:
  2888  000702  EC22  F00F         	call	_zero_5	;wreg free
  2889  000706                     i2l3557:
  2890                           
  2891                           ;app.c: 333: if( (G5[idx] & 64) > 0) um_5();else zero_5();
  2892  000706  5001               	movf	SendBuffCh5@idx,w,c
  2893  000708  0D01               	mullw	1
  2894  00070A  0E40               	movlw	low _G5
  2895  00070C  24F3               	addwf	prodl,w,c
  2896  00070E  6ED9               	movwf	fsr2l,c
  2897  000710  0E04               	movlw	high _G5
  2898  000712  20F4               	addwfc	prodh,w,c
  2899  000714  6EDA               	movwf	fsr2h,c
  2900  000716  0104               	movlb	4	; () banked
  2901  000718  ACDF               	btfss	indf2,6,c
  2902  00071A  D003               	goto	i2l3561
  2903                           
  2904                           ; BSR set to: 4
  2905  00071C  ECA7  F00E         	call	_um_5	;wreg free
  2906  000720  D002               	goto	i2l3563
  2907  000722                     i2l3561:
  2908  000722  EC22  F00F         	call	_zero_5	;wreg free
  2909  000726                     i2l3563:
  2910                           
  2911                           ;app.c: 334: if( (G5[idx] & 32) > 0) um_5();else zero_5();
  2912  000726  5001               	movf	SendBuffCh5@idx,w,c
  2913  000728  0D01               	mullw	1
  2914  00072A  0E40               	movlw	low _G5
  2915  00072C  24F3               	addwf	prodl,w,c
  2916  00072E  6ED9               	movwf	fsr2l,c
  2917  000730  0E04               	movlw	high _G5
  2918  000732  20F4               	addwfc	prodh,w,c
  2919  000734  6EDA               	movwf	fsr2h,c
  2920  000736  0104               	movlb	4	; () banked
  2921  000738  AADF               	btfss	indf2,5,c
  2922  00073A  D003               	goto	i2l3567
  2923                           
  2924                           ; BSR set to: 4
  2925  00073C  ECA7  F00E         	call	_um_5	;wreg free
  2926  000740  D002               	goto	i2l3569
  2927  000742                     i2l3567:
  2928  000742  EC22  F00F         	call	_zero_5	;wreg free
  2929  000746                     i2l3569:
  2930                           
  2931                           ;app.c: 335: if( (G5[idx] & 16) > 0) um_5();else zero_5();
  2932  000746  5001               	movf	SendBuffCh5@idx,w,c
  2933  000748  0D01               	mullw	1
  2934  00074A  0E40               	movlw	low _G5
  2935  00074C  24F3               	addwf	prodl,w,c
  2936  00074E  6ED9               	movwf	fsr2l,c
  2937  000750  0E04               	movlw	high _G5
  2938  000752  20F4               	addwfc	prodh,w,c
  2939  000754  6EDA               	movwf	fsr2h,c
  2940  000756  0104               	movlb	4	; () banked
  2941  000758  A8DF               	btfss	indf2,4,c
  2942  00075A  D003               	goto	i2l3573
  2943                           
  2944                           ; BSR set to: 4
  2945  00075C  ECA7  F00E         	call	_um_5	;wreg free
  2946  000760  D002               	goto	i2l3575
  2947  000762                     i2l3573:
  2948  000762  EC22  F00F         	call	_zero_5	;wreg free
  2949  000766                     i2l3575:
  2950                           
  2951                           ;app.c: 336: if( (G5[idx] & 8) > 0) um_5();else zero_5();
  2952  000766  5001               	movf	SendBuffCh5@idx,w,c
  2953  000768  0D01               	mullw	1
  2954  00076A  0E40               	movlw	low _G5
  2955  00076C  24F3               	addwf	prodl,w,c
  2956  00076E  6ED9               	movwf	fsr2l,c
  2957  000770  0E04               	movlw	high _G5
  2958  000772  20F4               	addwfc	prodh,w,c
  2959  000774  6EDA               	movwf	fsr2h,c
  2960  000776  0104               	movlb	4	; () banked
  2961  000778  A6DF               	btfss	indf2,3,c
  2962  00077A  D003               	goto	i2l3579
  2963                           
  2964                           ; BSR set to: 4
  2965  00077C  ECA7  F00E         	call	_um_5	;wreg free
  2966  000780  D002               	goto	i2l3581
  2967  000782                     i2l3579:
  2968  000782  EC22  F00F         	call	_zero_5	;wreg free
  2969  000786                     i2l3581:
  2970                           
  2971                           ;app.c: 337: if( (G5[idx] & 4) > 0) um_5();else zero_5();
  2972  000786  5001               	movf	SendBuffCh5@idx,w,c
  2973  000788  0D01               	mullw	1
  2974  00078A  0E40               	movlw	low _G5
  2975  00078C  24F3               	addwf	prodl,w,c
  2976  00078E  6ED9               	movwf	fsr2l,c
  2977  000790  0E04               	movlw	high _G5
  2978  000792  20F4               	addwfc	prodh,w,c
  2979  000794  6EDA               	movwf	fsr2h,c
  2980  000796  0104               	movlb	4	; () banked
  2981  000798  A4DF               	btfss	indf2,2,c
  2982  00079A  D003               	goto	i2l3585
  2983                           
  2984                           ; BSR set to: 4
  2985  00079C  ECA7  F00E         	call	_um_5	;wreg free
  2986  0007A0  D002               	goto	i2l3587
  2987  0007A2                     i2l3585:
  2988  0007A2  EC22  F00F         	call	_zero_5	;wreg free
  2989  0007A6                     i2l3587:
  2990                           
  2991                           ;app.c: 338: if( (G5[idx] & 2) > 0) um_5();else zero_5();
  2992  0007A6  5001               	movf	SendBuffCh5@idx,w,c
  2993  0007A8  0D01               	mullw	1
  2994  0007AA  0E40               	movlw	low _G5
  2995  0007AC  24F3               	addwf	prodl,w,c
  2996  0007AE  6ED9               	movwf	fsr2l,c
  2997  0007B0  0E04               	movlw	high _G5
  2998  0007B2  20F4               	addwfc	prodh,w,c
  2999  0007B4  6EDA               	movwf	fsr2h,c
  3000  0007B6  0104               	movlb	4	; () banked
  3001  0007B8  A2DF               	btfss	indf2,1,c
  3002  0007BA  D003               	goto	i2l3591
  3003                           
  3004                           ; BSR set to: 4
  3005  0007BC  ECA7  F00E         	call	_um_5	;wreg free
  3006  0007C0  D002               	goto	i2l3593
  3007  0007C2                     i2l3591:
  3008  0007C2  EC22  F00F         	call	_zero_5	;wreg free
  3009  0007C6                     i2l3593:
  3010                           
  3011                           ;app.c: 339: if( (G5[idx] & 1) > 0) um_5();else zero_5();
  3012  0007C6  5001               	movf	SendBuffCh5@idx,w,c
  3013  0007C8  0D01               	mullw	1
  3014  0007CA  0E40               	movlw	low _G5
  3015  0007CC  24F3               	addwf	prodl,w,c
  3016  0007CE  6ED9               	movwf	fsr2l,c
  3017  0007D0  0E04               	movlw	high _G5
  3018  0007D2  20F4               	addwfc	prodh,w,c
  3019  0007D4  6EDA               	movwf	fsr2h,c
  3020  0007D6  0104               	movlb	4	; () banked
  3021  0007D8  A0DF               	btfss	indf2,0,c
  3022  0007DA  D003               	goto	i2l3597
  3023                           
  3024                           ; BSR set to: 4
  3025  0007DC  ECA7  F00E         	call	_um_5	;wreg free
  3026  0007E0  D002               	goto	i2l3599
  3027  0007E2                     i2l3597:
  3028  0007E2  EC22  F00F         	call	_zero_5	;wreg free
  3029  0007E6                     i2l3599:
  3030                           
  3031                           ;app.c: 341: if( (R5[idx] & 128) > 0) um_5();else zero_5();
  3032  0007E6  5001               	movf	SendBuffCh5@idx,w,c
  3033  0007E8  0D01               	mullw	1
  3034  0007EA  0E80               	movlw	low _R5
  3035  0007EC  24F3               	addwf	prodl,w,c
  3036  0007EE  6ED9               	movwf	fsr2l,c
  3037  0007F0  0E04               	movlw	high _R5
  3038  0007F2  20F4               	addwfc	prodh,w,c
  3039  0007F4  6EDA               	movwf	fsr2h,c
  3040  0007F6  0104               	movlb	4	; () banked
  3041  0007F8  AEDF               	btfss	indf2,7,c
  3042  0007FA  D003               	goto	i2l3603
  3043                           
  3044                           ; BSR set to: 4
  3045  0007FC  ECA7  F00E         	call	_um_5	;wreg free
  3046  000800  D002               	goto	i2l3605
  3047  000802                     i2l3603:
  3048  000802  EC22  F00F         	call	_zero_5	;wreg free
  3049  000806                     i2l3605:
  3050                           
  3051                           ;app.c: 342: if( (R5[idx] & 64) > 0) um_5();else zero_5();
  3052  000806  5001               	movf	SendBuffCh5@idx,w,c
  3053  000808  0D01               	mullw	1
  3054  00080A  0E80               	movlw	low _R5
  3055  00080C  24F3               	addwf	prodl,w,c
  3056  00080E  6ED9               	movwf	fsr2l,c
  3057  000810  0E04               	movlw	high _R5
  3058  000812  20F4               	addwfc	prodh,w,c
  3059  000814  6EDA               	movwf	fsr2h,c
  3060  000816  0104               	movlb	4	; () banked
  3061  000818  ACDF               	btfss	indf2,6,c
  3062  00081A  D003               	goto	i2l3609
  3063                           
  3064                           ; BSR set to: 4
  3065  00081C  ECA7  F00E         	call	_um_5	;wreg free
  3066  000820  D002               	goto	i2l3611
  3067  000822                     i2l3609:
  3068  000822  EC22  F00F         	call	_zero_5	;wreg free
  3069  000826                     i2l3611:
  3070                           
  3071                           ;app.c: 343: if( (R5[idx] & 32) > 0) um_5();else zero_5();
  3072  000826  5001               	movf	SendBuffCh5@idx,w,c
  3073  000828  0D01               	mullw	1
  3074  00082A  0E80               	movlw	low _R5
  3075  00082C  24F3               	addwf	prodl,w,c
  3076  00082E  6ED9               	movwf	fsr2l,c
  3077  000830  0E04               	movlw	high _R5
  3078  000832  20F4               	addwfc	prodh,w,c
  3079  000834  6EDA               	movwf	fsr2h,c
  3080  000836  0104               	movlb	4	; () banked
  3081  000838  AADF               	btfss	indf2,5,c
  3082  00083A  D003               	goto	i2l3615
  3083                           
  3084                           ; BSR set to: 4
  3085  00083C  ECA7  F00E         	call	_um_5	;wreg free
  3086  000840  D002               	goto	i2l3617
  3087  000842                     i2l3615:
  3088  000842  EC22  F00F         	call	_zero_5	;wreg free
  3089  000846                     i2l3617:
  3090                           
  3091                           ;app.c: 344: if( (R5[idx] & 16) > 0) um_5();else zero_5();
  3092  000846  5001               	movf	SendBuffCh5@idx,w,c
  3093  000848  0D01               	mullw	1
  3094  00084A  0E80               	movlw	low _R5
  3095  00084C  24F3               	addwf	prodl,w,c
  3096  00084E  6ED9               	movwf	fsr2l,c
  3097  000850  0E04               	movlw	high _R5
  3098  000852  20F4               	addwfc	prodh,w,c
  3099  000854  6EDA               	movwf	fsr2h,c
  3100  000856  0104               	movlb	4	; () banked
  3101  000858  A8DF               	btfss	indf2,4,c
  3102  00085A  D003               	goto	i2l3621
  3103                           
  3104                           ; BSR set to: 4
  3105  00085C  ECA7  F00E         	call	_um_5	;wreg free
  3106  000860  D002               	goto	i2l3623
  3107  000862                     i2l3621:
  3108  000862  EC22  F00F         	call	_zero_5	;wreg free
  3109  000866                     i2l3623:
  3110                           
  3111                           ;app.c: 345: if( (R5[idx] & 8) > 0) um_5();else zero_5();
  3112  000866  5001               	movf	SendBuffCh5@idx,w,c
  3113  000868  0D01               	mullw	1
  3114  00086A  0E80               	movlw	low _R5
  3115  00086C  24F3               	addwf	prodl,w,c
  3116  00086E  6ED9               	movwf	fsr2l,c
  3117  000870  0E04               	movlw	high _R5
  3118  000872  20F4               	addwfc	prodh,w,c
  3119  000874  6EDA               	movwf	fsr2h,c
  3120  000876  0104               	movlb	4	; () banked
  3121  000878  A6DF               	btfss	indf2,3,c
  3122  00087A  D003               	goto	i2l3627
  3123                           
  3124                           ; BSR set to: 4
  3125  00087C  ECA7  F00E         	call	_um_5	;wreg free
  3126  000880  D002               	goto	i2l3629
  3127  000882                     i2l3627:
  3128  000882  EC22  F00F         	call	_zero_5	;wreg free
  3129  000886                     i2l3629:
  3130                           
  3131                           ;app.c: 346: if( (R5[idx] & 4) > 0) um_5();else zero_5();
  3132  000886  5001               	movf	SendBuffCh5@idx,w,c
  3133  000888  0D01               	mullw	1
  3134  00088A  0E80               	movlw	low _R5
  3135  00088C  24F3               	addwf	prodl,w,c
  3136  00088E  6ED9               	movwf	fsr2l,c
  3137  000890  0E04               	movlw	high _R5
  3138  000892  20F4               	addwfc	prodh,w,c
  3139  000894  6EDA               	movwf	fsr2h,c
  3140  000896  0104               	movlb	4	; () banked
  3141  000898  A4DF               	btfss	indf2,2,c
  3142  00089A  D003               	goto	i2l3633
  3143                           
  3144                           ; BSR set to: 4
  3145  00089C  ECA7  F00E         	call	_um_5	;wreg free
  3146  0008A0  D002               	goto	i2l3635
  3147  0008A2                     i2l3633:
  3148  0008A2  EC22  F00F         	call	_zero_5	;wreg free
  3149  0008A6                     i2l3635:
  3150                           
  3151                           ;app.c: 347: if( (R5[idx] & 2) > 0) um_5();else zero_5();
  3152  0008A6  5001               	movf	SendBuffCh5@idx,w,c
  3153  0008A8  0D01               	mullw	1
  3154  0008AA  0E80               	movlw	low _R5
  3155  0008AC  24F3               	addwf	prodl,w,c
  3156  0008AE  6ED9               	movwf	fsr2l,c
  3157  0008B0  0E04               	movlw	high _R5
  3158  0008B2  20F4               	addwfc	prodh,w,c
  3159  0008B4  6EDA               	movwf	fsr2h,c
  3160  0008B6  0104               	movlb	4	; () banked
  3161  0008B8  A2DF               	btfss	indf2,1,c
  3162  0008BA  D003               	goto	i2l3639
  3163                           
  3164                           ; BSR set to: 4
  3165  0008BC  ECA7  F00E         	call	_um_5	;wreg free
  3166  0008C0  D002               	goto	i2l3641
  3167  0008C2                     i2l3639:
  3168  0008C2  EC22  F00F         	call	_zero_5	;wreg free
  3169  0008C6                     i2l3641:
  3170                           
  3171                           ;app.c: 348: if( (R5[idx] & 1) > 0) um_5();else zero_5();
  3172  0008C6  5001               	movf	SendBuffCh5@idx,w,c
  3173  0008C8  0D01               	mullw	1
  3174  0008CA  0E80               	movlw	low _R5
  3175  0008CC  24F3               	addwf	prodl,w,c
  3176  0008CE  6ED9               	movwf	fsr2l,c
  3177  0008D0  0E04               	movlw	high _R5
  3178  0008D2  20F4               	addwfc	prodh,w,c
  3179  0008D4  6EDA               	movwf	fsr2h,c
  3180  0008D6  0104               	movlb	4	; () banked
  3181  0008D8  A0DF               	btfss	indf2,0,c
  3182  0008DA  D003               	goto	i2l3645
  3183                           
  3184                           ; BSR set to: 4
  3185  0008DC  ECA7  F00E         	call	_um_5	;wreg free
  3186  0008E0  D002               	goto	i2l3647
  3187  0008E2                     i2l3645:
  3188  0008E2  EC22  F00F         	call	_zero_5	;wreg free
  3189  0008E6                     i2l3647:
  3190                           
  3191                           ;app.c: 350: if( (B5[idx] & 128) > 0) um_5();else zero_5();
  3192  0008E6  5001               	movf	SendBuffCh5@idx,w,c
  3193  0008E8  0D01               	mullw	1
  3194  0008EA  0E00               	movlw	low _B5
  3195  0008EC  24F3               	addwf	prodl,w,c
  3196  0008EE  6ED9               	movwf	fsr2l,c
  3197  0008F0  0E04               	movlw	high _B5
  3198  0008F2  20F4               	addwfc	prodh,w,c
  3199  0008F4  6EDA               	movwf	fsr2h,c
  3200  0008F6  0104               	movlb	4	; () banked
  3201  0008F8  AEDF               	btfss	indf2,7,c
  3202  0008FA  D003               	goto	i2l3651
  3203                           
  3204                           ; BSR set to: 4
  3205  0008FC  ECA7  F00E         	call	_um_5	;wreg free
  3206  000900  D002               	goto	i2l3653
  3207  000902                     i2l3651:
  3208  000902  EC22  F00F         	call	_zero_5	;wreg free
  3209  000906                     i2l3653:
  3210                           
  3211                           ;app.c: 351: if( (B5[idx] & 64) > 0) um_5();else zero_5();
  3212  000906  5001               	movf	SendBuffCh5@idx,w,c
  3213  000908  0D01               	mullw	1
  3214  00090A  0E00               	movlw	low _B5
  3215  00090C  24F3               	addwf	prodl,w,c
  3216  00090E  6ED9               	movwf	fsr2l,c
  3217  000910  0E04               	movlw	high _B5
  3218  000912  20F4               	addwfc	prodh,w,c
  3219  000914  6EDA               	movwf	fsr2h,c
  3220  000916  0104               	movlb	4	; () banked
  3221  000918  ACDF               	btfss	indf2,6,c
  3222  00091A  D003               	goto	i2l3657
  3223                           
  3224                           ; BSR set to: 4
  3225  00091C  ECA7  F00E         	call	_um_5	;wreg free
  3226  000920  D002               	goto	i2l3659
  3227  000922                     i2l3657:
  3228  000922  EC22  F00F         	call	_zero_5	;wreg free
  3229  000926                     i2l3659:
  3230                           
  3231                           ;app.c: 352: if( (B5[idx] & 32) > 0) um_5();else zero_5();
  3232  000926  5001               	movf	SendBuffCh5@idx,w,c
  3233  000928  0D01               	mullw	1
  3234  00092A  0E00               	movlw	low _B5
  3235  00092C  24F3               	addwf	prodl,w,c
  3236  00092E  6ED9               	movwf	fsr2l,c
  3237  000930  0E04               	movlw	high _B5
  3238  000932  20F4               	addwfc	prodh,w,c
  3239  000934  6EDA               	movwf	fsr2h,c
  3240  000936  0104               	movlb	4	; () banked
  3241  000938  AADF               	btfss	indf2,5,c
  3242  00093A  D003               	goto	i2l3663
  3243                           
  3244                           ; BSR set to: 4
  3245  00093C  ECA7  F00E         	call	_um_5	;wreg free
  3246  000940  D002               	goto	i2l3665
  3247  000942                     i2l3663:
  3248  000942  EC22  F00F         	call	_zero_5	;wreg free
  3249  000946                     i2l3665:
  3250                           
  3251                           ;app.c: 353: if( (B5[idx] & 16) > 0) um_5();else zero_5();
  3252  000946  5001               	movf	SendBuffCh5@idx,w,c
  3253  000948  0D01               	mullw	1
  3254  00094A  0E00               	movlw	low _B5
  3255  00094C  24F3               	addwf	prodl,w,c
  3256  00094E  6ED9               	movwf	fsr2l,c
  3257  000950  0E04               	movlw	high _B5
  3258  000952  20F4               	addwfc	prodh,w,c
  3259  000954  6EDA               	movwf	fsr2h,c
  3260  000956  0104               	movlb	4	; () banked
  3261  000958  A8DF               	btfss	indf2,4,c
  3262  00095A  D003               	goto	i2l3669
  3263                           
  3264                           ; BSR set to: 4
  3265  00095C  ECA7  F00E         	call	_um_5	;wreg free
  3266  000960  D002               	goto	i2l3671
  3267  000962                     i2l3669:
  3268  000962  EC22  F00F         	call	_zero_5	;wreg free
  3269  000966                     i2l3671:
  3270                           
  3271                           ;app.c: 354: if( (B5[idx] & 8) > 0) um_5();else zero_5();
  3272  000966  5001               	movf	SendBuffCh5@idx,w,c
  3273  000968  0D01               	mullw	1
  3274  00096A  0E00               	movlw	low _B5
  3275  00096C  24F3               	addwf	prodl,w,c
  3276  00096E  6ED9               	movwf	fsr2l,c
  3277  000970  0E04               	movlw	high _B5
  3278  000972  20F4               	addwfc	prodh,w,c
  3279  000974  6EDA               	movwf	fsr2h,c
  3280  000976  0104               	movlb	4	; () banked
  3281  000978  A6DF               	btfss	indf2,3,c
  3282  00097A  D003               	goto	i2l3675
  3283                           
  3284                           ; BSR set to: 4
  3285  00097C  ECA7  F00E         	call	_um_5	;wreg free
  3286  000980  D002               	goto	i2l3677
  3287  000982                     i2l3675:
  3288  000982  EC22  F00F         	call	_zero_5	;wreg free
  3289  000986                     i2l3677:
  3290                           
  3291                           ;app.c: 355: if( (B5[idx] & 4) > 0) um_5();else zero_5();
  3292  000986  5001               	movf	SendBuffCh5@idx,w,c
  3293  000988  0D01               	mullw	1
  3294  00098A  0E00               	movlw	low _B5
  3295  00098C  24F3               	addwf	prodl,w,c
  3296  00098E  6ED9               	movwf	fsr2l,c
  3297  000990  0E04               	movlw	high _B5
  3298  000992  20F4               	addwfc	prodh,w,c
  3299  000994  6EDA               	movwf	fsr2h,c
  3300  000996  0104               	movlb	4	; () banked
  3301  000998  A4DF               	btfss	indf2,2,c
  3302  00099A  D003               	goto	i2l3681
  3303                           
  3304                           ; BSR set to: 4
  3305  00099C  ECA7  F00E         	call	_um_5	;wreg free
  3306  0009A0  D002               	goto	i2l3683
  3307  0009A2                     i2l3681:
  3308  0009A2  EC22  F00F         	call	_zero_5	;wreg free
  3309  0009A6                     i2l3683:
  3310                           
  3311                           ;app.c: 356: if( (B5[idx] & 2) > 0) um_5();else zero_5();
  3312  0009A6  5001               	movf	SendBuffCh5@idx,w,c
  3313  0009A8  0D01               	mullw	1
  3314  0009AA  0E00               	movlw	low _B5
  3315  0009AC  24F3               	addwf	prodl,w,c
  3316  0009AE  6ED9               	movwf	fsr2l,c
  3317  0009B0  0E04               	movlw	high _B5
  3318  0009B2  20F4               	addwfc	prodh,w,c
  3319  0009B4  6EDA               	movwf	fsr2h,c
  3320  0009B6  0104               	movlb	4	; () banked
  3321  0009B8  A2DF               	btfss	indf2,1,c
  3322  0009BA  D003               	goto	i2l3687
  3323                           
  3324                           ; BSR set to: 4
  3325  0009BC  ECA7  F00E         	call	_um_5	;wreg free
  3326  0009C0  D002               	goto	i2l3689
  3327  0009C2                     i2l3687:
  3328  0009C2  EC22  F00F         	call	_zero_5	;wreg free
  3329  0009C6                     i2l3689:
  3330                           
  3331                           ;app.c: 357: if( (B5[idx] & 1) > 0) um_5();else zero_5();
  3332  0009C6  5001               	movf	SendBuffCh5@idx,w,c
  3333  0009C8  0D01               	mullw	1
  3334  0009CA  0E00               	movlw	low _B5
  3335  0009CC  24F3               	addwf	prodl,w,c
  3336  0009CE  6ED9               	movwf	fsr2l,c
  3337  0009D0  0E04               	movlw	high _B5
  3338  0009D2  20F4               	addwfc	prodh,w,c
  3339  0009D4  6EDA               	movwf	fsr2h,c
  3340  0009D6  0104               	movlb	4	; () banked
  3341  0009D8  A0DF               	btfss	indf2,0,c
  3342  0009DA  D003               	goto	i2l3693
  3343                           
  3344                           ; BSR set to: 4
  3345  0009DC  ECA7  F00E         	call	_um_5	;wreg free
  3346  0009E0  0012               	return	
  3347  0009E2                     i2l3693:
  3348  0009E2  EC22  F00F         	call	_zero_5	;wreg free
  3349  0009E6  0012               	return	
  3350  0009E8                     __end_of_SendBuffCh5:
  3351                           	opt stack 0
  3352                           pclatu	equ	0xFFB
  3353                           pclath	equ	0xFFA
  3354                           tblptru	equ	0xFF8
  3355                           tblptrh	equ	0xFF7
  3356                           tblptrl	equ	0xFF6
  3357                           tablat	equ	0xFF5
  3358                           prodh	equ	0xFF4
  3359                           prodl	equ	0xFF3
  3360                           intcon	equ	0xFF2
  3361                           intcon2	equ	0xFF1
  3362                           postinc0	equ	0xFEE
  3363                           fsr0h	equ	0xFEA
  3364                           fsr0l	equ	0xFE9
  3365                           wreg	equ	0xFE8
  3366                           postdec1	equ	0xFE5
  3367                           fsr1h	equ	0xFE2
  3368                           fsr1l	equ	0xFE1
  3369                           indf2	equ	0xFDF
  3370                           fsr2h	equ	0xFDA
  3371                           fsr2l	equ	0xFD9
  3372                           status	equ	0xFD8
  3373                           
  3374 ;; *************** function _zero_5 *****************
  3375 ;; Defined at:
  3376 ;;		line 170 in file "mcc_generated_files/app.c"
  3377 ;; Parameters:    Size  Location     Type
  3378 ;;		None
  3379 ;; Auto vars:     Size  Location     Type
  3380 ;;		None
  3381 ;; Return value:  Size  Location     Type
  3382 ;;                  1    wreg      void 
  3383 ;; Registers used:
  3384 ;;		None
  3385 ;; Tracked objects:
  3386 ;;		On entry : 0/0
  3387 ;;		On exit  : 0/0
  3388 ;;		Unchanged: 0/0
  3389 ;; Data sizes:     COMRAM   BANK0   BANK1   BANK2   BANK3   BANK4   BANK5
  3390 ;;      Params:         0       0       0       0       0       0       0
  3391 ;;      Locals:         0       0       0       0       0       0       0
  3392 ;;      Temps:          0       0       0       0       0       0       0
  3393 ;;      Totals:         0       0       0       0       0       0       0
  3394 ;;Total ram usage:        0 bytes
  3395 ;; Hardware stack levels used:    1
  3396 ;; This function calls:
  3397 ;;		Nothing
  3398 ;; This function is called by:
  3399 ;;		_SendBuffCh5
  3400 ;; This function uses a non-reentrant model
  3401 ;;
  3402                           
  3403                           	psect	text20
  3404  001E44                     __ptext20:
  3405                           	opt stack 0
  3406  001E44                     _zero_5:
  3407                           	opt stack 21
  3408                           
  3409                           ;incstack = 0
  3410  001E44  8A8A               	bsf	3978,5,c	;volatile
  3411  001E46  F000               	nop	
  3412  001E48  F000               	nop	
  3413  001E4A  F000               	nop	
  3414  001E4C  F000               	nop	
  3415  001E4E  F000               	nop	
  3416  001E50  F000               	nop	
  3417                           
  3418                           ;app.c: 171: LATB5 = 0; __nop();__nop();__nop();__nop();__nop();__nop(); }
  3419  001E52  9A8A               	bcf	3978,5,c	;volatile
  3420  001E54  F000               	nop	
  3421  001E56  F000               	nop	
  3422  001E58  F000               	nop	
  3423  001E5A  F000               	nop	
  3424  001E5C  F000               	nop	
  3425  001E5E  F000               	nop	
  3426  001E60  0012               	return		;funcret
  3427  001E62                     __end_of_zero_5:
  3428                           	opt stack 0
  3429                           pclatu	equ	0xFFB
  3430                           pclath	equ	0xFFA
  3431                           tblptru	equ	0xFF8
  3432                           tblptrh	equ	0xFF7
  3433                           tblptrl	equ	0xFF6
  3434                           tablat	equ	0xFF5
  3435                           prodh	equ	0xFF4
  3436                           prodl	equ	0xFF3
  3437                           intcon	equ	0xFF2
  3438                           intcon2	equ	0xFF1
  3439                           postinc0	equ	0xFEE
  3440                           fsr0h	equ	0xFEA
  3441                           fsr0l	equ	0xFE9
  3442                           wreg	equ	0xFE8
  3443                           postdec1	equ	0xFE5
  3444                           fsr1h	equ	0xFE2
  3445                           fsr1l	equ	0xFE1
  3446                           indf2	equ	0xFDF
  3447                           fsr2h	equ	0xFDA
  3448                           fsr2l	equ	0xFD9
  3449                           status	equ	0xFD8
  3450                           
  3451 ;; *************** function _um_5 *****************
  3452 ;; Defined at:
  3453 ;;		line 166 in file "mcc_generated_files/app.c"
  3454 ;; Parameters:    Size  Location     Type
  3455 ;;		None
  3456 ;; Auto vars:     Size  Location     Type
  3457 ;;		None
  3458 ;; Return value:  Size  Location     Type
  3459 ;;                  1    wreg      void 
  3460 ;; Registers used:
  3461 ;;		None
  3462 ;; Tracked objects:
  3463 ;;		On entry : 0/0
  3464 ;;		On exit  : 0/0
  3465 ;;		Unchanged: 0/0
  3466 ;; Data sizes:     COMRAM   BANK0   BANK1   BANK2   BANK3   BANK4   BANK5
  3467 ;;      Params:         0       0       0       0       0       0       0
  3468 ;;      Locals:         0       0       0       0       0       0       0
  3469 ;;      Temps:          0       0       0       0       0       0       0
  3470 ;;      Totals:         0       0       0       0       0       0       0
  3471 ;;Total ram usage:        0 bytes
  3472 ;; Hardware stack levels used:    1
  3473 ;; This function calls:
  3474 ;;		Nothing
  3475 ;; This function is called by:
  3476 ;;		_SendBuffCh5
  3477 ;; This function uses a non-reentrant model
  3478 ;;
  3479                           
  3480                           	psect	text21
  3481  001D4E                     __ptext21:
  3482                           	opt stack 0
  3483  001D4E                     _um_5:
  3484                           	opt stack 21
  3485                           
  3486                           ;incstack = 0
  3487  001D4E  8A8A               	bsf	3978,5,c	;volatile
  3488  001D50  F000               	nop	
  3489  001D52  F000               	nop	
  3490  001D54  F000               	nop	
  3491  001D56  F000               	nop	
  3492  001D58  F000               	nop	
  3493  001D5A  F000               	nop	
  3494                           
  3495                           ;app.c: 167: __nop();__nop();__nop();__nop();__nop();__nop();
  3496  001D5C  F000               	nop	
  3497  001D5E  F000               	nop	
  3498  001D60  F000               	nop	
  3499  001D62  F000               	nop	
  3500  001D64  F000               	nop	
  3501  001D66  F000               	nop	
  3502                           
  3503                           ;app.c: 168: __nop();__nop();__nop(); LATB5 = 0;
  3504  001D68  F000               	nop	
  3505  001D6A  F000               	nop	
  3506  001D6C  F000               	nop	
  3507  001D6E  9A8A               	bcf	3978,5,c	;volatile
  3508  001D70  0012               	return		;funcret
  3509  001D72                     __end_of_um_5:
  3510                           	opt stack 0
  3511                           pclatu	equ	0xFFB
  3512                           pclath	equ	0xFFA
  3513                           tblptru	equ	0xFF8
  3514                           tblptrh	equ	0xFF7
  3515                           tblptrl	equ	0xFF6
  3516                           tablat	equ	0xFF5
  3517                           prodh	equ	0xFF4
  3518                           prodl	equ	0xFF3
  3519                           intcon	equ	0xFF2
  3520                           intcon2	equ	0xFF1
  3521                           postinc0	equ	0xFEE
  3522                           fsr0h	equ	0xFEA
  3523                           fsr0l	equ	0xFE9
  3524                           wreg	equ	0xFE8
  3525                           postdec1	equ	0xFE5
  3526                           fsr1h	equ	0xFE2
  3527                           fsr1l	equ	0xFE1
  3528                           indf2	equ	0xFDF
  3529                           fsr2h	equ	0xFDA
  3530                           fsr2l	equ	0xFD9
  3531                           status	equ	0xFD8
  3532                           
  3533 ;; *************** function _SendBuffCh4 *****************
  3534 ;; Defined at:
  3535 ;;		line 301 in file "mcc_generated_files/app.c"
  3536 ;; Parameters:    Size  Location     Type
  3537 ;;  idx             1    wreg     unsigned char 
  3538 ;; Auto vars:     Size  Location     Type
  3539 ;;  idx             1    0[COMRAM] unsigned char 
  3540 ;; Return value:  Size  Location     Type
  3541 ;;                  1    wreg      void 
  3542 ;; Registers used:
  3543 ;;		wreg, fsr2l, fsr2h, status,2, status,0, prodl, prodh, cstack
  3544 ;; Tracked objects:
  3545 ;;		On entry : 0/0
  3546 ;;		On exit  : 0/0
  3547 ;;		Unchanged: 0/0
  3548 ;; Data sizes:     COMRAM   BANK0   BANK1   BANK2   BANK3   BANK4   BANK5
  3549 ;;      Params:         0       0       0       0       0       0       0
  3550 ;;      Locals:         1       0       0       0       0       0       0
  3551 ;;      Temps:          0       0       0       0       0       0       0
  3552 ;;      Totals:         1       0       0       0       0       0       0
  3553 ;;Total ram usage:        1 bytes
  3554 ;; Hardware stack levels used:    1
  3555 ;; Hardware stack levels required when called:    1
  3556 ;; This function calls:
  3557 ;;		_um_4
  3558 ;;		_zero_4
  3559 ;; This function is called by:
  3560 ;;		_AppTimer1ms
  3561 ;; This function uses a non-reentrant model
  3562 ;;
  3563                           
  3564                           	psect	text22
  3565  0009E8                     __ptext22:
  3566                           	opt stack 0
  3567  0009E8                     _SendBuffCh4:
  3568                           	opt stack 21
  3569                           
  3570                           ;incstack = 0
  3571                           ;SendBuffCh4@idx stored from wreg
  3572  0009E8  6E01               	movwf	SendBuffCh4@idx,c
  3573                           
  3574                           ;app.c: 303: if( (G4[idx] & 128) > 0) um_4();else zero_4();
  3575  0009EA  5001               	movf	SendBuffCh4@idx,w,c
  3576  0009EC  0D01               	mullw	1
  3577  0009EE  0E00               	movlw	low _G4
  3578  0009F0  24F3               	addwf	prodl,w,c
  3579  0009F2  6ED9               	movwf	fsr2l,c
  3580  0009F4  0E03               	movlw	high _G4
  3581  0009F6  20F4               	addwfc	prodh,w,c
  3582  0009F8  6EDA               	movwf	fsr2h,c
  3583  0009FA  0103               	movlb	3	; () banked
  3584  0009FC  AEDF               	btfss	indf2,7,c
  3585  0009FE  D003               	goto	i2l3411
  3586                           
  3587                           ; BSR set to: 3
  3588  000A00  ECB9  F00E         	call	_um_4	;wreg free
  3589  000A04  D002               	goto	i2l3413
  3590  000A06                     i2l3411:
  3591  000A06  EC31  F00F         	call	_zero_4	;wreg free
  3592  000A0A                     i2l3413:
  3593                           
  3594                           ;app.c: 304: if( (G4[idx] & 64) > 0) um_4();else zero_4();
  3595  000A0A  5001               	movf	SendBuffCh4@idx,w,c
  3596  000A0C  0D01               	mullw	1
  3597  000A0E  0E00               	movlw	low _G4
  3598  000A10  24F3               	addwf	prodl,w,c
  3599  000A12  6ED9               	movwf	fsr2l,c
  3600  000A14  0E03               	movlw	high _G4
  3601  000A16  20F4               	addwfc	prodh,w,c
  3602  000A18  6EDA               	movwf	fsr2h,c
  3603  000A1A  0103               	movlb	3	; () banked
  3604  000A1C  ACDF               	btfss	indf2,6,c
  3605  000A1E  D003               	goto	i2l3417
  3606                           
  3607                           ; BSR set to: 3
  3608  000A20  ECB9  F00E         	call	_um_4	;wreg free
  3609  000A24  D002               	goto	i2l3419
  3610  000A26                     i2l3417:
  3611  000A26  EC31  F00F         	call	_zero_4	;wreg free
  3612  000A2A                     i2l3419:
  3613                           
  3614                           ;app.c: 305: if( (G4[idx] & 32) > 0) um_4();else zero_4();
  3615  000A2A  5001               	movf	SendBuffCh4@idx,w,c
  3616  000A2C  0D01               	mullw	1
  3617  000A2E  0E00               	movlw	low _G4
  3618  000A30  24F3               	addwf	prodl,w,c
  3619  000A32  6ED9               	movwf	fsr2l,c
  3620  000A34  0E03               	movlw	high _G4
  3621  000A36  20F4               	addwfc	prodh,w,c
  3622  000A38  6EDA               	movwf	fsr2h,c
  3623  000A3A  0103               	movlb	3	; () banked
  3624  000A3C  AADF               	btfss	indf2,5,c
  3625  000A3E  D003               	goto	i2l3423
  3626                           
  3627                           ; BSR set to: 3
  3628  000A40  ECB9  F00E         	call	_um_4	;wreg free
  3629  000A44  D002               	goto	i2l3425
  3630  000A46                     i2l3423:
  3631  000A46  EC31  F00F         	call	_zero_4	;wreg free
  3632  000A4A                     i2l3425:
  3633                           
  3634                           ;app.c: 306: if( (G4[idx] & 16) > 0) um_4();else zero_4();
  3635  000A4A  5001               	movf	SendBuffCh4@idx,w,c
  3636  000A4C  0D01               	mullw	1
  3637  000A4E  0E00               	movlw	low _G4
  3638  000A50  24F3               	addwf	prodl,w,c
  3639  000A52  6ED9               	movwf	fsr2l,c
  3640  000A54  0E03               	movlw	high _G4
  3641  000A56  20F4               	addwfc	prodh,w,c
  3642  000A58  6EDA               	movwf	fsr2h,c
  3643  000A5A  0103               	movlb	3	; () banked
  3644  000A5C  A8DF               	btfss	indf2,4,c
  3645  000A5E  D003               	goto	i2l3429
  3646                           
  3647                           ; BSR set to: 3
  3648  000A60  ECB9  F00E         	call	_um_4	;wreg free
  3649  000A64  D002               	goto	i2l3431
  3650  000A66                     i2l3429:
  3651  000A66  EC31  F00F         	call	_zero_4	;wreg free
  3652  000A6A                     i2l3431:
  3653                           
  3654                           ;app.c: 307: if( (G4[idx] & 8) > 0) um_4();else zero_4();
  3655  000A6A  5001               	movf	SendBuffCh4@idx,w,c
  3656  000A6C  0D01               	mullw	1
  3657  000A6E  0E00               	movlw	low _G4
  3658  000A70  24F3               	addwf	prodl,w,c
  3659  000A72  6ED9               	movwf	fsr2l,c
  3660  000A74  0E03               	movlw	high _G4
  3661  000A76  20F4               	addwfc	prodh,w,c
  3662  000A78  6EDA               	movwf	fsr2h,c
  3663  000A7A  0103               	movlb	3	; () banked
  3664  000A7C  A6DF               	btfss	indf2,3,c
  3665  000A7E  D003               	goto	i2l3435
  3666                           
  3667                           ; BSR set to: 3
  3668  000A80  ECB9  F00E         	call	_um_4	;wreg free
  3669  000A84  D002               	goto	i2l3437
  3670  000A86                     i2l3435:
  3671  000A86  EC31  F00F         	call	_zero_4	;wreg free
  3672  000A8A                     i2l3437:
  3673                           
  3674                           ;app.c: 308: if( (G4[idx] & 4) > 0) um_4();else zero_4();
  3675  000A8A  5001               	movf	SendBuffCh4@idx,w,c
  3676  000A8C  0D01               	mullw	1
  3677  000A8E  0E00               	movlw	low _G4
  3678  000A90  24F3               	addwf	prodl,w,c
  3679  000A92  6ED9               	movwf	fsr2l,c
  3680  000A94  0E03               	movlw	high _G4
  3681  000A96  20F4               	addwfc	prodh,w,c
  3682  000A98  6EDA               	movwf	fsr2h,c
  3683  000A9A  0103               	movlb	3	; () banked
  3684  000A9C  A4DF               	btfss	indf2,2,c
  3685  000A9E  D003               	goto	i2l3441
  3686                           
  3687                           ; BSR set to: 3
  3688  000AA0  ECB9  F00E         	call	_um_4	;wreg free
  3689  000AA4  D002               	goto	i2l3443
  3690  000AA6                     i2l3441:
  3691  000AA6  EC31  F00F         	call	_zero_4	;wreg free
  3692  000AAA                     i2l3443:
  3693                           
  3694                           ;app.c: 309: if( (G4[idx] & 2) > 0) um_4();else zero_4();
  3695  000AAA  5001               	movf	SendBuffCh4@idx,w,c
  3696  000AAC  0D01               	mullw	1
  3697  000AAE  0E00               	movlw	low _G4
  3698  000AB0  24F3               	addwf	prodl,w,c
  3699  000AB2  6ED9               	movwf	fsr2l,c
  3700  000AB4  0E03               	movlw	high _G4
  3701  000AB6  20F4               	addwfc	prodh,w,c
  3702  000AB8  6EDA               	movwf	fsr2h,c
  3703  000ABA  0103               	movlb	3	; () banked
  3704  000ABC  A2DF               	btfss	indf2,1,c
  3705  000ABE  D003               	goto	i2l3447
  3706                           
  3707                           ; BSR set to: 3
  3708  000AC0  ECB9  F00E         	call	_um_4	;wreg free
  3709  000AC4  D002               	goto	i2l3449
  3710  000AC6                     i2l3447:
  3711  000AC6  EC31  F00F         	call	_zero_4	;wreg free
  3712  000ACA                     i2l3449:
  3713                           
  3714                           ;app.c: 310: if( (G4[idx] & 1) > 0) um_4();else zero_4();
  3715  000ACA  5001               	movf	SendBuffCh4@idx,w,c
  3716  000ACC  0D01               	mullw	1
  3717  000ACE  0E00               	movlw	low _G4
  3718  000AD0  24F3               	addwf	prodl,w,c
  3719  000AD2  6ED9               	movwf	fsr2l,c
  3720  000AD4  0E03               	movlw	high _G4
  3721  000AD6  20F4               	addwfc	prodh,w,c
  3722  000AD8  6EDA               	movwf	fsr2h,c
  3723  000ADA  0103               	movlb	3	; () banked
  3724  000ADC  A0DF               	btfss	indf2,0,c
  3725  000ADE  D003               	goto	i2l3453
  3726                           
  3727                           ; BSR set to: 3
  3728  000AE0  ECB9  F00E         	call	_um_4	;wreg free
  3729  000AE4  D002               	goto	i2l3455
  3730  000AE6                     i2l3453:
  3731  000AE6  EC31  F00F         	call	_zero_4	;wreg free
  3732  000AEA                     i2l3455:
  3733                           
  3734                           ;app.c: 312: if( (R4[idx] & 128) > 0) um_4();else zero_4();
  3735  000AEA  5001               	movf	SendBuffCh4@idx,w,c
  3736  000AEC  0D01               	mullw	1
  3737  000AEE  0E40               	movlw	low _R4
  3738  000AF0  24F3               	addwf	prodl,w,c
  3739  000AF2  6ED9               	movwf	fsr2l,c
  3740  000AF4  0E03               	movlw	high _R4
  3741  000AF6  20F4               	addwfc	prodh,w,c
  3742  000AF8  6EDA               	movwf	fsr2h,c
  3743  000AFA  0103               	movlb	3	; () banked
  3744  000AFC  AEDF               	btfss	indf2,7,c
  3745  000AFE  D003               	goto	i2l3459
  3746                           
  3747                           ; BSR set to: 3
  3748  000B00  ECB9  F00E         	call	_um_4	;wreg free
  3749  000B04  D002               	goto	i2l3461
  3750  000B06                     i2l3459:
  3751  000B06  EC31  F00F         	call	_zero_4	;wreg free
  3752  000B0A                     i2l3461:
  3753                           
  3754                           ;app.c: 313: if( (R4[idx] & 64) > 0) um_4();else zero_4();
  3755  000B0A  5001               	movf	SendBuffCh4@idx,w,c
  3756  000B0C  0D01               	mullw	1
  3757  000B0E  0E40               	movlw	low _R4
  3758  000B10  24F3               	addwf	prodl,w,c
  3759  000B12  6ED9               	movwf	fsr2l,c
  3760  000B14  0E03               	movlw	high _R4
  3761  000B16  20F4               	addwfc	prodh,w,c
  3762  000B18  6EDA               	movwf	fsr2h,c
  3763  000B1A  0103               	movlb	3	; () banked
  3764  000B1C  ACDF               	btfss	indf2,6,c
  3765  000B1E  D003               	goto	i2l3465
  3766                           
  3767                           ; BSR set to: 3
  3768  000B20  ECB9  F00E         	call	_um_4	;wreg free
  3769  000B24  D002               	goto	i2l3467
  3770  000B26                     i2l3465:
  3771  000B26  EC31  F00F         	call	_zero_4	;wreg free
  3772  000B2A                     i2l3467:
  3773                           
  3774                           ;app.c: 314: if( (R4[idx] & 32) > 0) um_4();else zero_4();
  3775  000B2A  5001               	movf	SendBuffCh4@idx,w,c
  3776  000B2C  0D01               	mullw	1
  3777  000B2E  0E40               	movlw	low _R4
  3778  000B30  24F3               	addwf	prodl,w,c
  3779  000B32  6ED9               	movwf	fsr2l,c
  3780  000B34  0E03               	movlw	high _R4
  3781  000B36  20F4               	addwfc	prodh,w,c
  3782  000B38  6EDA               	movwf	fsr2h,c
  3783  000B3A  0103               	movlb	3	; () banked
  3784  000B3C  AADF               	btfss	indf2,5,c
  3785  000B3E  D003               	goto	i2l3471
  3786                           
  3787                           ; BSR set to: 3
  3788  000B40  ECB9  F00E         	call	_um_4	;wreg free
  3789  000B44  D002               	goto	i2l3473
  3790  000B46                     i2l3471:
  3791  000B46  EC31  F00F         	call	_zero_4	;wreg free
  3792  000B4A                     i2l3473:
  3793                           
  3794                           ;app.c: 315: if( (R4[idx] & 16) > 0) um_4();else zero_4();
  3795  000B4A  5001               	movf	SendBuffCh4@idx,w,c
  3796  000B4C  0D01               	mullw	1
  3797  000B4E  0E40               	movlw	low _R4
  3798  000B50  24F3               	addwf	prodl,w,c
  3799  000B52  6ED9               	movwf	fsr2l,c
  3800  000B54  0E03               	movlw	high _R4
  3801  000B56  20F4               	addwfc	prodh,w,c
  3802  000B58  6EDA               	movwf	fsr2h,c
  3803  000B5A  0103               	movlb	3	; () banked
  3804  000B5C  A8DF               	btfss	indf2,4,c
  3805  000B5E  D003               	goto	i2l3477
  3806                           
  3807                           ; BSR set to: 3
  3808  000B60  ECB9  F00E         	call	_um_4	;wreg free
  3809  000B64  D002               	goto	i2l3479
  3810  000B66                     i2l3477:
  3811  000B66  EC31  F00F         	call	_zero_4	;wreg free
  3812  000B6A                     i2l3479:
  3813                           
  3814                           ;app.c: 316: if( (R4[idx] & 8) > 0) um_4();else zero_4();
  3815  000B6A  5001               	movf	SendBuffCh4@idx,w,c
  3816  000B6C  0D01               	mullw	1
  3817  000B6E  0E40               	movlw	low _R4
  3818  000B70  24F3               	addwf	prodl,w,c
  3819  000B72  6ED9               	movwf	fsr2l,c
  3820  000B74  0E03               	movlw	high _R4
  3821  000B76  20F4               	addwfc	prodh,w,c
  3822  000B78  6EDA               	movwf	fsr2h,c
  3823  000B7A  0103               	movlb	3	; () banked
  3824  000B7C  A6DF               	btfss	indf2,3,c
  3825  000B7E  D003               	goto	i2l3483
  3826                           
  3827                           ; BSR set to: 3
  3828  000B80  ECB9  F00E         	call	_um_4	;wreg free
  3829  000B84  D002               	goto	i2l3485
  3830  000B86                     i2l3483:
  3831  000B86  EC31  F00F         	call	_zero_4	;wreg free
  3832  000B8A                     i2l3485:
  3833                           
  3834                           ;app.c: 317: if( (R4[idx] & 4) > 0) um_4();else zero_4();
  3835  000B8A  5001               	movf	SendBuffCh4@idx,w,c
  3836  000B8C  0D01               	mullw	1
  3837  000B8E  0E40               	movlw	low _R4
  3838  000B90  24F3               	addwf	prodl,w,c
  3839  000B92  6ED9               	movwf	fsr2l,c
  3840  000B94  0E03               	movlw	high _R4
  3841  000B96  20F4               	addwfc	prodh,w,c
  3842  000B98  6EDA               	movwf	fsr2h,c
  3843  000B9A  0103               	movlb	3	; () banked
  3844  000B9C  A4DF               	btfss	indf2,2,c
  3845  000B9E  D003               	goto	i2l3489
  3846                           
  3847                           ; BSR set to: 3
  3848  000BA0  ECB9  F00E         	call	_um_4	;wreg free
  3849  000BA4  D002               	goto	i2l3491
  3850  000BA6                     i2l3489:
  3851  000BA6  EC31  F00F         	call	_zero_4	;wreg free
  3852  000BAA                     i2l3491:
  3853                           
  3854                           ;app.c: 318: if( (R4[idx] & 2) > 0) um_4();else zero_4();
  3855  000BAA  5001               	movf	SendBuffCh4@idx,w,c
  3856  000BAC  0D01               	mullw	1
  3857  000BAE  0E40               	movlw	low _R4
  3858  000BB0  24F3               	addwf	prodl,w,c
  3859  000BB2  6ED9               	movwf	fsr2l,c
  3860  000BB4  0E03               	movlw	high _R4
  3861  000BB6  20F4               	addwfc	prodh,w,c
  3862  000BB8  6EDA               	movwf	fsr2h,c
  3863  000BBA  0103               	movlb	3	; () banked
  3864  000BBC  A2DF               	btfss	indf2,1,c
  3865  000BBE  D003               	goto	i2l3495
  3866                           
  3867                           ; BSR set to: 3
  3868  000BC0  ECB9  F00E         	call	_um_4	;wreg free
  3869  000BC4  D002               	goto	i2l3497
  3870  000BC6                     i2l3495:
  3871  000BC6  EC31  F00F         	call	_zero_4	;wreg free
  3872  000BCA                     i2l3497:
  3873                           
  3874                           ;app.c: 319: if( (R4[idx] & 1) > 0) um_4();else zero_4();
  3875  000BCA  5001               	movf	SendBuffCh4@idx,w,c
  3876  000BCC  0D01               	mullw	1
  3877  000BCE  0E40               	movlw	low _R4
  3878  000BD0  24F3               	addwf	prodl,w,c
  3879  000BD2  6ED9               	movwf	fsr2l,c
  3880  000BD4  0E03               	movlw	high _R4
  3881  000BD6  20F4               	addwfc	prodh,w,c
  3882  000BD8  6EDA               	movwf	fsr2h,c
  3883  000BDA  0103               	movlb	3	; () banked
  3884  000BDC  A0DF               	btfss	indf2,0,c
  3885  000BDE  D003               	goto	i2l3501
  3886                           
  3887                           ; BSR set to: 3
  3888  000BE0  ECB9  F00E         	call	_um_4	;wreg free
  3889  000BE4  D002               	goto	i2l3503
  3890  000BE6                     i2l3501:
  3891  000BE6  EC31  F00F         	call	_zero_4	;wreg free
  3892  000BEA                     i2l3503:
  3893                           
  3894                           ;app.c: 321: if( (B4[idx] & 128) > 0) um_4();else zero_4();
  3895  000BEA  5001               	movf	SendBuffCh4@idx,w,c
  3896  000BEC  0D01               	mullw	1
  3897  000BEE  0EC0               	movlw	low _B4
  3898  000BF0  24F3               	addwf	prodl,w,c
  3899  000BF2  6ED9               	movwf	fsr2l,c
  3900  000BF4  0E04               	movlw	high _B4
  3901  000BF6  20F4               	addwfc	prodh,w,c
  3902  000BF8  6EDA               	movwf	fsr2h,c
  3903  000BFA  0104               	movlb	4	; () banked
  3904  000BFC  AEDF               	btfss	indf2,7,c
  3905  000BFE  D003               	goto	i2l3507
  3906                           
  3907                           ; BSR set to: 4
  3908  000C00  ECB9  F00E         	call	_um_4	;wreg free
  3909  000C04  D002               	goto	i2l3509
  3910  000C06                     i2l3507:
  3911  000C06  EC31  F00F         	call	_zero_4	;wreg free
  3912  000C0A                     i2l3509:
  3913                           
  3914                           ;app.c: 322: if( (B4[idx] & 64) > 0) um_4();else zero_4();
  3915  000C0A  5001               	movf	SendBuffCh4@idx,w,c
  3916  000C0C  0D01               	mullw	1
  3917  000C0E  0EC0               	movlw	low _B4
  3918  000C10  24F3               	addwf	prodl,w,c
  3919  000C12  6ED9               	movwf	fsr2l,c
  3920  000C14  0E04               	movlw	high _B4
  3921  000C16  20F4               	addwfc	prodh,w,c
  3922  000C18  6EDA               	movwf	fsr2h,c
  3923  000C1A  0104               	movlb	4	; () banked
  3924  000C1C  ACDF               	btfss	indf2,6,c
  3925  000C1E  D003               	goto	i2l3513
  3926                           
  3927                           ; BSR set to: 4
  3928  000C20  ECB9  F00E         	call	_um_4	;wreg free
  3929  000C24  D002               	goto	i2l3515
  3930  000C26                     i2l3513:
  3931  000C26  EC31  F00F         	call	_zero_4	;wreg free
  3932  000C2A                     i2l3515:
  3933                           
  3934                           ;app.c: 323: if( (B4[idx] & 32) > 0) um_4();else zero_4();
  3935  000C2A  5001               	movf	SendBuffCh4@idx,w,c
  3936  000C2C  0D01               	mullw	1
  3937  000C2E  0EC0               	movlw	low _B4
  3938  000C30  24F3               	addwf	prodl,w,c
  3939  000C32  6ED9               	movwf	fsr2l,c
  3940  000C34  0E04               	movlw	high _B4
  3941  000C36  20F4               	addwfc	prodh,w,c
  3942  000C38  6EDA               	movwf	fsr2h,c
  3943  000C3A  0104               	movlb	4	; () banked
  3944  000C3C  AADF               	btfss	indf2,5,c
  3945  000C3E  D003               	goto	i2l3519
  3946                           
  3947                           ; BSR set to: 4
  3948  000C40  ECB9  F00E         	call	_um_4	;wreg free
  3949  000C44  D002               	goto	i2l3521
  3950  000C46                     i2l3519:
  3951  000C46  EC31  F00F         	call	_zero_4	;wreg free
  3952  000C4A                     i2l3521:
  3953                           
  3954                           ;app.c: 324: if( (B4[idx] & 16) > 0) um_4();else zero_4();
  3955  000C4A  5001               	movf	SendBuffCh4@idx,w,c
  3956  000C4C  0D01               	mullw	1
  3957  000C4E  0EC0               	movlw	low _B4
  3958  000C50  24F3               	addwf	prodl,w,c
  3959  000C52  6ED9               	movwf	fsr2l,c
  3960  000C54  0E04               	movlw	high _B4
  3961  000C56  20F4               	addwfc	prodh,w,c
  3962  000C58  6EDA               	movwf	fsr2h,c
  3963  000C5A  0104               	movlb	4	; () banked
  3964  000C5C  A8DF               	btfss	indf2,4,c
  3965  000C5E  D003               	goto	i2l3525
  3966                           
  3967                           ; BSR set to: 4
  3968  000C60  ECB9  F00E         	call	_um_4	;wreg free
  3969  000C64  D002               	goto	i2l3527
  3970  000C66                     i2l3525:
  3971  000C66  EC31  F00F         	call	_zero_4	;wreg free
  3972  000C6A                     i2l3527:
  3973                           
  3974                           ;app.c: 325: if( (B4[idx] & 8) > 0) um_4();else zero_4();
  3975  000C6A  5001               	movf	SendBuffCh4@idx,w,c
  3976  000C6C  0D01               	mullw	1
  3977  000C6E  0EC0               	movlw	low _B4
  3978  000C70  24F3               	addwf	prodl,w,c
  3979  000C72  6ED9               	movwf	fsr2l,c
  3980  000C74  0E04               	movlw	high _B4
  3981  000C76  20F4               	addwfc	prodh,w,c
  3982  000C78  6EDA               	movwf	fsr2h,c
  3983  000C7A  0104               	movlb	4	; () banked
  3984  000C7C  A6DF               	btfss	indf2,3,c
  3985  000C7E  D003               	goto	i2l3531
  3986                           
  3987                           ; BSR set to: 4
  3988  000C80  ECB9  F00E         	call	_um_4	;wreg free
  3989  000C84  D002               	goto	i2l3533
  3990  000C86                     i2l3531:
  3991  000C86  EC31  F00F         	call	_zero_4	;wreg free
  3992  000C8A                     i2l3533:
  3993                           
  3994                           ;app.c: 326: if( (B4[idx] & 4) > 0) um_4();else zero_4();
  3995  000C8A  5001               	movf	SendBuffCh4@idx,w,c
  3996  000C8C  0D01               	mullw	1
  3997  000C8E  0EC0               	movlw	low _B4
  3998  000C90  24F3               	addwf	prodl,w,c
  3999  000C92  6ED9               	movwf	fsr2l,c
  4000  000C94  0E04               	movlw	high _B4
  4001  000C96  20F4               	addwfc	prodh,w,c
  4002  000C98  6EDA               	movwf	fsr2h,c
  4003  000C9A  0104               	movlb	4	; () banked
  4004  000C9C  A4DF               	btfss	indf2,2,c
  4005  000C9E  D003               	goto	i2l3537
  4006                           
  4007                           ; BSR set to: 4
  4008  000CA0  ECB9  F00E         	call	_um_4	;wreg free
  4009  000CA4  D002               	goto	i2l3539
  4010  000CA6                     i2l3537:
  4011  000CA6  EC31  F00F         	call	_zero_4	;wreg free
  4012  000CAA                     i2l3539:
  4013                           
  4014                           ;app.c: 327: if( (B4[idx] & 2) > 0) um_4();else zero_4();
  4015  000CAA  5001               	movf	SendBuffCh4@idx,w,c
  4016  000CAC  0D01               	mullw	1
  4017  000CAE  0EC0               	movlw	low _B4
  4018  000CB0  24F3               	addwf	prodl,w,c
  4019  000CB2  6ED9               	movwf	fsr2l,c
  4020  000CB4  0E04               	movlw	high _B4
  4021  000CB6  20F4               	addwfc	prodh,w,c
  4022  000CB8  6EDA               	movwf	fsr2h,c
  4023  000CBA  0104               	movlb	4	; () banked
  4024  000CBC  A2DF               	btfss	indf2,1,c
  4025  000CBE  D003               	goto	i2l3543
  4026                           
  4027                           ; BSR set to: 4
  4028  000CC0  ECB9  F00E         	call	_um_4	;wreg free
  4029  000CC4  D002               	goto	i2l3545
  4030  000CC6                     i2l3543:
  4031  000CC6  EC31  F00F         	call	_zero_4	;wreg free
  4032  000CCA                     i2l3545:
  4033                           
  4034                           ;app.c: 328: if( (B4[idx] & 1) > 0) um_4();else zero_4();
  4035  000CCA  5001               	movf	SendBuffCh4@idx,w,c
  4036  000CCC  0D01               	mullw	1
  4037  000CCE  0EC0               	movlw	low _B4
  4038  000CD0  24F3               	addwf	prodl,w,c
  4039  000CD2  6ED9               	movwf	fsr2l,c
  4040  000CD4  0E04               	movlw	high _B4
  4041  000CD6  20F4               	addwfc	prodh,w,c
  4042  000CD8  6EDA               	movwf	fsr2h,c
  4043  000CDA  0104               	movlb	4	; () banked
  4044  000CDC  A0DF               	btfss	indf2,0,c
  4045  000CDE  D003               	goto	i2l3549
  4046                           
  4047                           ; BSR set to: 4
  4048  000CE0  ECB9  F00E         	call	_um_4	;wreg free
  4049  000CE4  0012               	return	
  4050  000CE6                     i2l3549:
  4051  000CE6  EC31  F00F         	call	_zero_4	;wreg free
  4052  000CEA  0012               	return	
  4053  000CEC                     __end_of_SendBuffCh4:
  4054                           	opt stack 0
  4055                           pclatu	equ	0xFFB
  4056                           pclath	equ	0xFFA
  4057                           tblptru	equ	0xFF8
  4058                           tblptrh	equ	0xFF7
  4059                           tblptrl	equ	0xFF6
  4060                           tablat	equ	0xFF5
  4061                           prodh	equ	0xFF4
  4062                           prodl	equ	0xFF3
  4063                           intcon	equ	0xFF2
  4064                           intcon2	equ	0xFF1
  4065                           postinc0	equ	0xFEE
  4066                           fsr0h	equ	0xFEA
  4067                           fsr0l	equ	0xFE9
  4068                           wreg	equ	0xFE8
  4069                           postdec1	equ	0xFE5
  4070                           fsr1h	equ	0xFE2
  4071                           fsr1l	equ	0xFE1
  4072                           indf2	equ	0xFDF
  4073                           fsr2h	equ	0xFDA
  4074                           fsr2l	equ	0xFD9
  4075                           status	equ	0xFD8
  4076                           
  4077 ;; *************** function _zero_4 *****************
  4078 ;; Defined at:
  4079 ;;		line 163 in file "mcc_generated_files/app.c"
  4080 ;; Parameters:    Size  Location     Type
  4081 ;;		None
  4082 ;; Auto vars:     Size  Location     Type
  4083 ;;		None
  4084 ;; Return value:  Size  Location     Type
  4085 ;;                  1    wreg      void 
  4086 ;; Registers used:
  4087 ;;		None
  4088 ;; Tracked objects:
  4089 ;;		On entry : 0/0
  4090 ;;		On exit  : 0/0
  4091 ;;		Unchanged: 0/0
  4092 ;; Data sizes:     COMRAM   BANK0   BANK1   BANK2   BANK3   BANK4   BANK5
  4093 ;;      Params:         0       0       0       0       0       0       0
  4094 ;;      Locals:         0       0       0       0       0       0       0
  4095 ;;      Temps:          0       0       0       0       0       0       0
  4096 ;;      Totals:         0       0       0       0       0       0       0
  4097 ;;Total ram usage:        0 bytes
  4098 ;; Hardware stack levels used:    1
  4099 ;; This function calls:
  4100 ;;		Nothing
  4101 ;; This function is called by:
  4102 ;;		_SendBuffCh4
  4103 ;; This function uses a non-reentrant model
  4104 ;;
  4105                           
  4106                           	psect	text23
  4107  001E62                     __ptext23:
  4108                           	opt stack 0
  4109  001E62                     _zero_4:
  4110                           	opt stack 21
  4111                           
  4112                           ;incstack = 0
  4113  001E62  888A               	bsf	3978,4,c	;volatile
  4114  001E64  F000               	nop	
  4115  001E66  F000               	nop	
  4116  001E68  F000               	nop	
  4117  001E6A  F000               	nop	
  4118  001E6C  F000               	nop	
  4119  001E6E  F000               	nop	
  4120                           
  4121                           ;app.c: 164: LATB4 = 0; __nop();__nop();__nop();__nop();__nop();__nop(); }
  4122  001E70  988A               	bcf	3978,4,c	;volatile
  4123  001E72  F000               	nop	
  4124  001E74  F000               	nop	
  4125  001E76  F000               	nop	
  4126  001E78  F000               	nop	
  4127  001E7A  F000               	nop	
  4128  001E7C  F000               	nop	
  4129  001E7E  0012               	return		;funcret
  4130  001E80                     __end_of_zero_4:
  4131                           	opt stack 0
  4132                           pclatu	equ	0xFFB
  4133                           pclath	equ	0xFFA
  4134                           tblptru	equ	0xFF8
  4135                           tblptrh	equ	0xFF7
  4136                           tblptrl	equ	0xFF6
  4137                           tablat	equ	0xFF5
  4138                           prodh	equ	0xFF4
  4139                           prodl	equ	0xFF3
  4140                           intcon	equ	0xFF2
  4141                           intcon2	equ	0xFF1
  4142                           postinc0	equ	0xFEE
  4143                           fsr0h	equ	0xFEA
  4144                           fsr0l	equ	0xFE9
  4145                           wreg	equ	0xFE8
  4146                           postdec1	equ	0xFE5
  4147                           fsr1h	equ	0xFE2
  4148                           fsr1l	equ	0xFE1
  4149                           indf2	equ	0xFDF
  4150                           fsr2h	equ	0xFDA
  4151                           fsr2l	equ	0xFD9
  4152                           status	equ	0xFD8
  4153                           
  4154 ;; *************** function _um_4 *****************
  4155 ;; Defined at:
  4156 ;;		line 159 in file "mcc_generated_files/app.c"
  4157 ;; Parameters:    Size  Location     Type
  4158 ;;		None
  4159 ;; Auto vars:     Size  Location     Type
  4160 ;;		None
  4161 ;; Return value:  Size  Location     Type
  4162 ;;                  1    wreg      void 
  4163 ;; Registers used:
  4164 ;;		None
  4165 ;; Tracked objects:
  4166 ;;		On entry : 0/0
  4167 ;;		On exit  : 0/0
  4168 ;;		Unchanged: 0/0
  4169 ;; Data sizes:     COMRAM   BANK0   BANK1   BANK2   BANK3   BANK4   BANK5
  4170 ;;      Params:         0       0       0       0       0       0       0
  4171 ;;      Locals:         0       0       0       0       0       0       0
  4172 ;;      Temps:          0       0       0       0       0       0       0
  4173 ;;      Totals:         0       0       0       0       0       0       0
  4174 ;;Total ram usage:        0 bytes
  4175 ;; Hardware stack levels used:    1
  4176 ;; This function calls:
  4177 ;;		Nothing
  4178 ;; This function is called by:
  4179 ;;		_SendBuffCh4
  4180 ;; This function uses a non-reentrant model
  4181 ;;
  4182                           
  4183                           	psect	text24
  4184  001D72                     __ptext24:
  4185                           	opt stack 0
  4186  001D72                     _um_4:
  4187                           	opt stack 21
  4188                           
  4189                           ;incstack = 0
  4190  001D72  888A               	bsf	3978,4,c	;volatile
  4191  001D74  F000               	nop	
  4192  001D76  F000               	nop	
  4193  001D78  F000               	nop	
  4194  001D7A  F000               	nop	
  4195  001D7C  F000               	nop	
  4196  001D7E  F000               	nop	
  4197                           
  4198                           ;app.c: 160: __nop();__nop();__nop();__nop();__nop();__nop();
  4199  001D80  F000               	nop	
  4200  001D82  F000               	nop	
  4201  001D84  F000               	nop	
  4202  001D86  F000               	nop	
  4203  001D88  F000               	nop	
  4204  001D8A  F000               	nop	
  4205                           
  4206                           ;app.c: 161: __nop();__nop();__nop(); LATB4 = 0;
  4207  001D8C  F000               	nop	
  4208  001D8E  F000               	nop	
  4209  001D90  F000               	nop	
  4210  001D92  988A               	bcf	3978,4,c	;volatile
  4211  001D94  0012               	return		;funcret
  4212  001D96                     __end_of_um_4:
  4213                           	opt stack 0
  4214                           pclatu	equ	0xFFB
  4215                           pclath	equ	0xFFA
  4216                           tblptru	equ	0xFF8
  4217                           tblptrh	equ	0xFF7
  4218                           tblptrl	equ	0xFF6
  4219                           tablat	equ	0xFF5
  4220                           prodh	equ	0xFF4
  4221                           prodl	equ	0xFF3
  4222                           intcon	equ	0xFF2
  4223                           intcon2	equ	0xFF1
  4224                           postinc0	equ	0xFEE
  4225                           fsr0h	equ	0xFEA
  4226                           fsr0l	equ	0xFE9
  4227                           wreg	equ	0xFE8
  4228                           postdec1	equ	0xFE5
  4229                           fsr1h	equ	0xFE2
  4230                           fsr1l	equ	0xFE1
  4231                           indf2	equ	0xFDF
  4232                           fsr2h	equ	0xFDA
  4233                           fsr2l	equ	0xFD9
  4234                           status	equ	0xFD8
  4235                           
  4236 ;; *************** function _SendBuffCh3 *****************
  4237 ;; Defined at:
  4238 ;;		line 272 in file "mcc_generated_files/app.c"
  4239 ;; Parameters:    Size  Location     Type
  4240 ;;  idx             1    wreg     unsigned char 
  4241 ;; Auto vars:     Size  Location     Type
  4242 ;;  idx             1    0[COMRAM] unsigned char 
  4243 ;; Return value:  Size  Location     Type
  4244 ;;                  1    wreg      void 
  4245 ;; Registers used:
  4246 ;;		wreg, fsr2l, fsr2h, status,2, status,0, prodl, prodh, cstack
  4247 ;; Tracked objects:
  4248 ;;		On entry : 0/0
  4249 ;;		On exit  : 0/0
  4250 ;;		Unchanged: 0/0
  4251 ;; Data sizes:     COMRAM   BANK0   BANK1   BANK2   BANK3   BANK4   BANK5
  4252 ;;      Params:         0       0       0       0       0       0       0
  4253 ;;      Locals:         1       0       0       0       0       0       0
  4254 ;;      Temps:          0       0       0       0       0       0       0
  4255 ;;      Totals:         1       0       0       0       0       0       0
  4256 ;;Total ram usage:        1 bytes
  4257 ;; Hardware stack levels used:    1
  4258 ;; Hardware stack levels required when called:    1
  4259 ;; This function calls:
  4260 ;;		_um_3
  4261 ;;		_zero_3
  4262 ;; This function is called by:
  4263 ;;		_AppTimer1ms
  4264 ;; This function uses a non-reentrant model
  4265 ;;
  4266                           
  4267                           	psect	text25
  4268  000CEC                     __ptext25:
  4269                           	opt stack 0
  4270  000CEC                     _SendBuffCh3:
  4271                           	opt stack 21
  4272                           
  4273                           ;incstack = 0
  4274                           ;SendBuffCh3@idx stored from wreg
  4275  000CEC  6E01               	movwf	SendBuffCh3@idx,c
  4276                           
  4277                           ;app.c: 274: if( (G3[idx] & 128) > 0) um_3();else zero_3();
  4278  000CEE  5001               	movf	SendBuffCh3@idx,w,c
  4279  000CF0  0D01               	mullw	1
  4280  000CF2  0EC0               	movlw	low _G3
  4281  000CF4  24F3               	addwf	prodl,w,c
  4282  000CF6  6ED9               	movwf	fsr2l,c
  4283  000CF8  0E03               	movlw	high _G3
  4284  000CFA  20F4               	addwfc	prodh,w,c
  4285  000CFC  6EDA               	movwf	fsr2h,c
  4286  000CFE  0103               	movlb	3	; () banked
  4287  000D00  AEDF               	btfss	indf2,7,c
  4288  000D02  D003               	goto	i2l3267
  4289                           
  4290                           ; BSR set to: 3
  4291  000D04  ECCB  F00E         	call	_um_3	;wreg free
  4292  000D08  D002               	goto	i2l3269
  4293  000D0A                     i2l3267:
  4294  000D0A  EC40  F00F         	call	_zero_3	;wreg free
  4295  000D0E                     i2l3269:
  4296                           
  4297                           ;app.c: 275: if( (G3[idx] & 64) > 0) um_3();else zero_3();
  4298  000D0E  5001               	movf	SendBuffCh3@idx,w,c
  4299  000D10  0D01               	mullw	1
  4300  000D12  0EC0               	movlw	low _G3
  4301  000D14  24F3               	addwf	prodl,w,c
  4302  000D16  6ED9               	movwf	fsr2l,c
  4303  000D18  0E03               	movlw	high _G3
  4304  000D1A  20F4               	addwfc	prodh,w,c
  4305  000D1C  6EDA               	movwf	fsr2h,c
  4306  000D1E  0103               	movlb	3	; () banked
  4307  000D20  ACDF               	btfss	indf2,6,c
  4308  000D22  D003               	goto	i2l3273
  4309                           
  4310                           ; BSR set to: 3
  4311  000D24  ECCB  F00E         	call	_um_3	;wreg free
  4312  000D28  D002               	goto	i2l3275
  4313  000D2A                     i2l3273:
  4314  000D2A  EC40  F00F         	call	_zero_3	;wreg free
  4315  000D2E                     i2l3275:
  4316                           
  4317                           ;app.c: 276: if( (G3[idx] & 32) > 0) um_3();else zero_3();
  4318  000D2E  5001               	movf	SendBuffCh3@idx,w,c
  4319  000D30  0D01               	mullw	1
  4320  000D32  0EC0               	movlw	low _G3
  4321  000D34  24F3               	addwf	prodl,w,c
  4322  000D36  6ED9               	movwf	fsr2l,c
  4323  000D38  0E03               	movlw	high _G3
  4324  000D3A  20F4               	addwfc	prodh,w,c
  4325  000D3C  6EDA               	movwf	fsr2h,c
  4326  000D3E  0103               	movlb	3	; () banked
  4327  000D40  AADF               	btfss	indf2,5,c
  4328  000D42  D003               	goto	i2l3279
  4329                           
  4330                           ; BSR set to: 3
  4331  000D44  ECCB  F00E         	call	_um_3	;wreg free
  4332  000D48  D002               	goto	i2l3281
  4333  000D4A                     i2l3279:
  4334  000D4A  EC40  F00F         	call	_zero_3	;wreg free
  4335  000D4E                     i2l3281:
  4336                           
  4337                           ;app.c: 277: if( (G3[idx] & 16) > 0) um_3();else zero_3();
  4338  000D4E  5001               	movf	SendBuffCh3@idx,w,c
  4339  000D50  0D01               	mullw	1
  4340  000D52  0EC0               	movlw	low _G3
  4341  000D54  24F3               	addwf	prodl,w,c
  4342  000D56  6ED9               	movwf	fsr2l,c
  4343  000D58  0E03               	movlw	high _G3
  4344  000D5A  20F4               	addwfc	prodh,w,c
  4345  000D5C  6EDA               	movwf	fsr2h,c
  4346  000D5E  0103               	movlb	3	; () banked
  4347  000D60  A8DF               	btfss	indf2,4,c
  4348  000D62  D003               	goto	i2l3285
  4349                           
  4350                           ; BSR set to: 3
  4351  000D64  ECCB  F00E         	call	_um_3	;wreg free
  4352  000D68  D002               	goto	i2l3287
  4353  000D6A                     i2l3285:
  4354  000D6A  EC40  F00F         	call	_zero_3	;wreg free
  4355  000D6E                     i2l3287:
  4356                           
  4357                           ;app.c: 278: if( (G3[idx] & 8) > 0) um_3();else zero_3();
  4358  000D6E  5001               	movf	SendBuffCh3@idx,w,c
  4359  000D70  0D01               	mullw	1
  4360  000D72  0EC0               	movlw	low _G3
  4361  000D74  24F3               	addwf	prodl,w,c
  4362  000D76  6ED9               	movwf	fsr2l,c
  4363  000D78  0E03               	movlw	high _G3
  4364  000D7A  20F4               	addwfc	prodh,w,c
  4365  000D7C  6EDA               	movwf	fsr2h,c
  4366  000D7E  0103               	movlb	3	; () banked
  4367  000D80  A6DF               	btfss	indf2,3,c
  4368  000D82  D003               	goto	i2l3291
  4369                           
  4370                           ; BSR set to: 3
  4371  000D84  ECCB  F00E         	call	_um_3	;wreg free
  4372  000D88  D002               	goto	i2l3293
  4373  000D8A                     i2l3291:
  4374  000D8A  EC40  F00F         	call	_zero_3	;wreg free
  4375  000D8E                     i2l3293:
  4376                           
  4377                           ;app.c: 279: if( (G3[idx] & 4) > 0) um_3();else zero_3();
  4378  000D8E  5001               	movf	SendBuffCh3@idx,w,c
  4379  000D90  0D01               	mullw	1
  4380  000D92  0EC0               	movlw	low _G3
  4381  000D94  24F3               	addwf	prodl,w,c
  4382  000D96  6ED9               	movwf	fsr2l,c
  4383  000D98  0E03               	movlw	high _G3
  4384  000D9A  20F4               	addwfc	prodh,w,c
  4385  000D9C  6EDA               	movwf	fsr2h,c
  4386  000D9E  0103               	movlb	3	; () banked
  4387  000DA0  A4DF               	btfss	indf2,2,c
  4388  000DA2  D003               	goto	i2l3297
  4389                           
  4390                           ; BSR set to: 3
  4391  000DA4  ECCB  F00E         	call	_um_3	;wreg free
  4392  000DA8  D002               	goto	i2l3299
  4393  000DAA                     i2l3297:
  4394  000DAA  EC40  F00F         	call	_zero_3	;wreg free
  4395  000DAE                     i2l3299:
  4396                           
  4397                           ;app.c: 280: if( (G3[idx] & 2) > 0) um_3();else zero_3();
  4398  000DAE  5001               	movf	SendBuffCh3@idx,w,c
  4399  000DB0  0D01               	mullw	1
  4400  000DB2  0EC0               	movlw	low _G3
  4401  000DB4  24F3               	addwf	prodl,w,c
  4402  000DB6  6ED9               	movwf	fsr2l,c
  4403  000DB8  0E03               	movlw	high _G3
  4404  000DBA  20F4               	addwfc	prodh,w,c
  4405  000DBC  6EDA               	movwf	fsr2h,c
  4406  000DBE  0103               	movlb	3	; () banked
  4407  000DC0  A2DF               	btfss	indf2,1,c
  4408  000DC2  D003               	goto	i2l3303
  4409                           
  4410                           ; BSR set to: 3
  4411  000DC4  ECCB  F00E         	call	_um_3	;wreg free
  4412  000DC8  D002               	goto	i2l3305
  4413  000DCA                     i2l3303:
  4414  000DCA  EC40  F00F         	call	_zero_3	;wreg free
  4415  000DCE                     i2l3305:
  4416                           
  4417                           ;app.c: 281: if( (G3[idx] & 1) > 0) um_3();else zero_3();
  4418  000DCE  5001               	movf	SendBuffCh3@idx,w,c
  4419  000DD0  0D01               	mullw	1
  4420  000DD2  0EC0               	movlw	low _G3
  4421  000DD4  24F3               	addwf	prodl,w,c
  4422  000DD6  6ED9               	movwf	fsr2l,c
  4423  000DD8  0E03               	movlw	high _G3
  4424  000DDA  20F4               	addwfc	prodh,w,c
  4425  000DDC  6EDA               	movwf	fsr2h,c
  4426  000DDE  0103               	movlb	3	; () banked
  4427  000DE0  A0DF               	btfss	indf2,0,c
  4428  000DE2  D003               	goto	i2l3309
  4429                           
  4430                           ; BSR set to: 3
  4431  000DE4  ECCB  F00E         	call	_um_3	;wreg free
  4432  000DE8  D002               	goto	i2l3311
  4433  000DEA                     i2l3309:
  4434  000DEA  EC40  F00F         	call	_zero_3	;wreg free
  4435  000DEE                     i2l3311:
  4436                           
  4437                           ;app.c: 283: if( (R3[idx] & 128) > 0) um_3();else zero_3();
  4438  000DEE  5001               	movf	SendBuffCh3@idx,w,c
  4439  000DF0  0D01               	mullw	1
  4440  000DF2  0E00               	movlw	low _R3
  4441  000DF4  24F3               	addwf	prodl,w,c
  4442  000DF6  6ED9               	movwf	fsr2l,c
  4443  000DF8  0E02               	movlw	high _R3
  4444  000DFA  20F4               	addwfc	prodh,w,c
  4445  000DFC  6EDA               	movwf	fsr2h,c
  4446  000DFE  0102               	movlb	2	; () banked
  4447  000E00  AEDF               	btfss	indf2,7,c
  4448  000E02  D003               	goto	i2l3315
  4449                           
  4450                           ; BSR set to: 2
  4451  000E04  ECCB  F00E         	call	_um_3	;wreg free
  4452  000E08  D002               	goto	i2l3317
  4453  000E0A                     i2l3315:
  4454  000E0A  EC40  F00F         	call	_zero_3	;wreg free
  4455  000E0E                     i2l3317:
  4456                           
  4457                           ;app.c: 284: if( (R3[idx] & 64) > 0) um_3();else zero_3();
  4458  000E0E  5001               	movf	SendBuffCh3@idx,w,c
  4459  000E10  0D01               	mullw	1
  4460  000E12  0E00               	movlw	low _R3
  4461  000E14  24F3               	addwf	prodl,w,c
  4462  000E16  6ED9               	movwf	fsr2l,c
  4463  000E18  0E02               	movlw	high _R3
  4464  000E1A  20F4               	addwfc	prodh,w,c
  4465  000E1C  6EDA               	movwf	fsr2h,c
  4466  000E1E  0102               	movlb	2	; () banked
  4467  000E20  ACDF               	btfss	indf2,6,c
  4468  000E22  D003               	goto	i2l3321
  4469                           
  4470                           ; BSR set to: 2
  4471  000E24  ECCB  F00E         	call	_um_3	;wreg free
  4472  000E28  D002               	goto	i2l3323
  4473  000E2A                     i2l3321:
  4474  000E2A  EC40  F00F         	call	_zero_3	;wreg free
  4475  000E2E                     i2l3323:
  4476                           
  4477                           ;app.c: 285: if( (R3[idx] & 32) > 0) um_3();else zero_3();
  4478  000E2E  5001               	movf	SendBuffCh3@idx,w,c
  4479  000E30  0D01               	mullw	1
  4480  000E32  0E00               	movlw	low _R3
  4481  000E34  24F3               	addwf	prodl,w,c
  4482  000E36  6ED9               	movwf	fsr2l,c
  4483  000E38  0E02               	movlw	high _R3
  4484  000E3A  20F4               	addwfc	prodh,w,c
  4485  000E3C  6EDA               	movwf	fsr2h,c
  4486  000E3E  0102               	movlb	2	; () banked
  4487  000E40  AADF               	btfss	indf2,5,c
  4488  000E42  D003               	goto	i2l3327
  4489                           
  4490                           ; BSR set to: 2
  4491  000E44  ECCB  F00E         	call	_um_3	;wreg free
  4492  000E48  D002               	goto	i2l3329
  4493  000E4A                     i2l3327:
  4494  000E4A  EC40  F00F         	call	_zero_3	;wreg free
  4495  000E4E                     i2l3329:
  4496                           
  4497                           ;app.c: 286: if( (R3[idx] & 16) > 0) um_3();else zero_3();
  4498  000E4E  5001               	movf	SendBuffCh3@idx,w,c
  4499  000E50  0D01               	mullw	1
  4500  000E52  0E00               	movlw	low _R3
  4501  000E54  24F3               	addwf	prodl,w,c
  4502  000E56  6ED9               	movwf	fsr2l,c
  4503  000E58  0E02               	movlw	high _R3
  4504  000E5A  20F4               	addwfc	prodh,w,c
  4505  000E5C  6EDA               	movwf	fsr2h,c
  4506  000E5E  0102               	movlb	2	; () banked
  4507  000E60  A8DF               	btfss	indf2,4,c
  4508  000E62  D003               	goto	i2l3333
  4509                           
  4510                           ; BSR set to: 2
  4511  000E64  ECCB  F00E         	call	_um_3	;wreg free
  4512  000E68  D002               	goto	i2l3335
  4513  000E6A                     i2l3333:
  4514  000E6A  EC40  F00F         	call	_zero_3	;wreg free
  4515  000E6E                     i2l3335:
  4516                           
  4517                           ;app.c: 287: if( (R3[idx] & 8) > 0) um_3();else zero_3();
  4518  000E6E  5001               	movf	SendBuffCh3@idx,w,c
  4519  000E70  0D01               	mullw	1
  4520  000E72  0E00               	movlw	low _R3
  4521  000E74  24F3               	addwf	prodl,w,c
  4522  000E76  6ED9               	movwf	fsr2l,c
  4523  000E78  0E02               	movlw	high _R3
  4524  000E7A  20F4               	addwfc	prodh,w,c
  4525  000E7C  6EDA               	movwf	fsr2h,c
  4526  000E7E  0102               	movlb	2	; () banked
  4527  000E80  A6DF               	btfss	indf2,3,c
  4528  000E82  D003               	goto	i2l3339
  4529                           
  4530                           ; BSR set to: 2
  4531  000E84  ECCB  F00E         	call	_um_3	;wreg free
  4532  000E88  D002               	goto	i2l3341
  4533  000E8A                     i2l3339:
  4534  000E8A  EC40  F00F         	call	_zero_3	;wreg free
  4535  000E8E                     i2l3341:
  4536                           
  4537                           ;app.c: 288: if( (R3[idx] & 4) > 0) um_3();else zero_3();
  4538  000E8E  5001               	movf	SendBuffCh3@idx,w,c
  4539  000E90  0D01               	mullw	1
  4540  000E92  0E00               	movlw	low _R3
  4541  000E94  24F3               	addwf	prodl,w,c
  4542  000E96  6ED9               	movwf	fsr2l,c
  4543  000E98  0E02               	movlw	high _R3
  4544  000E9A  20F4               	addwfc	prodh,w,c
  4545  000E9C  6EDA               	movwf	fsr2h,c
  4546  000E9E  0102               	movlb	2	; () banked
  4547  000EA0  A4DF               	btfss	indf2,2,c
  4548  000EA2  D003               	goto	i2l3345
  4549                           
  4550                           ; BSR set to: 2
  4551  000EA4  ECCB  F00E         	call	_um_3	;wreg free
  4552  000EA8  D002               	goto	i2l3347
  4553  000EAA                     i2l3345:
  4554  000EAA  EC40  F00F         	call	_zero_3	;wreg free
  4555  000EAE                     i2l3347:
  4556                           
  4557                           ;app.c: 289: if( (R3[idx] & 2) > 0) um_3();else zero_3();
  4558  000EAE  5001               	movf	SendBuffCh3@idx,w,c
  4559  000EB0  0D01               	mullw	1
  4560  000EB2  0E00               	movlw	low _R3
  4561  000EB4  24F3               	addwf	prodl,w,c
  4562  000EB6  6ED9               	movwf	fsr2l,c
  4563  000EB8  0E02               	movlw	high _R3
  4564  000EBA  20F4               	addwfc	prodh,w,c
  4565  000EBC  6EDA               	movwf	fsr2h,c
  4566  000EBE  0102               	movlb	2	; () banked
  4567  000EC0  A2DF               	btfss	indf2,1,c
  4568  000EC2  D003               	goto	i2l3351
  4569                           
  4570                           ; BSR set to: 2
  4571  000EC4  ECCB  F00E         	call	_um_3	;wreg free
  4572  000EC8  D002               	goto	i2l3353
  4573  000ECA                     i2l3351:
  4574  000ECA  EC40  F00F         	call	_zero_3	;wreg free
  4575  000ECE                     i2l3353:
  4576                           
  4577                           ;app.c: 290: if( (R3[idx] & 1) > 0) um_3();else zero_3();
  4578  000ECE  5001               	movf	SendBuffCh3@idx,w,c
  4579  000ED0  0D01               	mullw	1
  4580  000ED2  0E00               	movlw	low _R3
  4581  000ED4  24F3               	addwf	prodl,w,c
  4582  000ED6  6ED9               	movwf	fsr2l,c
  4583  000ED8  0E02               	movlw	high _R3
  4584  000EDA  20F4               	addwfc	prodh,w,c
  4585  000EDC  6EDA               	movwf	fsr2h,c
  4586  000EDE  0102               	movlb	2	; () banked
  4587  000EE0  A0DF               	btfss	indf2,0,c
  4588  000EE2  D003               	goto	i2l3357
  4589                           
  4590                           ; BSR set to: 2
  4591  000EE4  ECCB  F00E         	call	_um_3	;wreg free
  4592  000EE8  D002               	goto	i2l3359
  4593  000EEA                     i2l3357:
  4594  000EEA  EC40  F00F         	call	_zero_3	;wreg free
  4595  000EEE                     i2l3359:
  4596                           
  4597                           ;app.c: 292: if( (B3[idx] & 128) > 0) um_3();else zero_3();
  4598  000EEE  5001               	movf	SendBuffCh3@idx,w,c
  4599  000EF0  0D01               	mullw	1
  4600  000EF2  0E80               	movlw	low _B3
  4601  000EF4  24F3               	addwf	prodl,w,c
  4602  000EF6  6ED9               	movwf	fsr2l,c
  4603  000EF8  0E03               	movlw	high _B3
  4604  000EFA  20F4               	addwfc	prodh,w,c
  4605  000EFC  6EDA               	movwf	fsr2h,c
  4606  000EFE  0103               	movlb	3	; () banked
  4607  000F00  AEDF               	btfss	indf2,7,c
  4608  000F02  D003               	goto	i2l3363
  4609                           
  4610                           ; BSR set to: 3
  4611  000F04  ECCB  F00E         	call	_um_3	;wreg free
  4612  000F08  D002               	goto	i2l3365
  4613  000F0A                     i2l3363:
  4614  000F0A  EC40  F00F         	call	_zero_3	;wreg free
  4615  000F0E                     i2l3365:
  4616                           
  4617                           ;app.c: 293: if( (B3[idx] & 64) > 0) um_3();else zero_3();
  4618  000F0E  5001               	movf	SendBuffCh3@idx,w,c
  4619  000F10  0D01               	mullw	1
  4620  000F12  0E80               	movlw	low _B3
  4621  000F14  24F3               	addwf	prodl,w,c
  4622  000F16  6ED9               	movwf	fsr2l,c
  4623  000F18  0E03               	movlw	high _B3
  4624  000F1A  20F4               	addwfc	prodh,w,c
  4625  000F1C  6EDA               	movwf	fsr2h,c
  4626  000F1E  0103               	movlb	3	; () banked
  4627  000F20  ACDF               	btfss	indf2,6,c
  4628  000F22  D003               	goto	i2l3369
  4629                           
  4630                           ; BSR set to: 3
  4631  000F24  ECCB  F00E         	call	_um_3	;wreg free
  4632  000F28  D002               	goto	i2l3371
  4633  000F2A                     i2l3369:
  4634  000F2A  EC40  F00F         	call	_zero_3	;wreg free
  4635  000F2E                     i2l3371:
  4636                           
  4637                           ;app.c: 294: if( (B3[idx] & 32) > 0) um_3();else zero_3();
  4638  000F2E  5001               	movf	SendBuffCh3@idx,w,c
  4639  000F30  0D01               	mullw	1
  4640  000F32  0E80               	movlw	low _B3
  4641  000F34  24F3               	addwf	prodl,w,c
  4642  000F36  6ED9               	movwf	fsr2l,c
  4643  000F38  0E03               	movlw	high _B3
  4644  000F3A  20F4               	addwfc	prodh,w,c
  4645  000F3C  6EDA               	movwf	fsr2h,c
  4646  000F3E  0103               	movlb	3	; () banked
  4647  000F40  AADF               	btfss	indf2,5,c
  4648  000F42  D003               	goto	i2l3375
  4649                           
  4650                           ; BSR set to: 3
  4651  000F44  ECCB  F00E         	call	_um_3	;wreg free
  4652  000F48  D002               	goto	i2l3377
  4653  000F4A                     i2l3375:
  4654  000F4A  EC40  F00F         	call	_zero_3	;wreg free
  4655  000F4E                     i2l3377:
  4656                           
  4657                           ;app.c: 295: if( (B3[idx] & 16) > 0) um_3();else zero_3();
  4658  000F4E  5001               	movf	SendBuffCh3@idx,w,c
  4659  000F50  0D01               	mullw	1
  4660  000F52  0E80               	movlw	low _B3
  4661  000F54  24F3               	addwf	prodl,w,c
  4662  000F56  6ED9               	movwf	fsr2l,c
  4663  000F58  0E03               	movlw	high _B3
  4664  000F5A  20F4               	addwfc	prodh,w,c
  4665  000F5C  6EDA               	movwf	fsr2h,c
  4666  000F5E  0103               	movlb	3	; () banked
  4667  000F60  A8DF               	btfss	indf2,4,c
  4668  000F62  D003               	goto	i2l3381
  4669                           
  4670                           ; BSR set to: 3
  4671  000F64  ECCB  F00E         	call	_um_3	;wreg free
  4672  000F68  D002               	goto	i2l3383
  4673  000F6A                     i2l3381:
  4674  000F6A  EC40  F00F         	call	_zero_3	;wreg free
  4675  000F6E                     i2l3383:
  4676                           
  4677                           ;app.c: 296: if( (B3[idx] & 8) > 0) um_3();else zero_3();
  4678  000F6E  5001               	movf	SendBuffCh3@idx,w,c
  4679  000F70  0D01               	mullw	1
  4680  000F72  0E80               	movlw	low _B3
  4681  000F74  24F3               	addwf	prodl,w,c
  4682  000F76  6ED9               	movwf	fsr2l,c
  4683  000F78  0E03               	movlw	high _B3
  4684  000F7A  20F4               	addwfc	prodh,w,c
  4685  000F7C  6EDA               	movwf	fsr2h,c
  4686  000F7E  0103               	movlb	3	; () banked
  4687  000F80  A6DF               	btfss	indf2,3,c
  4688  000F82  D003               	goto	i2l3387
  4689                           
  4690                           ; BSR set to: 3
  4691  000F84  ECCB  F00E         	call	_um_3	;wreg free
  4692  000F88  D002               	goto	i2l3389
  4693  000F8A                     i2l3387:
  4694  000F8A  EC40  F00F         	call	_zero_3	;wreg free
  4695  000F8E                     i2l3389:
  4696                           
  4697                           ;app.c: 297: if( (B3[idx] & 4) > 0) um_3();else zero_3();
  4698  000F8E  5001               	movf	SendBuffCh3@idx,w,c
  4699  000F90  0D01               	mullw	1
  4700  000F92  0E80               	movlw	low _B3
  4701  000F94  24F3               	addwf	prodl,w,c
  4702  000F96  6ED9               	movwf	fsr2l,c
  4703  000F98  0E03               	movlw	high _B3
  4704  000F9A  20F4               	addwfc	prodh,w,c
  4705  000F9C  6EDA               	movwf	fsr2h,c
  4706  000F9E  0103               	movlb	3	; () banked
  4707  000FA0  A4DF               	btfss	indf2,2,c
  4708  000FA2  D003               	goto	i2l3393
  4709                           
  4710                           ; BSR set to: 3
  4711  000FA4  ECCB  F00E         	call	_um_3	;wreg free
  4712  000FA8  D002               	goto	i2l3395
  4713  000FAA                     i2l3393:
  4714  000FAA  EC40  F00F         	call	_zero_3	;wreg free
  4715  000FAE                     i2l3395:
  4716                           
  4717                           ;app.c: 298: if( (B3[idx] & 2) > 0) um_3();else zero_3();
  4718  000FAE  5001               	movf	SendBuffCh3@idx,w,c
  4719  000FB0  0D01               	mullw	1
  4720  000FB2  0E80               	movlw	low _B3
  4721  000FB4  24F3               	addwf	prodl,w,c
  4722  000FB6  6ED9               	movwf	fsr2l,c
  4723  000FB8  0E03               	movlw	high _B3
  4724  000FBA  20F4               	addwfc	prodh,w,c
  4725  000FBC  6EDA               	movwf	fsr2h,c
  4726  000FBE  0103               	movlb	3	; () banked
  4727  000FC0  A2DF               	btfss	indf2,1,c
  4728  000FC2  D003               	goto	i2l3399
  4729                           
  4730                           ; BSR set to: 3
  4731  000FC4  ECCB  F00E         	call	_um_3	;wreg free
  4732  000FC8  D002               	goto	i2l3401
  4733  000FCA                     i2l3399:
  4734  000FCA  EC40  F00F         	call	_zero_3	;wreg free
  4735  000FCE                     i2l3401:
  4736                           
  4737                           ;app.c: 299: if( (B3[idx] & 1) > 0) um_3();else zero_3();
  4738  000FCE  5001               	movf	SendBuffCh3@idx,w,c
  4739  000FD0  0D01               	mullw	1
  4740  000FD2  0E80               	movlw	low _B3
  4741  000FD4  24F3               	addwf	prodl,w,c
  4742  000FD6  6ED9               	movwf	fsr2l,c
  4743  000FD8  0E03               	movlw	high _B3
  4744  000FDA  20F4               	addwfc	prodh,w,c
  4745  000FDC  6EDA               	movwf	fsr2h,c
  4746  000FDE  0103               	movlb	3	; () banked
  4747  000FE0  A0DF               	btfss	indf2,0,c
  4748  000FE2  D003               	goto	i2l3405
  4749                           
  4750                           ; BSR set to: 3
  4751  000FE4  ECCB  F00E         	call	_um_3	;wreg free
  4752  000FE8  0012               	return	
  4753  000FEA                     i2l3405:
  4754  000FEA  EC40  F00F         	call	_zero_3	;wreg free
  4755  000FEE  0012               	return	
  4756  000FF0                     __end_of_SendBuffCh3:
  4757                           	opt stack 0
  4758                           pclatu	equ	0xFFB
  4759                           pclath	equ	0xFFA
  4760                           tblptru	equ	0xFF8
  4761                           tblptrh	equ	0xFF7
  4762                           tblptrl	equ	0xFF6
  4763                           tablat	equ	0xFF5
  4764                           prodh	equ	0xFF4
  4765                           prodl	equ	0xFF3
  4766                           intcon	equ	0xFF2
  4767                           intcon2	equ	0xFF1
  4768                           postinc0	equ	0xFEE
  4769                           fsr0h	equ	0xFEA
  4770                           fsr0l	equ	0xFE9
  4771                           wreg	equ	0xFE8
  4772                           postdec1	equ	0xFE5
  4773                           fsr1h	equ	0xFE2
  4774                           fsr1l	equ	0xFE1
  4775                           indf2	equ	0xFDF
  4776                           fsr2h	equ	0xFDA
  4777                           fsr2l	equ	0xFD9
  4778                           status	equ	0xFD8
  4779                           
  4780 ;; *************** function _zero_3 *****************
  4781 ;; Defined at:
  4782 ;;		line 156 in file "mcc_generated_files/app.c"
  4783 ;; Parameters:    Size  Location     Type
  4784 ;;		None
  4785 ;; Auto vars:     Size  Location     Type
  4786 ;;		None
  4787 ;; Return value:  Size  Location     Type
  4788 ;;                  1    wreg      void 
  4789 ;; Registers used:
  4790 ;;		None
  4791 ;; Tracked objects:
  4792 ;;		On entry : 0/0
  4793 ;;		On exit  : 0/0
  4794 ;;		Unchanged: 0/0
  4795 ;; Data sizes:     COMRAM   BANK0   BANK1   BANK2   BANK3   BANK4   BANK5
  4796 ;;      Params:         0       0       0       0       0       0       0
  4797 ;;      Locals:         0       0       0       0       0       0       0
  4798 ;;      Temps:          0       0       0       0       0       0       0
  4799 ;;      Totals:         0       0       0       0       0       0       0
  4800 ;;Total ram usage:        0 bytes
  4801 ;; Hardware stack levels used:    1
  4802 ;; This function calls:
  4803 ;;		Nothing
  4804 ;; This function is called by:
  4805 ;;		_SendBuffCh3
  4806 ;; This function uses a non-reentrant model
  4807 ;;
  4808                           
  4809                           	psect	text26
  4810  001E80                     __ptext26:
  4811                           	opt stack 0
  4812  001E80                     _zero_3:
  4813                           	opt stack 21
  4814                           
  4815                           ;incstack = 0
  4816  001E80  868A               	bsf	3978,3,c	;volatile
  4817  001E82  F000               	nop	
  4818  001E84  F000               	nop	
  4819  001E86  F000               	nop	
  4820  001E88  F000               	nop	
  4821  001E8A  F000               	nop	
  4822  001E8C  F000               	nop	
  4823                           
  4824                           ;app.c: 157: LATB3 = 0; __nop();__nop();__nop();__nop();__nop();__nop(); }
  4825  001E8E  968A               	bcf	3978,3,c	;volatile
  4826  001E90  F000               	nop	
  4827  001E92  F000               	nop	
  4828  001E94  F000               	nop	
  4829  001E96  F000               	nop	
  4830  001E98  F000               	nop	
  4831  001E9A  F000               	nop	
  4832  001E9C  0012               	return		;funcret
  4833  001E9E                     __end_of_zero_3:
  4834                           	opt stack 0
  4835                           pclatu	equ	0xFFB
  4836                           pclath	equ	0xFFA
  4837                           tblptru	equ	0xFF8
  4838                           tblptrh	equ	0xFF7
  4839                           tblptrl	equ	0xFF6
  4840                           tablat	equ	0xFF5
  4841                           prodh	equ	0xFF4
  4842                           prodl	equ	0xFF3
  4843                           intcon	equ	0xFF2
  4844                           intcon2	equ	0xFF1
  4845                           postinc0	equ	0xFEE
  4846                           fsr0h	equ	0xFEA
  4847                           fsr0l	equ	0xFE9
  4848                           wreg	equ	0xFE8
  4849                           postdec1	equ	0xFE5
  4850                           fsr1h	equ	0xFE2
  4851                           fsr1l	equ	0xFE1
  4852                           indf2	equ	0xFDF
  4853                           fsr2h	equ	0xFDA
  4854                           fsr2l	equ	0xFD9
  4855                           status	equ	0xFD8
  4856                           
  4857 ;; *************** function _um_3 *****************
  4858 ;; Defined at:
  4859 ;;		line 152 in file "mcc_generated_files/app.c"
  4860 ;; Parameters:    Size  Location     Type
  4861 ;;		None
  4862 ;; Auto vars:     Size  Location     Type
  4863 ;;		None
  4864 ;; Return value:  Size  Location     Type
  4865 ;;                  1    wreg      void 
  4866 ;; Registers used:
  4867 ;;		None
  4868 ;; Tracked objects:
  4869 ;;		On entry : 0/0
  4870 ;;		On exit  : 0/0
  4871 ;;		Unchanged: 0/0
  4872 ;; Data sizes:     COMRAM   BANK0   BANK1   BANK2   BANK3   BANK4   BANK5
  4873 ;;      Params:         0       0       0       0       0       0       0
  4874 ;;      Locals:         0       0       0       0       0       0       0
  4875 ;;      Temps:          0       0       0       0       0       0       0
  4876 ;;      Totals:         0       0       0       0       0       0       0
  4877 ;;Total ram usage:        0 bytes
  4878 ;; Hardware stack levels used:    1
  4879 ;; This function calls:
  4880 ;;		Nothing
  4881 ;; This function is called by:
  4882 ;;		_SendBuffCh3
  4883 ;; This function uses a non-reentrant model
  4884 ;;
  4885                           
  4886                           	psect	text27
  4887  001D96                     __ptext27:
  4888                           	opt stack 0
  4889  001D96                     _um_3:
  4890                           	opt stack 21
  4891                           
  4892                           ;incstack = 0
  4893  001D96  868A               	bsf	3978,3,c	;volatile
  4894  001D98  F000               	nop	
  4895  001D9A  F000               	nop	
  4896  001D9C  F000               	nop	
  4897  001D9E  F000               	nop	
  4898  001DA0  F000               	nop	
  4899  001DA2  F000               	nop	
  4900                           
  4901                           ;app.c: 153: __nop();__nop();__nop();__nop();__nop();__nop();
  4902  001DA4  F000               	nop	
  4903  001DA6  F000               	nop	
  4904  001DA8  F000               	nop	
  4905  001DAA  F000               	nop	
  4906  001DAC  F000               	nop	
  4907  001DAE  F000               	nop	
  4908                           
  4909                           ;app.c: 154: __nop();__nop();__nop(); LATB3 = 0;
  4910  001DB0  F000               	nop	
  4911  001DB2  F000               	nop	
  4912  001DB4  F000               	nop	
  4913  001DB6  968A               	bcf	3978,3,c	;volatile
  4914  001DB8  0012               	return		;funcret
  4915  001DBA                     __end_of_um_3:
  4916                           	opt stack 0
  4917                           pclatu	equ	0xFFB
  4918                           pclath	equ	0xFFA
  4919                           tblptru	equ	0xFF8
  4920                           tblptrh	equ	0xFF7
  4921                           tblptrl	equ	0xFF6
  4922                           tablat	equ	0xFF5
  4923                           prodh	equ	0xFF4
  4924                           prodl	equ	0xFF3
  4925                           intcon	equ	0xFF2
  4926                           intcon2	equ	0xFF1
  4927                           postinc0	equ	0xFEE
  4928                           fsr0h	equ	0xFEA
  4929                           fsr0l	equ	0xFE9
  4930                           wreg	equ	0xFE8
  4931                           postdec1	equ	0xFE5
  4932                           fsr1h	equ	0xFE2
  4933                           fsr1l	equ	0xFE1
  4934                           indf2	equ	0xFDF
  4935                           fsr2h	equ	0xFDA
  4936                           fsr2l	equ	0xFD9
  4937                           status	equ	0xFD8
  4938                           
  4939 ;; *************** function _SendBuffCh2 *****************
  4940 ;; Defined at:
  4941 ;;		line 243 in file "mcc_generated_files/app.c"
  4942 ;; Parameters:    Size  Location     Type
  4943 ;;  idx             1    wreg     unsigned char 
  4944 ;; Auto vars:     Size  Location     Type
  4945 ;;  idx             1    0[COMRAM] unsigned char 
  4946 ;; Return value:  Size  Location     Type
  4947 ;;                  1    wreg      void 
  4948 ;; Registers used:
  4949 ;;		wreg, fsr2l, fsr2h, status,2, status,0, prodl, prodh, cstack
  4950 ;; Tracked objects:
  4951 ;;		On entry : 0/0
  4952 ;;		On exit  : 0/0
  4953 ;;		Unchanged: 0/0
  4954 ;; Data sizes:     COMRAM   BANK0   BANK1   BANK2   BANK3   BANK4   BANK5
  4955 ;;      Params:         0       0       0       0       0       0       0
  4956 ;;      Locals:         1       0       0       0       0       0       0
  4957 ;;      Temps:          0       0       0       0       0       0       0
  4958 ;;      Totals:         1       0       0       0       0       0       0
  4959 ;;Total ram usage:        1 bytes
  4960 ;; Hardware stack levels used:    1
  4961 ;; Hardware stack levels required when called:    1
  4962 ;; This function calls:
  4963 ;;		_um_2
  4964 ;;		_zero_2
  4965 ;; This function is called by:
  4966 ;;		_AppTimer1ms
  4967 ;; This function uses a non-reentrant model
  4968 ;;
  4969                           
  4970                           	psect	text28
  4971  000FF0                     __ptext28:
  4972                           	opt stack 0
  4973  000FF0                     _SendBuffCh2:
  4974                           	opt stack 21
  4975                           
  4976                           ;incstack = 0
  4977                           ;SendBuffCh2@idx stored from wreg
  4978  000FF0  6E01               	movwf	SendBuffCh2@idx,c
  4979                           
  4980                           ;app.c: 245: if( (G2[idx] & 64) > 0) um_2();else zero_2();
  4981  000FF2  5001               	movf	SendBuffCh2@idx,w,c
  4982  000FF4  0D01               	mullw	1
  4983  000FF6  0E80               	movlw	low _G2
  4984  000FF8  24F3               	addwf	prodl,w,c
  4985  000FFA  6ED9               	movwf	fsr2l,c
  4986  000FFC  0E02               	movlw	high _G2
  4987  000FFE  20F4               	addwfc	prodh,w,c
  4988  001000  6EDA               	movwf	fsr2h,c
  4989  001002  0102               	movlb	2	; () banked
  4990  001004  ACDF               	btfss	indf2,6,c
  4991  001006  D003               	goto	i2l3123
  4992                           
  4993                           ; BSR set to: 2
  4994  001008  ECDD  F00E         	call	_um_2	;wreg free
  4995  00100C  D002               	goto	i2l3125
  4996  00100E                     i2l3123:
  4997  00100E  EC4F  F00F         	call	_zero_2	;wreg free
  4998  001012                     i2l3125:
  4999                           
  5000                           ;app.c: 246: if( (G2[idx] & 128) > 0) um_2();else zero_2();
  5001  001012  5001               	movf	SendBuffCh2@idx,w,c
  5002  001014  0D01               	mullw	1
  5003  001016  0E80               	movlw	low _G2
  5004  001018  24F3               	addwf	prodl,w,c
  5005  00101A  6ED9               	movwf	fsr2l,c
  5006  00101C  0E02               	movlw	high _G2
  5007  00101E  20F4               	addwfc	prodh,w,c
  5008  001020  6EDA               	movwf	fsr2h,c
  5009  001022  0102               	movlb	2	; () banked
  5010  001024  AEDF               	btfss	indf2,7,c
  5011  001026  D003               	goto	i2l3129
  5012                           
  5013                           ; BSR set to: 2
  5014  001028  ECDD  F00E         	call	_um_2	;wreg free
  5015  00102C  D002               	goto	i2l3131
  5016  00102E                     i2l3129:
  5017  00102E  EC4F  F00F         	call	_zero_2	;wreg free
  5018  001032                     i2l3131:
  5019                           
  5020                           ;app.c: 247: if( (G2[idx] & 32) > 0) um_2();else zero_2();
  5021  001032  5001               	movf	SendBuffCh2@idx,w,c
  5022  001034  0D01               	mullw	1
  5023  001036  0E80               	movlw	low _G2
  5024  001038  24F3               	addwf	prodl,w,c
  5025  00103A  6ED9               	movwf	fsr2l,c
  5026  00103C  0E02               	movlw	high _G2
  5027  00103E  20F4               	addwfc	prodh,w,c
  5028  001040  6EDA               	movwf	fsr2h,c
  5029  001042  0102               	movlb	2	; () banked
  5030  001044  AADF               	btfss	indf2,5,c
  5031  001046  D003               	goto	i2l3135
  5032                           
  5033                           ; BSR set to: 2
  5034  001048  ECDD  F00E         	call	_um_2	;wreg free
  5035  00104C  D002               	goto	i2l3137
  5036  00104E                     i2l3135:
  5037  00104E  EC4F  F00F         	call	_zero_2	;wreg free
  5038  001052                     i2l3137:
  5039                           
  5040                           ;app.c: 248: if( (G2[idx] & 16) > 0) um_2();else zero_2();
  5041  001052  5001               	movf	SendBuffCh2@idx,w,c
  5042  001054  0D01               	mullw	1
  5043  001056  0E80               	movlw	low _G2
  5044  001058  24F3               	addwf	prodl,w,c
  5045  00105A  6ED9               	movwf	fsr2l,c
  5046  00105C  0E02               	movlw	high _G2
  5047  00105E  20F4               	addwfc	prodh,w,c
  5048  001060  6EDA               	movwf	fsr2h,c
  5049  001062  0102               	movlb	2	; () banked
  5050  001064  A8DF               	btfss	indf2,4,c
  5051  001066  D003               	goto	i2l3141
  5052                           
  5053                           ; BSR set to: 2
  5054  001068  ECDD  F00E         	call	_um_2	;wreg free
  5055  00106C  D002               	goto	i2l3143
  5056  00106E                     i2l3141:
  5057  00106E  EC4F  F00F         	call	_zero_2	;wreg free
  5058  001072                     i2l3143:
  5059                           
  5060                           ;app.c: 249: if( (G2[idx] & 8) > 0) um_2();else zero_2();
  5061  001072  5001               	movf	SendBuffCh2@idx,w,c
  5062  001074  0D01               	mullw	1
  5063  001076  0E80               	movlw	low _G2
  5064  001078  24F3               	addwf	prodl,w,c
  5065  00107A  6ED9               	movwf	fsr2l,c
  5066  00107C  0E02               	movlw	high _G2
  5067  00107E  20F4               	addwfc	prodh,w,c
  5068  001080  6EDA               	movwf	fsr2h,c
  5069  001082  0102               	movlb	2	; () banked
  5070  001084  A6DF               	btfss	indf2,3,c
  5071  001086  D003               	goto	i2l3147
  5072                           
  5073                           ; BSR set to: 2
  5074  001088  ECDD  F00E         	call	_um_2	;wreg free
  5075  00108C  D002               	goto	i2l3149
  5076  00108E                     i2l3147:
  5077  00108E  EC4F  F00F         	call	_zero_2	;wreg free
  5078  001092                     i2l3149:
  5079                           
  5080                           ;app.c: 250: if( (G2[idx] & 4) > 0) um_2();else zero_2();
  5081  001092  5001               	movf	SendBuffCh2@idx,w,c
  5082  001094  0D01               	mullw	1
  5083  001096  0E80               	movlw	low _G2
  5084  001098  24F3               	addwf	prodl,w,c
  5085  00109A  6ED9               	movwf	fsr2l,c
  5086  00109C  0E02               	movlw	high _G2
  5087  00109E  20F4               	addwfc	prodh,w,c
  5088  0010A0  6EDA               	movwf	fsr2h,c
  5089  0010A2  0102               	movlb	2	; () banked
  5090  0010A4  A4DF               	btfss	indf2,2,c
  5091  0010A6  D003               	goto	i2l3153
  5092                           
  5093                           ; BSR set to: 2
  5094  0010A8  ECDD  F00E         	call	_um_2	;wreg free
  5095  0010AC  D002               	goto	i2l3155
  5096  0010AE                     i2l3153:
  5097  0010AE  EC4F  F00F         	call	_zero_2	;wreg free
  5098  0010B2                     i2l3155:
  5099                           
  5100                           ;app.c: 251: if( (G2[idx] & 2) > 0) um_2();else zero_2();
  5101  0010B2  5001               	movf	SendBuffCh2@idx,w,c
  5102  0010B4  0D01               	mullw	1
  5103  0010B6  0E80               	movlw	low _G2
  5104  0010B8  24F3               	addwf	prodl,w,c
  5105  0010BA  6ED9               	movwf	fsr2l,c
  5106  0010BC  0E02               	movlw	high _G2
  5107  0010BE  20F4               	addwfc	prodh,w,c
  5108  0010C0  6EDA               	movwf	fsr2h,c
  5109  0010C2  0102               	movlb	2	; () banked
  5110  0010C4  A2DF               	btfss	indf2,1,c
  5111  0010C6  D003               	goto	i2l3159
  5112                           
  5113                           ; BSR set to: 2
  5114  0010C8  ECDD  F00E         	call	_um_2	;wreg free
  5115  0010CC  D002               	goto	i2l3161
  5116  0010CE                     i2l3159:
  5117  0010CE  EC4F  F00F         	call	_zero_2	;wreg free
  5118  0010D2                     i2l3161:
  5119                           
  5120                           ;app.c: 252: if( (G2[idx] & 1) > 0) um_2();else zero_2();
  5121  0010D2  5001               	movf	SendBuffCh2@idx,w,c
  5122  0010D4  0D01               	mullw	1
  5123  0010D6  0E80               	movlw	low _G2
  5124  0010D8  24F3               	addwf	prodl,w,c
  5125  0010DA  6ED9               	movwf	fsr2l,c
  5126  0010DC  0E02               	movlw	high _G2
  5127  0010DE  20F4               	addwfc	prodh,w,c
  5128  0010E0  6EDA               	movwf	fsr2h,c
  5129  0010E2  0102               	movlb	2	; () banked
  5130  0010E4  A0DF               	btfss	indf2,0,c
  5131  0010E6  D003               	goto	i2l3165
  5132                           
  5133                           ; BSR set to: 2
  5134  0010E8  ECDD  F00E         	call	_um_2	;wreg free
  5135  0010EC  D002               	goto	i2l3167
  5136  0010EE                     i2l3165:
  5137  0010EE  EC4F  F00F         	call	_zero_2	;wreg free
  5138  0010F2                     i2l3167:
  5139                           
  5140                           ;app.c: 254: if( (R2[idx] & 128) > 0) um_2();else zero_2();
  5141  0010F2  5001               	movf	SendBuffCh2@idx,w,c
  5142  0010F4  0D01               	mullw	1
  5143  0010F6  0EC0               	movlw	low _R2
  5144  0010F8  24F3               	addwf	prodl,w,c
  5145  0010FA  6ED9               	movwf	fsr2l,c
  5146  0010FC  0E02               	movlw	high _R2
  5147  0010FE  20F4               	addwfc	prodh,w,c
  5148  001100  6EDA               	movwf	fsr2h,c
  5149  001102  0102               	movlb	2	; () banked
  5150  001104  AEDF               	btfss	indf2,7,c
  5151  001106  D003               	goto	i2l3171
  5152                           
  5153                           ; BSR set to: 2
  5154  001108  ECDD  F00E         	call	_um_2	;wreg free
  5155  00110C  D002               	goto	i2l3173
  5156  00110E                     i2l3171:
  5157  00110E  EC4F  F00F         	call	_zero_2	;wreg free
  5158  001112                     i2l3173:
  5159                           
  5160                           ;app.c: 255: if( (R2[idx] & 64) > 0) um_2();else zero_2();
  5161  001112  5001               	movf	SendBuffCh2@idx,w,c
  5162  001114  0D01               	mullw	1
  5163  001116  0EC0               	movlw	low _R2
  5164  001118  24F3               	addwf	prodl,w,c
  5165  00111A  6ED9               	movwf	fsr2l,c
  5166  00111C  0E02               	movlw	high _R2
  5167  00111E  20F4               	addwfc	prodh,w,c
  5168  001120  6EDA               	movwf	fsr2h,c
  5169  001122  0102               	movlb	2	; () banked
  5170  001124  ACDF               	btfss	indf2,6,c
  5171  001126  D003               	goto	i2l3177
  5172                           
  5173                           ; BSR set to: 2
  5174  001128  ECDD  F00E         	call	_um_2	;wreg free
  5175  00112C  D002               	goto	i2l3179
  5176  00112E                     i2l3177:
  5177  00112E  EC4F  F00F         	call	_zero_2	;wreg free
  5178  001132                     i2l3179:
  5179                           
  5180                           ;app.c: 256: if( (R2[idx] & 32) > 0) um_2();else zero_2();
  5181  001132  5001               	movf	SendBuffCh2@idx,w,c
  5182  001134  0D01               	mullw	1
  5183  001136  0EC0               	movlw	low _R2
  5184  001138  24F3               	addwf	prodl,w,c
  5185  00113A  6ED9               	movwf	fsr2l,c
  5186  00113C  0E02               	movlw	high _R2
  5187  00113E  20F4               	addwfc	prodh,w,c
  5188  001140  6EDA               	movwf	fsr2h,c
  5189  001142  0102               	movlb	2	; () banked
  5190  001144  AADF               	btfss	indf2,5,c
  5191  001146  D003               	goto	i2l3183
  5192                           
  5193                           ; BSR set to: 2
  5194  001148  ECDD  F00E         	call	_um_2	;wreg free
  5195  00114C  D002               	goto	i2l3185
  5196  00114E                     i2l3183:
  5197  00114E  EC4F  F00F         	call	_zero_2	;wreg free
  5198  001152                     i2l3185:
  5199                           
  5200                           ;app.c: 257: if( (R2[idx] & 16) > 0) um_2();else zero_2();
  5201  001152  5001               	movf	SendBuffCh2@idx,w,c
  5202  001154  0D01               	mullw	1
  5203  001156  0EC0               	movlw	low _R2
  5204  001158  24F3               	addwf	prodl,w,c
  5205  00115A  6ED9               	movwf	fsr2l,c
  5206  00115C  0E02               	movlw	high _R2
  5207  00115E  20F4               	addwfc	prodh,w,c
  5208  001160  6EDA               	movwf	fsr2h,c
  5209  001162  0102               	movlb	2	; () banked
  5210  001164  A8DF               	btfss	indf2,4,c
  5211  001166  D003               	goto	i2l3189
  5212                           
  5213                           ; BSR set to: 2
  5214  001168  ECDD  F00E         	call	_um_2	;wreg free
  5215  00116C  D002               	goto	i2l3191
  5216  00116E                     i2l3189:
  5217  00116E  EC4F  F00F         	call	_zero_2	;wreg free
  5218  001172                     i2l3191:
  5219                           
  5220                           ;app.c: 258: if( (R2[idx] & 8) > 0) um_2();else zero_2();
  5221  001172  5001               	movf	SendBuffCh2@idx,w,c
  5222  001174  0D01               	mullw	1
  5223  001176  0EC0               	movlw	low _R2
  5224  001178  24F3               	addwf	prodl,w,c
  5225  00117A  6ED9               	movwf	fsr2l,c
  5226  00117C  0E02               	movlw	high _R2
  5227  00117E  20F4               	addwfc	prodh,w,c
  5228  001180  6EDA               	movwf	fsr2h,c
  5229  001182  0102               	movlb	2	; () banked
  5230  001184  A6DF               	btfss	indf2,3,c
  5231  001186  D003               	goto	i2l3195
  5232                           
  5233                           ; BSR set to: 2
  5234  001188  ECDD  F00E         	call	_um_2	;wreg free
  5235  00118C  D002               	goto	i2l3197
  5236  00118E                     i2l3195:
  5237  00118E  EC4F  F00F         	call	_zero_2	;wreg free
  5238  001192                     i2l3197:
  5239                           
  5240                           ;app.c: 259: if( (R2[idx] & 4) > 0) um_2();else zero_2();
  5241  001192  5001               	movf	SendBuffCh2@idx,w,c
  5242  001194  0D01               	mullw	1
  5243  001196  0EC0               	movlw	low _R2
  5244  001198  24F3               	addwf	prodl,w,c
  5245  00119A  6ED9               	movwf	fsr2l,c
  5246  00119C  0E02               	movlw	high _R2
  5247  00119E  20F4               	addwfc	prodh,w,c
  5248  0011A0  6EDA               	movwf	fsr2h,c
  5249  0011A2  0102               	movlb	2	; () banked
  5250  0011A4  A4DF               	btfss	indf2,2,c
  5251  0011A6  D003               	goto	i2l3201
  5252                           
  5253                           ; BSR set to: 2
  5254  0011A8  ECDD  F00E         	call	_um_2	;wreg free
  5255  0011AC  D002               	goto	i2l3203
  5256  0011AE                     i2l3201:
  5257  0011AE  EC4F  F00F         	call	_zero_2	;wreg free
  5258  0011B2                     i2l3203:
  5259                           
  5260                           ;app.c: 260: if( (R2[idx] & 2) > 0) um_2();else zero_2();
  5261  0011B2  5001               	movf	SendBuffCh2@idx,w,c
  5262  0011B4  0D01               	mullw	1
  5263  0011B6  0EC0               	movlw	low _R2
  5264  0011B8  24F3               	addwf	prodl,w,c
  5265  0011BA  6ED9               	movwf	fsr2l,c
  5266  0011BC  0E02               	movlw	high _R2
  5267  0011BE  20F4               	addwfc	prodh,w,c
  5268  0011C0  6EDA               	movwf	fsr2h,c
  5269  0011C2  0102               	movlb	2	; () banked
  5270  0011C4  A2DF               	btfss	indf2,1,c
  5271  0011C6  D003               	goto	i2l3207
  5272                           
  5273                           ; BSR set to: 2
  5274  0011C8  ECDD  F00E         	call	_um_2	;wreg free
  5275  0011CC  D002               	goto	i2l3209
  5276  0011CE                     i2l3207:
  5277  0011CE  EC4F  F00F         	call	_zero_2	;wreg free
  5278  0011D2                     i2l3209:
  5279                           
  5280                           ;app.c: 261: if( (R2[idx] & 1) > 0) um_2();else zero_2();
  5281  0011D2  5001               	movf	SendBuffCh2@idx,w,c
  5282  0011D4  0D01               	mullw	1
  5283  0011D6  0EC0               	movlw	low _R2
  5284  0011D8  24F3               	addwf	prodl,w,c
  5285  0011DA  6ED9               	movwf	fsr2l,c
  5286  0011DC  0E02               	movlw	high _R2
  5287  0011DE  20F4               	addwfc	prodh,w,c
  5288  0011E0  6EDA               	movwf	fsr2h,c
  5289  0011E2  0102               	movlb	2	; () banked
  5290  0011E4  A0DF               	btfss	indf2,0,c
  5291  0011E6  D003               	goto	i2l3213
  5292                           
  5293                           ; BSR set to: 2
  5294  0011E8  ECDD  F00E         	call	_um_2	;wreg free
  5295  0011EC  D002               	goto	i2l3215
  5296  0011EE                     i2l3213:
  5297  0011EE  EC4F  F00F         	call	_zero_2	;wreg free
  5298  0011F2                     i2l3215:
  5299                           
  5300                           ;app.c: 263: if( (B2[idx] & 128) > 0) um_2();else zero_2();
  5301  0011F2  5001               	movf	SendBuffCh2@idx,w,c
  5302  0011F4  0D01               	mullw	1
  5303  0011F6  0E40               	movlw	low _B2
  5304  0011F8  24F3               	addwf	prodl,w,c
  5305  0011FA  6ED9               	movwf	fsr2l,c
  5306  0011FC  0E02               	movlw	high _B2
  5307  0011FE  20F4               	addwfc	prodh,w,c
  5308  001200  6EDA               	movwf	fsr2h,c
  5309  001202  0102               	movlb	2	; () banked
  5310  001204  AEDF               	btfss	indf2,7,c
  5311  001206  D003               	goto	i2l3219
  5312                           
  5313                           ; BSR set to: 2
  5314  001208  ECDD  F00E         	call	_um_2	;wreg free
  5315  00120C  D002               	goto	i2l3221
  5316  00120E                     i2l3219:
  5317  00120E  EC4F  F00F         	call	_zero_2	;wreg free
  5318  001212                     i2l3221:
  5319                           
  5320                           ;app.c: 264: if( (B2[idx] & 64) > 0) um_2();else zero_2();
  5321  001212  5001               	movf	SendBuffCh2@idx,w,c
  5322  001214  0D01               	mullw	1
  5323  001216  0E40               	movlw	low _B2
  5324  001218  24F3               	addwf	prodl,w,c
  5325  00121A  6ED9               	movwf	fsr2l,c
  5326  00121C  0E02               	movlw	high _B2
  5327  00121E  20F4               	addwfc	prodh,w,c
  5328  001220  6EDA               	movwf	fsr2h,c
  5329  001222  0102               	movlb	2	; () banked
  5330  001224  ACDF               	btfss	indf2,6,c
  5331  001226  D003               	goto	i2l3225
  5332                           
  5333                           ; BSR set to: 2
  5334  001228  ECDD  F00E         	call	_um_2	;wreg free
  5335  00122C  D002               	goto	i2l3227
  5336  00122E                     i2l3225:
  5337  00122E  EC4F  F00F         	call	_zero_2	;wreg free
  5338  001232                     i2l3227:
  5339                           
  5340                           ;app.c: 265: if( (B2[idx] & 32) > 0) um_2();else zero_2();
  5341  001232  5001               	movf	SendBuffCh2@idx,w,c
  5342  001234  0D01               	mullw	1
  5343  001236  0E40               	movlw	low _B2
  5344  001238  24F3               	addwf	prodl,w,c
  5345  00123A  6ED9               	movwf	fsr2l,c
  5346  00123C  0E02               	movlw	high _B2
  5347  00123E  20F4               	addwfc	prodh,w,c
  5348  001240  6EDA               	movwf	fsr2h,c
  5349  001242  0102               	movlb	2	; () banked
  5350  001244  AADF               	btfss	indf2,5,c
  5351  001246  D003               	goto	i2l3231
  5352                           
  5353                           ; BSR set to: 2
  5354  001248  ECDD  F00E         	call	_um_2	;wreg free
  5355  00124C  D002               	goto	i2l3233
  5356  00124E                     i2l3231:
  5357  00124E  EC4F  F00F         	call	_zero_2	;wreg free
  5358  001252                     i2l3233:
  5359                           
  5360                           ;app.c: 266: if( (B2[idx] & 16) > 0) um_2();else zero_2();
  5361  001252  5001               	movf	SendBuffCh2@idx,w,c
  5362  001254  0D01               	mullw	1
  5363  001256  0E40               	movlw	low _B2
  5364  001258  24F3               	addwf	prodl,w,c
  5365  00125A  6ED9               	movwf	fsr2l,c
  5366  00125C  0E02               	movlw	high _B2
  5367  00125E  20F4               	addwfc	prodh,w,c
  5368  001260  6EDA               	movwf	fsr2h,c
  5369  001262  0102               	movlb	2	; () banked
  5370  001264  A8DF               	btfss	indf2,4,c
  5371  001266  D003               	goto	i2l3237
  5372                           
  5373                           ; BSR set to: 2
  5374  001268  ECDD  F00E         	call	_um_2	;wreg free
  5375  00126C  D002               	goto	i2l3239
  5376  00126E                     i2l3237:
  5377  00126E  EC4F  F00F         	call	_zero_2	;wreg free
  5378  001272                     i2l3239:
  5379                           
  5380                           ;app.c: 267: if( (B2[idx] & 8) > 0) um_2();else zero_2();
  5381  001272  5001               	movf	SendBuffCh2@idx,w,c
  5382  001274  0D01               	mullw	1
  5383  001276  0E40               	movlw	low _B2
  5384  001278  24F3               	addwf	prodl,w,c
  5385  00127A  6ED9               	movwf	fsr2l,c
  5386  00127C  0E02               	movlw	high _B2
  5387  00127E  20F4               	addwfc	prodh,w,c
  5388  001280  6EDA               	movwf	fsr2h,c
  5389  001282  0102               	movlb	2	; () banked
  5390  001284  A6DF               	btfss	indf2,3,c
  5391  001286  D003               	goto	i2l3243
  5392                           
  5393                           ; BSR set to: 2
  5394  001288  ECDD  F00E         	call	_um_2	;wreg free
  5395  00128C  D002               	goto	i2l3245
  5396  00128E                     i2l3243:
  5397  00128E  EC4F  F00F         	call	_zero_2	;wreg free
  5398  001292                     i2l3245:
  5399                           
  5400                           ;app.c: 268: if( (B2[idx] & 4) > 0) um_2();else zero_2();
  5401  001292  5001               	movf	SendBuffCh2@idx,w,c
  5402  001294  0D01               	mullw	1
  5403  001296  0E40               	movlw	low _B2
  5404  001298  24F3               	addwf	prodl,w,c
  5405  00129A  6ED9               	movwf	fsr2l,c
  5406  00129C  0E02               	movlw	high _B2
  5407  00129E  20F4               	addwfc	prodh,w,c
  5408  0012A0  6EDA               	movwf	fsr2h,c
  5409  0012A2  0102               	movlb	2	; () banked
  5410  0012A4  A4DF               	btfss	indf2,2,c
  5411  0012A6  D003               	goto	i2l3249
  5412                           
  5413                           ; BSR set to: 2
  5414  0012A8  ECDD  F00E         	call	_um_2	;wreg free
  5415  0012AC  D002               	goto	i2l3251
  5416  0012AE                     i2l3249:
  5417  0012AE  EC4F  F00F         	call	_zero_2	;wreg free
  5418  0012B2                     i2l3251:
  5419                           
  5420                           ;app.c: 269: if( (B2[idx] & 2) > 0) um_2();else zero_2();
  5421  0012B2  5001               	movf	SendBuffCh2@idx,w,c
  5422  0012B4  0D01               	mullw	1
  5423  0012B6  0E40               	movlw	low _B2
  5424  0012B8  24F3               	addwf	prodl,w,c
  5425  0012BA  6ED9               	movwf	fsr2l,c
  5426  0012BC  0E02               	movlw	high _B2
  5427  0012BE  20F4               	addwfc	prodh,w,c
  5428  0012C0  6EDA               	movwf	fsr2h,c
  5429  0012C2  0102               	movlb	2	; () banked
  5430  0012C4  A2DF               	btfss	indf2,1,c
  5431  0012C6  D003               	goto	i2l3255
  5432                           
  5433                           ; BSR set to: 2
  5434  0012C8  ECDD  F00E         	call	_um_2	;wreg free
  5435  0012CC  D002               	goto	i2l3257
  5436  0012CE                     i2l3255:
  5437  0012CE  EC4F  F00F         	call	_zero_2	;wreg free
  5438  0012D2                     i2l3257:
  5439                           
  5440                           ;app.c: 270: if( (B2[idx] & 1) > 0) um_2();else zero_2();
  5441  0012D2  5001               	movf	SendBuffCh2@idx,w,c
  5442  0012D4  0D01               	mullw	1
  5443  0012D6  0E40               	movlw	low _B2
  5444  0012D8  24F3               	addwf	prodl,w,c
  5445  0012DA  6ED9               	movwf	fsr2l,c
  5446  0012DC  0E02               	movlw	high _B2
  5447  0012DE  20F4               	addwfc	prodh,w,c
  5448  0012E0  6EDA               	movwf	fsr2h,c
  5449  0012E2  0102               	movlb	2	; () banked
  5450  0012E4  A0DF               	btfss	indf2,0,c
  5451  0012E6  D003               	goto	i2l3261
  5452                           
  5453                           ; BSR set to: 2
  5454  0012E8  ECDD  F00E         	call	_um_2	;wreg free
  5455  0012EC  0012               	return	
  5456  0012EE                     i2l3261:
  5457  0012EE  EC4F  F00F         	call	_zero_2	;wreg free
  5458  0012F2  0012               	return	
  5459  0012F4                     __end_of_SendBuffCh2:
  5460                           	opt stack 0
  5461                           pclatu	equ	0xFFB
  5462                           pclath	equ	0xFFA
  5463                           tblptru	equ	0xFF8
  5464                           tblptrh	equ	0xFF7
  5465                           tblptrl	equ	0xFF6
  5466                           tablat	equ	0xFF5
  5467                           prodh	equ	0xFF4
  5468                           prodl	equ	0xFF3
  5469                           intcon	equ	0xFF2
  5470                           intcon2	equ	0xFF1
  5471                           postinc0	equ	0xFEE
  5472                           fsr0h	equ	0xFEA
  5473                           fsr0l	equ	0xFE9
  5474                           wreg	equ	0xFE8
  5475                           postdec1	equ	0xFE5
  5476                           fsr1h	equ	0xFE2
  5477                           fsr1l	equ	0xFE1
  5478                           indf2	equ	0xFDF
  5479                           fsr2h	equ	0xFDA
  5480                           fsr2l	equ	0xFD9
  5481                           status	equ	0xFD8
  5482                           
  5483 ;; *************** function _zero_2 *****************
  5484 ;; Defined at:
  5485 ;;		line 149 in file "mcc_generated_files/app.c"
  5486 ;; Parameters:    Size  Location     Type
  5487 ;;		None
  5488 ;; Auto vars:     Size  Location     Type
  5489 ;;		None
  5490 ;; Return value:  Size  Location     Type
  5491 ;;                  1    wreg      void 
  5492 ;; Registers used:
  5493 ;;		None
  5494 ;; Tracked objects:
  5495 ;;		On entry : 0/0
  5496 ;;		On exit  : 0/0
  5497 ;;		Unchanged: 0/0
  5498 ;; Data sizes:     COMRAM   BANK0   BANK1   BANK2   BANK3   BANK4   BANK5
  5499 ;;      Params:         0       0       0       0       0       0       0
  5500 ;;      Locals:         0       0       0       0       0       0       0
  5501 ;;      Temps:          0       0       0       0       0       0       0
  5502 ;;      Totals:         0       0       0       0       0       0       0
  5503 ;;Total ram usage:        0 bytes
  5504 ;; Hardware stack levels used:    1
  5505 ;; This function calls:
  5506 ;;		Nothing
  5507 ;; This function is called by:
  5508 ;;		_SendBuffCh2
  5509 ;; This function uses a non-reentrant model
  5510 ;;
  5511                           
  5512                           	psect	text29
  5513  001E9E                     __ptext29:
  5514                           	opt stack 0
  5515  001E9E                     _zero_2:
  5516                           	opt stack 21
  5517                           
  5518                           ;incstack = 0
  5519  001E9E  848A               	bsf	3978,2,c	;volatile
  5520  001EA0  F000               	nop	
  5521  001EA2  F000               	nop	
  5522  001EA4  F000               	nop	
  5523  001EA6  F000               	nop	
  5524  001EA8  F000               	nop	
  5525  001EAA  F000               	nop	
  5526                           
  5527                           ;app.c: 150: LATB2 = 0; __nop();__nop();__nop();__nop();__nop();__nop(); }
  5528  001EAC  948A               	bcf	3978,2,c	;volatile
  5529  001EAE  F000               	nop	
  5530  001EB0  F000               	nop	
  5531  001EB2  F000               	nop	
  5532  001EB4  F000               	nop	
  5533  001EB6  F000               	nop	
  5534  001EB8  F000               	nop	
  5535  001EBA  0012               	return		;funcret
  5536  001EBC                     __end_of_zero_2:
  5537                           	opt stack 0
  5538                           pclatu	equ	0xFFB
  5539                           pclath	equ	0xFFA
  5540                           tblptru	equ	0xFF8
  5541                           tblptrh	equ	0xFF7
  5542                           tblptrl	equ	0xFF6
  5543                           tablat	equ	0xFF5
  5544                           prodh	equ	0xFF4
  5545                           prodl	equ	0xFF3
  5546                           intcon	equ	0xFF2
  5547                           intcon2	equ	0xFF1
  5548                           postinc0	equ	0xFEE
  5549                           fsr0h	equ	0xFEA
  5550                           fsr0l	equ	0xFE9
  5551                           wreg	equ	0xFE8
  5552                           postdec1	equ	0xFE5
  5553                           fsr1h	equ	0xFE2
  5554                           fsr1l	equ	0xFE1
  5555                           indf2	equ	0xFDF
  5556                           fsr2h	equ	0xFDA
  5557                           fsr2l	equ	0xFD9
  5558                           status	equ	0xFD8
  5559                           
  5560 ;; *************** function _um_2 *****************
  5561 ;; Defined at:
  5562 ;;		line 145 in file "mcc_generated_files/app.c"
  5563 ;; Parameters:    Size  Location     Type
  5564 ;;		None
  5565 ;; Auto vars:     Size  Location     Type
  5566 ;;		None
  5567 ;; Return value:  Size  Location     Type
  5568 ;;                  1    wreg      void 
  5569 ;; Registers used:
  5570 ;;		None
  5571 ;; Tracked objects:
  5572 ;;		On entry : 0/0
  5573 ;;		On exit  : 0/0
  5574 ;;		Unchanged: 0/0
  5575 ;; Data sizes:     COMRAM   BANK0   BANK1   BANK2   BANK3   BANK4   BANK5
  5576 ;;      Params:         0       0       0       0       0       0       0
  5577 ;;      Locals:         0       0       0       0       0       0       0
  5578 ;;      Temps:          0       0       0       0       0       0       0
  5579 ;;      Totals:         0       0       0       0       0       0       0
  5580 ;;Total ram usage:        0 bytes
  5581 ;; Hardware stack levels used:    1
  5582 ;; This function calls:
  5583 ;;		Nothing
  5584 ;; This function is called by:
  5585 ;;		_SendBuffCh2
  5586 ;; This function uses a non-reentrant model
  5587 ;;
  5588                           
  5589                           	psect	text30
  5590  001DBA                     __ptext30:
  5591                           	opt stack 0
  5592  001DBA                     _um_2:
  5593                           	opt stack 21
  5594                           
  5595                           ;incstack = 0
  5596  001DBA  848A               	bsf	3978,2,c	;volatile
  5597  001DBC  F000               	nop	
  5598  001DBE  F000               	nop	
  5599  001DC0  F000               	nop	
  5600  001DC2  F000               	nop	
  5601  001DC4  F000               	nop	
  5602  001DC6  F000               	nop	
  5603                           
  5604                           ;app.c: 146: __nop();__nop();__nop();__nop();__nop();__nop();
  5605  001DC8  F000               	nop	
  5606  001DCA  F000               	nop	
  5607  001DCC  F000               	nop	
  5608  001DCE  F000               	nop	
  5609  001DD0  F000               	nop	
  5610  001DD2  F000               	nop	
  5611                           
  5612                           ;app.c: 147: __nop();__nop();__nop(); LATB2 = 0;
  5613  001DD4  F000               	nop	
  5614  001DD6  F000               	nop	
  5615  001DD8  F000               	nop	
  5616  001DDA  948A               	bcf	3978,2,c	;volatile
  5617  001DDC  0012               	return		;funcret
  5618  001DDE                     __end_of_um_2:
  5619                           	opt stack 0
  5620                           pclatu	equ	0xFFB
  5621                           pclath	equ	0xFFA
  5622                           tblptru	equ	0xFF8
  5623                           tblptrh	equ	0xFF7
  5624                           tblptrl	equ	0xFF6
  5625                           tablat	equ	0xFF5
  5626                           prodh	equ	0xFF4
  5627                           prodl	equ	0xFF3
  5628                           intcon	equ	0xFF2
  5629                           intcon2	equ	0xFF1
  5630                           postinc0	equ	0xFEE
  5631                           fsr0h	equ	0xFEA
  5632                           fsr0l	equ	0xFE9
  5633                           wreg	equ	0xFE8
  5634                           postdec1	equ	0xFE5
  5635                           fsr1h	equ	0xFE2
  5636                           fsr1l	equ	0xFE1
  5637                           indf2	equ	0xFDF
  5638                           fsr2h	equ	0xFDA
  5639                           fsr2l	equ	0xFD9
  5640                           status	equ	0xFD8
  5641                           
  5642 ;; *************** function _SendBuffCh1 *****************
  5643 ;; Defined at:
  5644 ;;		line 214 in file "mcc_generated_files/app.c"
  5645 ;; Parameters:    Size  Location     Type
  5646 ;;  idx             1    wreg     unsigned char 
  5647 ;; Auto vars:     Size  Location     Type
  5648 ;;  idx             1    0[COMRAM] unsigned char 
  5649 ;; Return value:  Size  Location     Type
  5650 ;;                  1    wreg      void 
  5651 ;; Registers used:
  5652 ;;		wreg, fsr2l, fsr2h, status,2, status,0, prodl, prodh, cstack
  5653 ;; Tracked objects:
  5654 ;;		On entry : 0/0
  5655 ;;		On exit  : 0/0
  5656 ;;		Unchanged: 0/0
  5657 ;; Data sizes:     COMRAM   BANK0   BANK1   BANK2   BANK3   BANK4   BANK5
  5658 ;;      Params:         0       0       0       0       0       0       0
  5659 ;;      Locals:         1       0       0       0       0       0       0
  5660 ;;      Temps:          0       0       0       0       0       0       0
  5661 ;;      Totals:         1       0       0       0       0       0       0
  5662 ;;Total ram usage:        1 bytes
  5663 ;; Hardware stack levels used:    1
  5664 ;; Hardware stack levels required when called:    1
  5665 ;; This function calls:
  5666 ;;		_um_1
  5667 ;;		_zero_1
  5668 ;; This function is called by:
  5669 ;;		_AppTimer1ms
  5670 ;; This function uses a non-reentrant model
  5671 ;;
  5672                           
  5673                           	psect	text31
  5674  0012F4                     __ptext31:
  5675                           	opt stack 0
  5676  0012F4                     _SendBuffCh1:
  5677                           	opt stack 21
  5678                           
  5679                           ;incstack = 0
  5680                           ;SendBuffCh1@idx stored from wreg
  5681  0012F4  6E01               	movwf	SendBuffCh1@idx,c
  5682                           
  5683                           ;app.c: 216: if( (G1[idx] & 128) > 0) um_1();else zero_1();
  5684  0012F6  5001               	movf	SendBuffCh1@idx,w,c
  5685  0012F8  0D01               	mullw	1
  5686  0012FA  0E40               	movlw	low _G1
  5687  0012FC  24F3               	addwf	prodl,w,c
  5688  0012FE  6ED9               	movwf	fsr2l,c
  5689  001300  0E01               	movlw	high _G1
  5690  001302  20F4               	addwfc	prodh,w,c
  5691  001304  6EDA               	movwf	fsr2h,c
  5692  001306  0101               	movlb	1	; () banked
  5693  001308  AEDF               	btfss	indf2,7,c
  5694  00130A  D003               	goto	i2l2979
  5695                           
  5696                           ; BSR set to: 1
  5697  00130C  ECEF  F00E         	call	_um_1	;wreg free
  5698  001310  D002               	goto	i2l2981
  5699  001312                     i2l2979:
  5700  001312  EC5E  F00F         	call	_zero_1	;wreg free
  5701  001316                     i2l2981:
  5702                           
  5703                           ;app.c: 217: if( (G1[idx] & 64) > 0) um_1();else zero_1();
  5704  001316  5001               	movf	SendBuffCh1@idx,w,c
  5705  001318  0D01               	mullw	1
  5706  00131A  0E40               	movlw	low _G1
  5707  00131C  24F3               	addwf	prodl,w,c
  5708  00131E  6ED9               	movwf	fsr2l,c
  5709  001320  0E01               	movlw	high _G1
  5710  001322  20F4               	addwfc	prodh,w,c
  5711  001324  6EDA               	movwf	fsr2h,c
  5712  001326  0101               	movlb	1	; () banked
  5713  001328  ACDF               	btfss	indf2,6,c
  5714  00132A  D003               	goto	i2l2985
  5715                           
  5716                           ; BSR set to: 1
  5717  00132C  ECEF  F00E         	call	_um_1	;wreg free
  5718  001330  D002               	goto	i2l2987
  5719  001332                     i2l2985:
  5720  001332  EC5E  F00F         	call	_zero_1	;wreg free
  5721  001336                     i2l2987:
  5722                           
  5723                           ;app.c: 218: if( (G1[idx] & 32) > 0) um_1();else zero_1();
  5724  001336  5001               	movf	SendBuffCh1@idx,w,c
  5725  001338  0D01               	mullw	1
  5726  00133A  0E40               	movlw	low _G1
  5727  00133C  24F3               	addwf	prodl,w,c
  5728  00133E  6ED9               	movwf	fsr2l,c
  5729  001340  0E01               	movlw	high _G1
  5730  001342  20F4               	addwfc	prodh,w,c
  5731  001344  6EDA               	movwf	fsr2h,c
  5732  001346  0101               	movlb	1	; () banked
  5733  001348  AADF               	btfss	indf2,5,c
  5734  00134A  D003               	goto	i2l2991
  5735                           
  5736                           ; BSR set to: 1
  5737  00134C  ECEF  F00E         	call	_um_1	;wreg free
  5738  001350  D002               	goto	i2l2993
  5739  001352                     i2l2991:
  5740  001352  EC5E  F00F         	call	_zero_1	;wreg free
  5741  001356                     i2l2993:
  5742                           
  5743                           ;app.c: 219: if( (G1[idx] & 16) > 0) um_1();else zero_1();
  5744  001356  5001               	movf	SendBuffCh1@idx,w,c
  5745  001358  0D01               	mullw	1
  5746  00135A  0E40               	movlw	low _G1
  5747  00135C  24F3               	addwf	prodl,w,c
  5748  00135E  6ED9               	movwf	fsr2l,c
  5749  001360  0E01               	movlw	high _G1
  5750  001362  20F4               	addwfc	prodh,w,c
  5751  001364  6EDA               	movwf	fsr2h,c
  5752  001366  0101               	movlb	1	; () banked
  5753  001368  A8DF               	btfss	indf2,4,c
  5754  00136A  D003               	goto	i2l2997
  5755                           
  5756                           ; BSR set to: 1
  5757  00136C  ECEF  F00E         	call	_um_1	;wreg free
  5758  001370  D002               	goto	i2l2999
  5759  001372                     i2l2997:
  5760  001372  EC5E  F00F         	call	_zero_1	;wreg free
  5761  001376                     i2l2999:
  5762                           
  5763                           ;app.c: 220: if( (G1[idx] & 8) > 0) um_1();else zero_1();
  5764  001376  5001               	movf	SendBuffCh1@idx,w,c
  5765  001378  0D01               	mullw	1
  5766  00137A  0E40               	movlw	low _G1
  5767  00137C  24F3               	addwf	prodl,w,c
  5768  00137E  6ED9               	movwf	fsr2l,c
  5769  001380  0E01               	movlw	high _G1
  5770  001382  20F4               	addwfc	prodh,w,c
  5771  001384  6EDA               	movwf	fsr2h,c
  5772  001386  0101               	movlb	1	; () banked
  5773  001388  A6DF               	btfss	indf2,3,c
  5774  00138A  D003               	goto	i2l3003
  5775                           
  5776                           ; BSR set to: 1
  5777  00138C  ECEF  F00E         	call	_um_1	;wreg free
  5778  001390  D002               	goto	i2l3005
  5779  001392                     i2l3003:
  5780  001392  EC5E  F00F         	call	_zero_1	;wreg free
  5781  001396                     i2l3005:
  5782                           
  5783                           ;app.c: 221: if( (G1[idx] & 4) > 0) um_1();else zero_1();
  5784  001396  5001               	movf	SendBuffCh1@idx,w,c
  5785  001398  0D01               	mullw	1
  5786  00139A  0E40               	movlw	low _G1
  5787  00139C  24F3               	addwf	prodl,w,c
  5788  00139E  6ED9               	movwf	fsr2l,c
  5789  0013A0  0E01               	movlw	high _G1
  5790  0013A2  20F4               	addwfc	prodh,w,c
  5791  0013A4  6EDA               	movwf	fsr2h,c
  5792  0013A6  0101               	movlb	1	; () banked
  5793  0013A8  A4DF               	btfss	indf2,2,c
  5794  0013AA  D003               	goto	i2l3009
  5795                           
  5796                           ; BSR set to: 1
  5797  0013AC  ECEF  F00E         	call	_um_1	;wreg free
  5798  0013B0  D002               	goto	i2l3011
  5799  0013B2                     i2l3009:
  5800  0013B2  EC5E  F00F         	call	_zero_1	;wreg free
  5801  0013B6                     i2l3011:
  5802                           
  5803                           ;app.c: 222: if( (G1[idx] & 2) > 0) um_1();else zero_1();
  5804  0013B6  5001               	movf	SendBuffCh1@idx,w,c
  5805  0013B8  0D01               	mullw	1
  5806  0013BA  0E40               	movlw	low _G1
  5807  0013BC  24F3               	addwf	prodl,w,c
  5808  0013BE  6ED9               	movwf	fsr2l,c
  5809  0013C0  0E01               	movlw	high _G1
  5810  0013C2  20F4               	addwfc	prodh,w,c
  5811  0013C4  6EDA               	movwf	fsr2h,c
  5812  0013C6  0101               	movlb	1	; () banked
  5813  0013C8  A2DF               	btfss	indf2,1,c
  5814  0013CA  D003               	goto	i2l3015
  5815                           
  5816                           ; BSR set to: 1
  5817  0013CC  ECEF  F00E         	call	_um_1	;wreg free
  5818  0013D0  D002               	goto	i2l3017
  5819  0013D2                     i2l3015:
  5820  0013D2  EC5E  F00F         	call	_zero_1	;wreg free
  5821  0013D6                     i2l3017:
  5822                           
  5823                           ;app.c: 223: if( (G1[idx] & 1) > 0) um_1();else zero_1();
  5824  0013D6  5001               	movf	SendBuffCh1@idx,w,c
  5825  0013D8  0D01               	mullw	1
  5826  0013DA  0E40               	movlw	low _G1
  5827  0013DC  24F3               	addwf	prodl,w,c
  5828  0013DE  6ED9               	movwf	fsr2l,c
  5829  0013E0  0E01               	movlw	high _G1
  5830  0013E2  20F4               	addwfc	prodh,w,c
  5831  0013E4  6EDA               	movwf	fsr2h,c
  5832  0013E6  0101               	movlb	1	; () banked
  5833  0013E8  A0DF               	btfss	indf2,0,c
  5834  0013EA  D003               	goto	i2l3021
  5835                           
  5836                           ; BSR set to: 1
  5837  0013EC  ECEF  F00E         	call	_um_1	;wreg free
  5838  0013F0  D002               	goto	i2l3023
  5839  0013F2                     i2l3021:
  5840  0013F2  EC5E  F00F         	call	_zero_1	;wreg free
  5841  0013F6                     i2l3023:
  5842                           
  5843                           ;app.c: 225: if( (R1[idx] & 128) > 0) um_1();else zero_1();
  5844  0013F6  5001               	movf	SendBuffCh1@idx,w,c
  5845  0013F8  0D01               	mullw	1
  5846  0013FA  0E80               	movlw	low _R1
  5847  0013FC  24F3               	addwf	prodl,w,c
  5848  0013FE  6ED9               	movwf	fsr2l,c
  5849  001400  0E01               	movlw	high _R1
  5850  001402  20F4               	addwfc	prodh,w,c
  5851  001404  6EDA               	movwf	fsr2h,c
  5852  001406  0101               	movlb	1	; () banked
  5853  001408  AEDF               	btfss	indf2,7,c
  5854  00140A  D003               	goto	i2l3027
  5855                           
  5856                           ; BSR set to: 1
  5857  00140C  ECEF  F00E         	call	_um_1	;wreg free
  5858  001410  D002               	goto	i2l3029
  5859  001412                     i2l3027:
  5860  001412  EC5E  F00F         	call	_zero_1	;wreg free
  5861  001416                     i2l3029:
  5862                           
  5863                           ;app.c: 226: if( (R1[idx] & 64) > 0) um_1();else zero_1();
  5864  001416  5001               	movf	SendBuffCh1@idx,w,c
  5865  001418  0D01               	mullw	1
  5866  00141A  0E80               	movlw	low _R1
  5867  00141C  24F3               	addwf	prodl,w,c
  5868  00141E  6ED9               	movwf	fsr2l,c
  5869  001420  0E01               	movlw	high _R1
  5870  001422  20F4               	addwfc	prodh,w,c
  5871  001424  6EDA               	movwf	fsr2h,c
  5872  001426  0101               	movlb	1	; () banked
  5873  001428  ACDF               	btfss	indf2,6,c
  5874  00142A  D003               	goto	i2l3033
  5875                           
  5876                           ; BSR set to: 1
  5877  00142C  ECEF  F00E         	call	_um_1	;wreg free
  5878  001430  D002               	goto	i2l3035
  5879  001432                     i2l3033:
  5880  001432  EC5E  F00F         	call	_zero_1	;wreg free
  5881  001436                     i2l3035:
  5882                           
  5883                           ;app.c: 227: if( (R1[idx] & 32) > 0) um_1();else zero_1();
  5884  001436  5001               	movf	SendBuffCh1@idx,w,c
  5885  001438  0D01               	mullw	1
  5886  00143A  0E80               	movlw	low _R1
  5887  00143C  24F3               	addwf	prodl,w,c
  5888  00143E  6ED9               	movwf	fsr2l,c
  5889  001440  0E01               	movlw	high _R1
  5890  001442  20F4               	addwfc	prodh,w,c
  5891  001444  6EDA               	movwf	fsr2h,c
  5892  001446  0101               	movlb	1	; () banked
  5893  001448  AADF               	btfss	indf2,5,c
  5894  00144A  D003               	goto	i2l3039
  5895                           
  5896                           ; BSR set to: 1
  5897  00144C  ECEF  F00E         	call	_um_1	;wreg free
  5898  001450  D002               	goto	i2l3041
  5899  001452                     i2l3039:
  5900  001452  EC5E  F00F         	call	_zero_1	;wreg free
  5901  001456                     i2l3041:
  5902                           
  5903                           ;app.c: 228: if( (R1[idx] & 16) > 0) um_1();else zero_1();
  5904  001456  5001               	movf	SendBuffCh1@idx,w,c
  5905  001458  0D01               	mullw	1
  5906  00145A  0E80               	movlw	low _R1
  5907  00145C  24F3               	addwf	prodl,w,c
  5908  00145E  6ED9               	movwf	fsr2l,c
  5909  001460  0E01               	movlw	high _R1
  5910  001462  20F4               	addwfc	prodh,w,c
  5911  001464  6EDA               	movwf	fsr2h,c
  5912  001466  0101               	movlb	1	; () banked
  5913  001468  A8DF               	btfss	indf2,4,c
  5914  00146A  D003               	goto	i2l3045
  5915                           
  5916                           ; BSR set to: 1
  5917  00146C  ECEF  F00E         	call	_um_1	;wreg free
  5918  001470  D002               	goto	i2l3047
  5919  001472                     i2l3045:
  5920  001472  EC5E  F00F         	call	_zero_1	;wreg free
  5921  001476                     i2l3047:
  5922                           
  5923                           ;app.c: 229: if( (R1[idx] & 8) > 0) um_1();else zero_1();
  5924  001476  5001               	movf	SendBuffCh1@idx,w,c
  5925  001478  0D01               	mullw	1
  5926  00147A  0E80               	movlw	low _R1
  5927  00147C  24F3               	addwf	prodl,w,c
  5928  00147E  6ED9               	movwf	fsr2l,c
  5929  001480  0E01               	movlw	high _R1
  5930  001482  20F4               	addwfc	prodh,w,c
  5931  001484  6EDA               	movwf	fsr2h,c
  5932  001486  0101               	movlb	1	; () banked
  5933  001488  A6DF               	btfss	indf2,3,c
  5934  00148A  D003               	goto	i2l3051
  5935                           
  5936                           ; BSR set to: 1
  5937  00148C  ECEF  F00E         	call	_um_1	;wreg free
  5938  001490  D002               	goto	i2l3053
  5939  001492                     i2l3051:
  5940  001492  EC5E  F00F         	call	_zero_1	;wreg free
  5941  001496                     i2l3053:
  5942                           
  5943                           ;app.c: 230: if( (R1[idx] & 4) > 0) um_1();else zero_1();
  5944  001496  5001               	movf	SendBuffCh1@idx,w,c
  5945  001498  0D01               	mullw	1
  5946  00149A  0E80               	movlw	low _R1
  5947  00149C  24F3               	addwf	prodl,w,c
  5948  00149E  6ED9               	movwf	fsr2l,c
  5949  0014A0  0E01               	movlw	high _R1
  5950  0014A2  20F4               	addwfc	prodh,w,c
  5951  0014A4  6EDA               	movwf	fsr2h,c
  5952  0014A6  0101               	movlb	1	; () banked
  5953  0014A8  A4DF               	btfss	indf2,2,c
  5954  0014AA  D003               	goto	i2l3057
  5955                           
  5956                           ; BSR set to: 1
  5957  0014AC  ECEF  F00E         	call	_um_1	;wreg free
  5958  0014B0  D002               	goto	i2l3059
  5959  0014B2                     i2l3057:
  5960  0014B2  EC5E  F00F         	call	_zero_1	;wreg free
  5961  0014B6                     i2l3059:
  5962                           
  5963                           ;app.c: 231: if( (R1[idx] & 2) > 0) um_1();else zero_1();
  5964  0014B6  5001               	movf	SendBuffCh1@idx,w,c
  5965  0014B8  0D01               	mullw	1
  5966  0014BA  0E80               	movlw	low _R1
  5967  0014BC  24F3               	addwf	prodl,w,c
  5968  0014BE  6ED9               	movwf	fsr2l,c
  5969  0014C0  0E01               	movlw	high _R1
  5970  0014C2  20F4               	addwfc	prodh,w,c
  5971  0014C4  6EDA               	movwf	fsr2h,c
  5972  0014C6  0101               	movlb	1	; () banked
  5973  0014C8  A2DF               	btfss	indf2,1,c
  5974  0014CA  D003               	goto	i2l3063
  5975                           
  5976                           ; BSR set to: 1
  5977  0014CC  ECEF  F00E         	call	_um_1	;wreg free
  5978  0014D0  D002               	goto	i2l3065
  5979  0014D2                     i2l3063:
  5980  0014D2  EC5E  F00F         	call	_zero_1	;wreg free
  5981  0014D6                     i2l3065:
  5982                           
  5983                           ;app.c: 232: if( (R1[idx] & 1) > 0) um_1();else zero_1();
  5984  0014D6  5001               	movf	SendBuffCh1@idx,w,c
  5985  0014D8  0D01               	mullw	1
  5986  0014DA  0E80               	movlw	low _R1
  5987  0014DC  24F3               	addwf	prodl,w,c
  5988  0014DE  6ED9               	movwf	fsr2l,c
  5989  0014E0  0E01               	movlw	high _R1
  5990  0014E2  20F4               	addwfc	prodh,w,c
  5991  0014E4  6EDA               	movwf	fsr2h,c
  5992  0014E6  0101               	movlb	1	; () banked
  5993  0014E8  A0DF               	btfss	indf2,0,c
  5994  0014EA  D003               	goto	i2l3069
  5995                           
  5996                           ; BSR set to: 1
  5997  0014EC  ECEF  F00E         	call	_um_1	;wreg free
  5998  0014F0  D002               	goto	i2l3071
  5999  0014F2                     i2l3069:
  6000  0014F2  EC5E  F00F         	call	_zero_1	;wreg free
  6001  0014F6                     i2l3071:
  6002                           
  6003                           ;app.c: 234: if( (B1[idx] & 128) > 0) um_1();else zero_1();
  6004  0014F6  5001               	movf	SendBuffCh1@idx,w,c
  6005  0014F8  0D01               	mullw	1
  6006  0014FA  0E00               	movlw	low _B1
  6007  0014FC  24F3               	addwf	prodl,w,c
  6008  0014FE  6ED9               	movwf	fsr2l,c
  6009  001500  0E01               	movlw	high _B1
  6010  001502  20F4               	addwfc	prodh,w,c
  6011  001504  6EDA               	movwf	fsr2h,c
  6012  001506  0101               	movlb	1	; () banked
  6013  001508  AEDF               	btfss	indf2,7,c
  6014  00150A  D003               	goto	i2l3075
  6015                           
  6016                           ; BSR set to: 1
  6017  00150C  ECEF  F00E         	call	_um_1	;wreg free
  6018  001510  D002               	goto	i2l3077
  6019  001512                     i2l3075:
  6020  001512  EC5E  F00F         	call	_zero_1	;wreg free
  6021  001516                     i2l3077:
  6022                           
  6023                           ;app.c: 235: if( (B1[idx] & 64) > 0) um_1();else zero_1();
  6024  001516  5001               	movf	SendBuffCh1@idx,w,c
  6025  001518  0D01               	mullw	1
  6026  00151A  0E00               	movlw	low _B1
  6027  00151C  24F3               	addwf	prodl,w,c
  6028  00151E  6ED9               	movwf	fsr2l,c
  6029  001520  0E01               	movlw	high _B1
  6030  001522  20F4               	addwfc	prodh,w,c
  6031  001524  6EDA               	movwf	fsr2h,c
  6032  001526  0101               	movlb	1	; () banked
  6033  001528  ACDF               	btfss	indf2,6,c
  6034  00152A  D003               	goto	i2l3081
  6035                           
  6036                           ; BSR set to: 1
  6037  00152C  ECEF  F00E         	call	_um_1	;wreg free
  6038  001530  D002               	goto	i2l3083
  6039  001532                     i2l3081:
  6040  001532  EC5E  F00F         	call	_zero_1	;wreg free
  6041  001536                     i2l3083:
  6042                           
  6043                           ;app.c: 236: if( (B1[idx] & 32) > 0) um_1();else zero_1();
  6044  001536  5001               	movf	SendBuffCh1@idx,w,c
  6045  001538  0D01               	mullw	1
  6046  00153A  0E00               	movlw	low _B1
  6047  00153C  24F3               	addwf	prodl,w,c
  6048  00153E  6ED9               	movwf	fsr2l,c
  6049  001540  0E01               	movlw	high _B1
  6050  001542  20F4               	addwfc	prodh,w,c
  6051  001544  6EDA               	movwf	fsr2h,c
  6052  001546  0101               	movlb	1	; () banked
  6053  001548  AADF               	btfss	indf2,5,c
  6054  00154A  D003               	goto	i2l3087
  6055                           
  6056                           ; BSR set to: 1
  6057  00154C  ECEF  F00E         	call	_um_1	;wreg free
  6058  001550  D002               	goto	i2l3089
  6059  001552                     i2l3087:
  6060  001552  EC5E  F00F         	call	_zero_1	;wreg free
  6061  001556                     i2l3089:
  6062                           
  6063                           ;app.c: 237: if( (B1[idx] & 16) > 0) um_1();else zero_1();
  6064  001556  5001               	movf	SendBuffCh1@idx,w,c
  6065  001558  0D01               	mullw	1
  6066  00155A  0E00               	movlw	low _B1
  6067  00155C  24F3               	addwf	prodl,w,c
  6068  00155E  6ED9               	movwf	fsr2l,c
  6069  001560  0E01               	movlw	high _B1
  6070  001562  20F4               	addwfc	prodh,w,c
  6071  001564  6EDA               	movwf	fsr2h,c
  6072  001566  0101               	movlb	1	; () banked
  6073  001568  A8DF               	btfss	indf2,4,c
  6074  00156A  D003               	goto	i2l3093
  6075                           
  6076                           ; BSR set to: 1
  6077  00156C  ECEF  F00E         	call	_um_1	;wreg free
  6078  001570  D002               	goto	i2l3095
  6079  001572                     i2l3093:
  6080  001572  EC5E  F00F         	call	_zero_1	;wreg free
  6081  001576                     i2l3095:
  6082                           
  6083                           ;app.c: 238: if( (B1[idx] & 8) > 0) um_1();else zero_1();
  6084  001576  5001               	movf	SendBuffCh1@idx,w,c
  6085  001578  0D01               	mullw	1
  6086  00157A  0E00               	movlw	low _B1
  6087  00157C  24F3               	addwf	prodl,w,c
  6088  00157E  6ED9               	movwf	fsr2l,c
  6089  001580  0E01               	movlw	high _B1
  6090  001582  20F4               	addwfc	prodh,w,c
  6091  001584  6EDA               	movwf	fsr2h,c
  6092  001586  0101               	movlb	1	; () banked
  6093  001588  A6DF               	btfss	indf2,3,c
  6094  00158A  D003               	goto	i2l3099
  6095                           
  6096                           ; BSR set to: 1
  6097  00158C  ECEF  F00E         	call	_um_1	;wreg free
  6098  001590  D002               	goto	i2l3101
  6099  001592                     i2l3099:
  6100  001592  EC5E  F00F         	call	_zero_1	;wreg free
  6101  001596                     i2l3101:
  6102                           
  6103                           ;app.c: 239: if( (B1[idx] & 4) > 0) um_1();else zero_1();
  6104  001596  5001               	movf	SendBuffCh1@idx,w,c
  6105  001598  0D01               	mullw	1
  6106  00159A  0E00               	movlw	low _B1
  6107  00159C  24F3               	addwf	prodl,w,c
  6108  00159E  6ED9               	movwf	fsr2l,c
  6109  0015A0  0E01               	movlw	high _B1
  6110  0015A2  20F4               	addwfc	prodh,w,c
  6111  0015A4  6EDA               	movwf	fsr2h,c
  6112  0015A6  0101               	movlb	1	; () banked
  6113  0015A8  A4DF               	btfss	indf2,2,c
  6114  0015AA  D003               	goto	i2l3105
  6115                           
  6116                           ; BSR set to: 1
  6117  0015AC  ECEF  F00E         	call	_um_1	;wreg free
  6118  0015B0  D002               	goto	i2l3107
  6119  0015B2                     i2l3105:
  6120  0015B2  EC5E  F00F         	call	_zero_1	;wreg free
  6121  0015B6                     i2l3107:
  6122                           
  6123                           ;app.c: 240: if( (B1[idx] & 2) > 0) um_1();else zero_1();
  6124  0015B6  5001               	movf	SendBuffCh1@idx,w,c
  6125  0015B8  0D01               	mullw	1
  6126  0015BA  0E00               	movlw	low _B1
  6127  0015BC  24F3               	addwf	prodl,w,c
  6128  0015BE  6ED9               	movwf	fsr2l,c
  6129  0015C0  0E01               	movlw	high _B1
  6130  0015C2  20F4               	addwfc	prodh,w,c
  6131  0015C4  6EDA               	movwf	fsr2h,c
  6132  0015C6  0101               	movlb	1	; () banked
  6133  0015C8  A2DF               	btfss	indf2,1,c
  6134  0015CA  D003               	goto	i2l3111
  6135                           
  6136                           ; BSR set to: 1
  6137  0015CC  ECEF  F00E         	call	_um_1	;wreg free
  6138  0015D0  D002               	goto	i2l3113
  6139  0015D2                     i2l3111:
  6140  0015D2  EC5E  F00F         	call	_zero_1	;wreg free
  6141  0015D6                     i2l3113:
  6142                           
  6143                           ;app.c: 241: if( (B1[idx] & 1) > 0) um_1();else zero_1();
  6144  0015D6  5001               	movf	SendBuffCh1@idx,w,c
  6145  0015D8  0D01               	mullw	1
  6146  0015DA  0E00               	movlw	low _B1
  6147  0015DC  24F3               	addwf	prodl,w,c
  6148  0015DE  6ED9               	movwf	fsr2l,c
  6149  0015E0  0E01               	movlw	high _B1
  6150  0015E2  20F4               	addwfc	prodh,w,c
  6151  0015E4  6EDA               	movwf	fsr2h,c
  6152  0015E6  0101               	movlb	1	; () banked
  6153  0015E8  A0DF               	btfss	indf2,0,c
  6154  0015EA  D003               	goto	i2l3117
  6155                           
  6156                           ; BSR set to: 1
  6157  0015EC  ECEF  F00E         	call	_um_1	;wreg free
  6158  0015F0  0012               	return	
  6159  0015F2                     i2l3117:
  6160  0015F2  EC5E  F00F         	call	_zero_1	;wreg free
  6161  0015F6  0012               	return	
  6162  0015F8                     __end_of_SendBuffCh1:
  6163                           	opt stack 0
  6164                           pclatu	equ	0xFFB
  6165                           pclath	equ	0xFFA
  6166                           tblptru	equ	0xFF8
  6167                           tblptrh	equ	0xFF7
  6168                           tblptrl	equ	0xFF6
  6169                           tablat	equ	0xFF5
  6170                           prodh	equ	0xFF4
  6171                           prodl	equ	0xFF3
  6172                           intcon	equ	0xFF2
  6173                           intcon2	equ	0xFF1
  6174                           postinc0	equ	0xFEE
  6175                           fsr0h	equ	0xFEA
  6176                           fsr0l	equ	0xFE9
  6177                           wreg	equ	0xFE8
  6178                           postdec1	equ	0xFE5
  6179                           fsr1h	equ	0xFE2
  6180                           fsr1l	equ	0xFE1
  6181                           indf2	equ	0xFDF
  6182                           fsr2h	equ	0xFDA
  6183                           fsr2l	equ	0xFD9
  6184                           status	equ	0xFD8
  6185                           
  6186 ;; *************** function _zero_1 *****************
  6187 ;; Defined at:
  6188 ;;		line 142 in file "mcc_generated_files/app.c"
  6189 ;; Parameters:    Size  Location     Type
  6190 ;;		None
  6191 ;; Auto vars:     Size  Location     Type
  6192 ;;		None
  6193 ;; Return value:  Size  Location     Type
  6194 ;;                  1    wreg      void 
  6195 ;; Registers used:
  6196 ;;		None
  6197 ;; Tracked objects:
  6198 ;;		On entry : 0/0
  6199 ;;		On exit  : 0/0
  6200 ;;		Unchanged: 0/0
  6201 ;; Data sizes:     COMRAM   BANK0   BANK1   BANK2   BANK3   BANK4   BANK5
  6202 ;;      Params:         0       0       0       0       0       0       0
  6203 ;;      Locals:         0       0       0       0       0       0       0
  6204 ;;      Temps:          0       0       0       0       0       0       0
  6205 ;;      Totals:         0       0       0       0       0       0       0
  6206 ;;Total ram usage:        0 bytes
  6207 ;; Hardware stack levels used:    1
  6208 ;; This function calls:
  6209 ;;		Nothing
  6210 ;; This function is called by:
  6211 ;;		_SendBuffCh1
  6212 ;; This function uses a non-reentrant model
  6213 ;;
  6214                           
  6215                           	psect	text32
  6216  001EBC                     __ptext32:
  6217                           	opt stack 0
  6218  001EBC                     _zero_1:
  6219                           	opt stack 21
  6220                           
  6221                           ;incstack = 0
  6222  001EBC  828A               	bsf	3978,1,c	;volatile
  6223  001EBE  F000               	nop	
  6224  001EC0  F000               	nop	
  6225  001EC2  F000               	nop	
  6226  001EC4  F000               	nop	
  6227  001EC6  F000               	nop	
  6228  001EC8  F000               	nop	
  6229                           
  6230                           ;app.c: 143: LATB1 = 0; __nop();__nop();__nop();__nop();__nop();__nop(); }
  6231  001ECA  928A               	bcf	3978,1,c	;volatile
  6232  001ECC  F000               	nop	
  6233  001ECE  F000               	nop	
  6234  001ED0  F000               	nop	
  6235  001ED2  F000               	nop	
  6236  001ED4  F000               	nop	
  6237  001ED6  F000               	nop	
  6238  001ED8  0012               	return		;funcret
  6239  001EDA                     __end_of_zero_1:
  6240                           	opt stack 0
  6241                           pclatu	equ	0xFFB
  6242                           pclath	equ	0xFFA
  6243                           tblptru	equ	0xFF8
  6244                           tblptrh	equ	0xFF7
  6245                           tblptrl	equ	0xFF6
  6246                           tablat	equ	0xFF5
  6247                           prodh	equ	0xFF4
  6248                           prodl	equ	0xFF3
  6249                           intcon	equ	0xFF2
  6250                           intcon2	equ	0xFF1
  6251                           postinc0	equ	0xFEE
  6252                           fsr0h	equ	0xFEA
  6253                           fsr0l	equ	0xFE9
  6254                           wreg	equ	0xFE8
  6255                           postdec1	equ	0xFE5
  6256                           fsr1h	equ	0xFE2
  6257                           fsr1l	equ	0xFE1
  6258                           indf2	equ	0xFDF
  6259                           fsr2h	equ	0xFDA
  6260                           fsr2l	equ	0xFD9
  6261                           status	equ	0xFD8
  6262                           
  6263 ;; *************** function _um_1 *****************
  6264 ;; Defined at:
  6265 ;;		line 138 in file "mcc_generated_files/app.c"
  6266 ;; Parameters:    Size  Location     Type
  6267 ;;		None
  6268 ;; Auto vars:     Size  Location     Type
  6269 ;;		None
  6270 ;; Return value:  Size  Location     Type
  6271 ;;                  1    wreg      void 
  6272 ;; Registers used:
  6273 ;;		None
  6274 ;; Tracked objects:
  6275 ;;		On entry : 0/0
  6276 ;;		On exit  : 0/0
  6277 ;;		Unchanged: 0/0
  6278 ;; Data sizes:     COMRAM   BANK0   BANK1   BANK2   BANK3   BANK4   BANK5
  6279 ;;      Params:         0       0       0       0       0       0       0
  6280 ;;      Locals:         0       0       0       0       0       0       0
  6281 ;;      Temps:          0       0       0       0       0       0       0
  6282 ;;      Totals:         0       0       0       0       0       0       0
  6283 ;;Total ram usage:        0 bytes
  6284 ;; Hardware stack levels used:    1
  6285 ;; This function calls:
  6286 ;;		Nothing
  6287 ;; This function is called by:
  6288 ;;		_SendBuffCh1
  6289 ;; This function uses a non-reentrant model
  6290 ;;
  6291                           
  6292                           	psect	text33
  6293  001DDE                     __ptext33:
  6294                           	opt stack 0
  6295  001DDE                     _um_1:
  6296                           	opt stack 21
  6297                           
  6298                           ;incstack = 0
  6299  001DDE  828A               	bsf	3978,1,c	;volatile
  6300  001DE0  F000               	nop	
  6301  001DE2  F000               	nop	
  6302  001DE4  F000               	nop	
  6303  001DE6  F000               	nop	
  6304  001DE8  F000               	nop	
  6305  001DEA  F000               	nop	
  6306                           
  6307                           ;app.c: 139: __nop();__nop();__nop();__nop();__nop();__nop();
  6308  001DEC  F000               	nop	
  6309  001DEE  F000               	nop	
  6310  001DF0  F000               	nop	
  6311  001DF2  F000               	nop	
  6312  001DF4  F000               	nop	
  6313  001DF6  F000               	nop	
  6314                           
  6315                           ;app.c: 140: __nop();__nop();__nop(); LATB1 = 0;
  6316  001DF8  F000               	nop	
  6317  001DFA  F000               	nop	
  6318  001DFC  F000               	nop	
  6319  001DFE  928A               	bcf	3978,1,c	;volatile
  6320  001E00  0012               	return		;funcret
  6321  001E02                     __end_of_um_1:
  6322                           	opt stack 0
  6323                           pclatu	equ	0xFFB
  6324                           pclath	equ	0xFFA
  6325                           tblptru	equ	0xFF8
  6326                           tblptrh	equ	0xFF7
  6327                           tblptrl	equ	0xFF6
  6328                           tablat	equ	0xFF5
  6329                           prodh	equ	0xFF4
  6330                           prodl	equ	0xFF3
  6331                           intcon	equ	0xFF2
  6332                           intcon2	equ	0xFF1
  6333                           postinc0	equ	0xFEE
  6334                           fsr0h	equ	0xFEA
  6335                           fsr0l	equ	0xFE9
  6336                           wreg	equ	0xFE8
  6337                           postdec1	equ	0xFE5
  6338                           fsr1h	equ	0xFE2
  6339                           fsr1l	equ	0xFE1
  6340                           indf2	equ	0xFDF
  6341                           fsr2h	equ	0xFDA
  6342                           fsr2l	equ	0xFD9
  6343                           status	equ	0xFD8
  6344                           
  6345 ;; *************** function _SendBuffCh0 *****************
  6346 ;; Defined at:
  6347 ;;		line 185 in file "mcc_generated_files/app.c"
  6348 ;; Parameters:    Size  Location     Type
  6349 ;;  idx             1    wreg     unsigned char 
  6350 ;; Auto vars:     Size  Location     Type
  6351 ;;  idx             1    0[COMRAM] unsigned char 
  6352 ;; Return value:  Size  Location     Type
  6353 ;;                  1    wreg      void 
  6354 ;; Registers used:
  6355 ;;		wreg, fsr2l, fsr2h, status,2, status,0, prodl, prodh, cstack
  6356 ;; Tracked objects:
  6357 ;;		On entry : 0/0
  6358 ;;		On exit  : 0/0
  6359 ;;		Unchanged: 0/0
  6360 ;; Data sizes:     COMRAM   BANK0   BANK1   BANK2   BANK3   BANK4   BANK5
  6361 ;;      Params:         0       0       0       0       0       0       0
  6362 ;;      Locals:         1       0       0       0       0       0       0
  6363 ;;      Temps:          0       0       0       0       0       0       0
  6364 ;;      Totals:         1       0       0       0       0       0       0
  6365 ;;Total ram usage:        1 bytes
  6366 ;; Hardware stack levels used:    1
  6367 ;; Hardware stack levels required when called:    1
  6368 ;; This function calls:
  6369 ;;		_um_0
  6370 ;;		_zero_0
  6371 ;; This function is called by:
  6372 ;;		_AppTimer1ms
  6373 ;; This function uses a non-reentrant model
  6374 ;;
  6375                           
  6376                           	psect	text34
  6377  0015F8                     __ptext34:
  6378                           	opt stack 0
  6379  0015F8                     _SendBuffCh0:
  6380                           	opt stack 21
  6381                           
  6382                           ;incstack = 0
  6383                           ;SendBuffCh0@idx stored from wreg
  6384  0015F8  6E01               	movwf	SendBuffCh0@idx,c
  6385                           
  6386                           ;app.c: 187: if( (G0[idx] & 128) > 0) um_0();else zero_0();
  6387  0015FA  5001               	movf	SendBuffCh0@idx,w,c
  6388  0015FC  0D01               	mullw	1
  6389  0015FE  0E60               	movlw	low _G0
  6390  001600  24F3               	addwf	prodl,w,c
  6391  001602  6ED9               	movwf	fsr2l,c
  6392  001604  0E00               	movlw	high _G0
  6393  001606  20F4               	addwfc	prodh,w,c
  6394  001608  6EDA               	movwf	fsr2h,c
  6395  00160A  0100               	movlb	0	; () banked
  6396  00160C  AEDF               	btfss	indf2,7,c
  6397  00160E  D003               	goto	i2l2835
  6398                           
  6399                           ; BSR set to: 0
  6400  001610  EC01  F00F         	call	_um_0	;wreg free
  6401  001614  D002               	goto	i2l2837
  6402  001616                     i2l2835:
  6403  001616  EC6D  F00F         	call	_zero_0	;wreg free
  6404  00161A                     i2l2837:
  6405                           
  6406                           ;app.c: 188: if( (G0[idx] & 64) > 0) um_0();else zero_0();
  6407  00161A  5001               	movf	SendBuffCh0@idx,w,c
  6408  00161C  0D01               	mullw	1
  6409  00161E  0E60               	movlw	low _G0
  6410  001620  24F3               	addwf	prodl,w,c
  6411  001622  6ED9               	movwf	fsr2l,c
  6412  001624  0E00               	movlw	high _G0
  6413  001626  20F4               	addwfc	prodh,w,c
  6414  001628  6EDA               	movwf	fsr2h,c
  6415  00162A  0100               	movlb	0	; () banked
  6416  00162C  ACDF               	btfss	indf2,6,c
  6417  00162E  D003               	goto	i2l2841
  6418                           
  6419                           ; BSR set to: 0
  6420  001630  EC01  F00F         	call	_um_0	;wreg free
  6421  001634  D002               	goto	i2l2843
  6422  001636                     i2l2841:
  6423  001636  EC6D  F00F         	call	_zero_0	;wreg free
  6424  00163A                     i2l2843:
  6425                           
  6426                           ;app.c: 189: if( (G0[idx] & 32) > 0) um_0();else zero_0();
  6427  00163A  5001               	movf	SendBuffCh0@idx,w,c
  6428  00163C  0D01               	mullw	1
  6429  00163E  0E60               	movlw	low _G0
  6430  001640  24F3               	addwf	prodl,w,c
  6431  001642  6ED9               	movwf	fsr2l,c
  6432  001644  0E00               	movlw	high _G0
  6433  001646  20F4               	addwfc	prodh,w,c
  6434  001648  6EDA               	movwf	fsr2h,c
  6435  00164A  0100               	movlb	0	; () banked
  6436  00164C  AADF               	btfss	indf2,5,c
  6437  00164E  D003               	goto	i2l2847
  6438                           
  6439                           ; BSR set to: 0
  6440  001650  EC01  F00F         	call	_um_0	;wreg free
  6441  001654  D002               	goto	i2l2849
  6442  001656                     i2l2847:
  6443  001656  EC6D  F00F         	call	_zero_0	;wreg free
  6444  00165A                     i2l2849:
  6445                           
  6446                           ;app.c: 190: if( (G0[idx] & 16) > 0) um_0();else zero_0();
  6447  00165A  5001               	movf	SendBuffCh0@idx,w,c
  6448  00165C  0D01               	mullw	1
  6449  00165E  0E60               	movlw	low _G0
  6450  001660  24F3               	addwf	prodl,w,c
  6451  001662  6ED9               	movwf	fsr2l,c
  6452  001664  0E00               	movlw	high _G0
  6453  001666  20F4               	addwfc	prodh,w,c
  6454  001668  6EDA               	movwf	fsr2h,c
  6455  00166A  0100               	movlb	0	; () banked
  6456  00166C  A8DF               	btfss	indf2,4,c
  6457  00166E  D003               	goto	i2l2853
  6458                           
  6459                           ; BSR set to: 0
  6460  001670  EC01  F00F         	call	_um_0	;wreg free
  6461  001674  D002               	goto	i2l2855
  6462  001676                     i2l2853:
  6463  001676  EC6D  F00F         	call	_zero_0	;wreg free
  6464  00167A                     i2l2855:
  6465                           
  6466                           ;app.c: 191: if( (G0[idx] & 8) > 0) um_0();else zero_0();
  6467  00167A  5001               	movf	SendBuffCh0@idx,w,c
  6468  00167C  0D01               	mullw	1
  6469  00167E  0E60               	movlw	low _G0
  6470  001680  24F3               	addwf	prodl,w,c
  6471  001682  6ED9               	movwf	fsr2l,c
  6472  001684  0E00               	movlw	high _G0
  6473  001686  20F4               	addwfc	prodh,w,c
  6474  001688  6EDA               	movwf	fsr2h,c
  6475  00168A  0100               	movlb	0	; () banked
  6476  00168C  A6DF               	btfss	indf2,3,c
  6477  00168E  D003               	goto	i2l2859
  6478                           
  6479                           ; BSR set to: 0
  6480  001690  EC01  F00F         	call	_um_0	;wreg free
  6481  001694  D002               	goto	i2l2861
  6482  001696                     i2l2859:
  6483  001696  EC6D  F00F         	call	_zero_0	;wreg free
  6484  00169A                     i2l2861:
  6485                           
  6486                           ;app.c: 192: if( (G0[idx] & 4) > 0) um_0();else zero_0();
  6487  00169A  5001               	movf	SendBuffCh0@idx,w,c
  6488  00169C  0D01               	mullw	1
  6489  00169E  0E60               	movlw	low _G0
  6490  0016A0  24F3               	addwf	prodl,w,c
  6491  0016A2  6ED9               	movwf	fsr2l,c
  6492  0016A4  0E00               	movlw	high _G0
  6493  0016A6  20F4               	addwfc	prodh,w,c
  6494  0016A8  6EDA               	movwf	fsr2h,c
  6495  0016AA  0100               	movlb	0	; () banked
  6496  0016AC  A4DF               	btfss	indf2,2,c
  6497  0016AE  D003               	goto	i2l2865
  6498                           
  6499                           ; BSR set to: 0
  6500  0016B0  EC01  F00F         	call	_um_0	;wreg free
  6501  0016B4  D002               	goto	i2l2867
  6502  0016B6                     i2l2865:
  6503  0016B6  EC6D  F00F         	call	_zero_0	;wreg free
  6504  0016BA                     i2l2867:
  6505                           
  6506                           ;app.c: 193: if( (G0[idx] & 2) > 0) um_0();else zero_0();
  6507  0016BA  5001               	movf	SendBuffCh0@idx,w,c
  6508  0016BC  0D01               	mullw	1
  6509  0016BE  0E60               	movlw	low _G0
  6510  0016C0  24F3               	addwf	prodl,w,c
  6511  0016C2  6ED9               	movwf	fsr2l,c
  6512  0016C4  0E00               	movlw	high _G0
  6513  0016C6  20F4               	addwfc	prodh,w,c
  6514  0016C8  6EDA               	movwf	fsr2h,c
  6515  0016CA  0100               	movlb	0	; () banked
  6516  0016CC  A2DF               	btfss	indf2,1,c
  6517  0016CE  D003               	goto	i2l2871
  6518                           
  6519                           ; BSR set to: 0
  6520  0016D0  EC01  F00F         	call	_um_0	;wreg free
  6521  0016D4  D002               	goto	i2l2873
  6522  0016D6                     i2l2871:
  6523  0016D6  EC6D  F00F         	call	_zero_0	;wreg free
  6524  0016DA                     i2l2873:
  6525                           
  6526                           ;app.c: 194: if( (G0[idx] & 1) > 0) um_0();else zero_0();
  6527  0016DA  5001               	movf	SendBuffCh0@idx,w,c
  6528  0016DC  0D01               	mullw	1
  6529  0016DE  0E60               	movlw	low _G0
  6530  0016E0  24F3               	addwf	prodl,w,c
  6531  0016E2  6ED9               	movwf	fsr2l,c
  6532  0016E4  0E00               	movlw	high _G0
  6533  0016E6  20F4               	addwfc	prodh,w,c
  6534  0016E8  6EDA               	movwf	fsr2h,c
  6535  0016EA  0100               	movlb	0	; () banked
  6536  0016EC  A0DF               	btfss	indf2,0,c
  6537  0016EE  D003               	goto	i2l2877
  6538                           
  6539                           ; BSR set to: 0
  6540  0016F0  EC01  F00F         	call	_um_0	;wreg free
  6541  0016F4  D002               	goto	i2l2879
  6542  0016F6                     i2l2877:
  6543  0016F6  EC6D  F00F         	call	_zero_0	;wreg free
  6544  0016FA                     i2l2879:
  6545                           
  6546                           ;app.c: 196: if( (R0[idx] & 128) > 0) um_0();else zero_0();
  6547  0016FA  5001               	movf	SendBuffCh0@idx,w,c
  6548  0016FC  0D01               	mullw	1
  6549  0016FE  0EA0               	movlw	low _R0
  6550  001700  24F3               	addwf	prodl,w,c
  6551  001702  6ED9               	movwf	fsr2l,c
  6552  001704  0E00               	movlw	high _R0
  6553  001706  20F4               	addwfc	prodh,w,c
  6554  001708  6EDA               	movwf	fsr2h,c
  6555  00170A  0100               	movlb	0	; () banked
  6556  00170C  AEDF               	btfss	indf2,7,c
  6557  00170E  D003               	goto	i2l2883
  6558                           
  6559                           ; BSR set to: 0
  6560  001710  EC01  F00F         	call	_um_0	;wreg free
  6561  001714  D002               	goto	i2l2885
  6562  001716                     i2l2883:
  6563  001716  EC6D  F00F         	call	_zero_0	;wreg free
  6564  00171A                     i2l2885:
  6565                           
  6566                           ;app.c: 197: if( (R0[idx] & 64) > 0) um_0();else zero_0();
  6567  00171A  5001               	movf	SendBuffCh0@idx,w,c
  6568  00171C  0D01               	mullw	1
  6569  00171E  0EA0               	movlw	low _R0
  6570  001720  24F3               	addwf	prodl,w,c
  6571  001722  6ED9               	movwf	fsr2l,c
  6572  001724  0E00               	movlw	high _R0
  6573  001726  20F4               	addwfc	prodh,w,c
  6574  001728  6EDA               	movwf	fsr2h,c
  6575  00172A  0100               	movlb	0	; () banked
  6576  00172C  ACDF               	btfss	indf2,6,c
  6577  00172E  D003               	goto	i2l2889
  6578                           
  6579                           ; BSR set to: 0
  6580  001730  EC01  F00F         	call	_um_0	;wreg free
  6581  001734  D002               	goto	i2l2891
  6582  001736                     i2l2889:
  6583  001736  EC6D  F00F         	call	_zero_0	;wreg free
  6584  00173A                     i2l2891:
  6585                           
  6586                           ;app.c: 198: if( (R0[idx] & 32) > 0) um_0();else zero_0();
  6587  00173A  5001               	movf	SendBuffCh0@idx,w,c
  6588  00173C  0D01               	mullw	1
  6589  00173E  0EA0               	movlw	low _R0
  6590  001740  24F3               	addwf	prodl,w,c
  6591  001742  6ED9               	movwf	fsr2l,c
  6592  001744  0E00               	movlw	high _R0
  6593  001746  20F4               	addwfc	prodh,w,c
  6594  001748  6EDA               	movwf	fsr2h,c
  6595  00174A  0100               	movlb	0	; () banked
  6596  00174C  AADF               	btfss	indf2,5,c
  6597  00174E  D003               	goto	i2l2895
  6598                           
  6599                           ; BSR set to: 0
  6600  001750  EC01  F00F         	call	_um_0	;wreg free
  6601  001754  D002               	goto	i2l2897
  6602  001756                     i2l2895:
  6603  001756  EC6D  F00F         	call	_zero_0	;wreg free
  6604  00175A                     i2l2897:
  6605                           
  6606                           ;app.c: 199: if( (R0[idx] & 16) > 0) um_0();else zero_0();
  6607  00175A  5001               	movf	SendBuffCh0@idx,w,c
  6608  00175C  0D01               	mullw	1
  6609  00175E  0EA0               	movlw	low _R0
  6610  001760  24F3               	addwf	prodl,w,c
  6611  001762  6ED9               	movwf	fsr2l,c
  6612  001764  0E00               	movlw	high _R0
  6613  001766  20F4               	addwfc	prodh,w,c
  6614  001768  6EDA               	movwf	fsr2h,c
  6615  00176A  0100               	movlb	0	; () banked
  6616  00176C  A8DF               	btfss	indf2,4,c
  6617  00176E  D003               	goto	i2l2901
  6618                           
  6619                           ; BSR set to: 0
  6620  001770  EC01  F00F         	call	_um_0	;wreg free
  6621  001774  D002               	goto	i2l2903
  6622  001776                     i2l2901:
  6623  001776  EC6D  F00F         	call	_zero_0	;wreg free
  6624  00177A                     i2l2903:
  6625                           
  6626                           ;app.c: 200: if( (R0[idx] & 8) > 0) um_0();else zero_0();
  6627  00177A  5001               	movf	SendBuffCh0@idx,w,c
  6628  00177C  0D01               	mullw	1
  6629  00177E  0EA0               	movlw	low _R0
  6630  001780  24F3               	addwf	prodl,w,c
  6631  001782  6ED9               	movwf	fsr2l,c
  6632  001784  0E00               	movlw	high _R0
  6633  001786  20F4               	addwfc	prodh,w,c
  6634  001788  6EDA               	movwf	fsr2h,c
  6635  00178A  0100               	movlb	0	; () banked
  6636  00178C  A6DF               	btfss	indf2,3,c
  6637  00178E  D003               	goto	i2l2907
  6638                           
  6639                           ; BSR set to: 0
  6640  001790  EC01  F00F         	call	_um_0	;wreg free
  6641  001794  D002               	goto	i2l2909
  6642  001796                     i2l2907:
  6643  001796  EC6D  F00F         	call	_zero_0	;wreg free
  6644  00179A                     i2l2909:
  6645                           
  6646                           ;app.c: 201: if( (R0[idx] & 4) > 0) um_0();else zero_0();
  6647  00179A  5001               	movf	SendBuffCh0@idx,w,c
  6648  00179C  0D01               	mullw	1
  6649  00179E  0EA0               	movlw	low _R0
  6650  0017A0  24F3               	addwf	prodl,w,c
  6651  0017A2  6ED9               	movwf	fsr2l,c
  6652  0017A4  0E00               	movlw	high _R0
  6653  0017A6  20F4               	addwfc	prodh,w,c
  6654  0017A8  6EDA               	movwf	fsr2h,c
  6655  0017AA  0100               	movlb	0	; () banked
  6656  0017AC  A4DF               	btfss	indf2,2,c
  6657  0017AE  D003               	goto	i2l2913
  6658                           
  6659                           ; BSR set to: 0
  6660  0017B0  EC01  F00F         	call	_um_0	;wreg free
  6661  0017B4  D002               	goto	i2l2915
  6662  0017B6                     i2l2913:
  6663  0017B6  EC6D  F00F         	call	_zero_0	;wreg free
  6664  0017BA                     i2l2915:
  6665                           
  6666                           ;app.c: 202: if( (R0[idx] & 2) > 0) um_0();else zero_0();
  6667  0017BA  5001               	movf	SendBuffCh0@idx,w,c
  6668  0017BC  0D01               	mullw	1
  6669  0017BE  0EA0               	movlw	low _R0
  6670  0017C0  24F3               	addwf	prodl,w,c
  6671  0017C2  6ED9               	movwf	fsr2l,c
  6672  0017C4  0E00               	movlw	high _R0
  6673  0017C6  20F4               	addwfc	prodh,w,c
  6674  0017C8  6EDA               	movwf	fsr2h,c
  6675  0017CA  0100               	movlb	0	; () banked
  6676  0017CC  A2DF               	btfss	indf2,1,c
  6677  0017CE  D003               	goto	i2l2919
  6678                           
  6679                           ; BSR set to: 0
  6680  0017D0  EC01  F00F         	call	_um_0	;wreg free
  6681  0017D4  D002               	goto	i2l2921
  6682  0017D6                     i2l2919:
  6683  0017D6  EC6D  F00F         	call	_zero_0	;wreg free
  6684  0017DA                     i2l2921:
  6685                           
  6686                           ;app.c: 203: if( (R0[idx] & 1) > 0) um_0();else zero_0();
  6687  0017DA  5001               	movf	SendBuffCh0@idx,w,c
  6688  0017DC  0D01               	mullw	1
  6689  0017DE  0EA0               	movlw	low _R0
  6690  0017E0  24F3               	addwf	prodl,w,c
  6691  0017E2  6ED9               	movwf	fsr2l,c
  6692  0017E4  0E00               	movlw	high _R0
  6693  0017E6  20F4               	addwfc	prodh,w,c
  6694  0017E8  6EDA               	movwf	fsr2h,c
  6695  0017EA  0100               	movlb	0	; () banked
  6696  0017EC  A0DF               	btfss	indf2,0,c
  6697  0017EE  D003               	goto	i2l2925
  6698                           
  6699                           ; BSR set to: 0
  6700  0017F0  EC01  F00F         	call	_um_0	;wreg free
  6701  0017F4  D002               	goto	i2l2927
  6702  0017F6                     i2l2925:
  6703  0017F6  EC6D  F00F         	call	_zero_0	;wreg free
  6704  0017FA                     i2l2927:
  6705                           
  6706                           ;app.c: 205: if( (B0[idx] & 128) > 0) um_0();else zero_0();
  6707  0017FA  5001               	movf	SendBuffCh0@idx,w,c
  6708  0017FC  0D01               	mullw	1
  6709  0017FE  0EC0               	movlw	low _B0
  6710  001800  24F3               	addwf	prodl,w,c
  6711  001802  6ED9               	movwf	fsr2l,c
  6712  001804  0E01               	movlw	high _B0
  6713  001806  20F4               	addwfc	prodh,w,c
  6714  001808  6EDA               	movwf	fsr2h,c
  6715  00180A  0101               	movlb	1	; () banked
  6716  00180C  AEDF               	btfss	indf2,7,c
  6717  00180E  D003               	goto	i2l2931
  6718                           
  6719                           ; BSR set to: 1
  6720  001810  EC01  F00F         	call	_um_0	;wreg free
  6721  001814  D002               	goto	i2l2933
  6722  001816                     i2l2931:
  6723  001816  EC6D  F00F         	call	_zero_0	;wreg free
  6724  00181A                     i2l2933:
  6725                           
  6726                           ;app.c: 206: if( (B0[idx] & 64) > 0) um_0();else zero_0();
  6727  00181A  5001               	movf	SendBuffCh0@idx,w,c
  6728  00181C  0D01               	mullw	1
  6729  00181E  0EC0               	movlw	low _B0
  6730  001820  24F3               	addwf	prodl,w,c
  6731  001822  6ED9               	movwf	fsr2l,c
  6732  001824  0E01               	movlw	high _B0
  6733  001826  20F4               	addwfc	prodh,w,c
  6734  001828  6EDA               	movwf	fsr2h,c
  6735  00182A  0101               	movlb	1	; () banked
  6736  00182C  ACDF               	btfss	indf2,6,c
  6737  00182E  D003               	goto	i2l2937
  6738                           
  6739                           ; BSR set to: 1
  6740  001830  EC01  F00F         	call	_um_0	;wreg free
  6741  001834  D002               	goto	i2l2939
  6742  001836                     i2l2937:
  6743  001836  EC6D  F00F         	call	_zero_0	;wreg free
  6744  00183A                     i2l2939:
  6745                           
  6746                           ;app.c: 207: if( (B0[idx] & 32) > 0) um_0();else zero_0();
  6747  00183A  5001               	movf	SendBuffCh0@idx,w,c
  6748  00183C  0D01               	mullw	1
  6749  00183E  0EC0               	movlw	low _B0
  6750  001840  24F3               	addwf	prodl,w,c
  6751  001842  6ED9               	movwf	fsr2l,c
  6752  001844  0E01               	movlw	high _B0
  6753  001846  20F4               	addwfc	prodh,w,c
  6754  001848  6EDA               	movwf	fsr2h,c
  6755  00184A  0101               	movlb	1	; () banked
  6756  00184C  AADF               	btfss	indf2,5,c
  6757  00184E  D003               	goto	i2l2943
  6758                           
  6759                           ; BSR set to: 1
  6760  001850  EC01  F00F         	call	_um_0	;wreg free
  6761  001854  D002               	goto	i2l2945
  6762  001856                     i2l2943:
  6763  001856  EC6D  F00F         	call	_zero_0	;wreg free
  6764  00185A                     i2l2945:
  6765                           
  6766                           ;app.c: 208: if( (B0[idx] & 16) > 0) um_0();else zero_0();
  6767  00185A  5001               	movf	SendBuffCh0@idx,w,c
  6768  00185C  0D01               	mullw	1
  6769  00185E  0EC0               	movlw	low _B0
  6770  001860  24F3               	addwf	prodl,w,c
  6771  001862  6ED9               	movwf	fsr2l,c
  6772  001864  0E01               	movlw	high _B0
  6773  001866  20F4               	addwfc	prodh,w,c
  6774  001868  6EDA               	movwf	fsr2h,c
  6775  00186A  0101               	movlb	1	; () banked
  6776  00186C  A8DF               	btfss	indf2,4,c
  6777  00186E  D003               	goto	i2l2949
  6778                           
  6779                           ; BSR set to: 1
  6780  001870  EC01  F00F         	call	_um_0	;wreg free
  6781  001874  D002               	goto	i2l2951
  6782  001876                     i2l2949:
  6783  001876  EC6D  F00F         	call	_zero_0	;wreg free
  6784  00187A                     i2l2951:
  6785                           
  6786                           ;app.c: 209: if( (B0[idx] & 8) > 0) um_0();else zero_0();
  6787  00187A  5001               	movf	SendBuffCh0@idx,w,c
  6788  00187C  0D01               	mullw	1
  6789  00187E  0EC0               	movlw	low _B0
  6790  001880  24F3               	addwf	prodl,w,c
  6791  001882  6ED9               	movwf	fsr2l,c
  6792  001884  0E01               	movlw	high _B0
  6793  001886  20F4               	addwfc	prodh,w,c
  6794  001888  6EDA               	movwf	fsr2h,c
  6795  00188A  0101               	movlb	1	; () banked
  6796  00188C  A6DF               	btfss	indf2,3,c
  6797  00188E  D003               	goto	i2l2955
  6798                           
  6799                           ; BSR set to: 1
  6800  001890  EC01  F00F         	call	_um_0	;wreg free
  6801  001894  D002               	goto	i2l2957
  6802  001896                     i2l2955:
  6803  001896  EC6D  F00F         	call	_zero_0	;wreg free
  6804  00189A                     i2l2957:
  6805                           
  6806                           ;app.c: 210: if( (B0[idx] & 4) > 0) um_0();else zero_0();
  6807  00189A  5001               	movf	SendBuffCh0@idx,w,c
  6808  00189C  0D01               	mullw	1
  6809  00189E  0EC0               	movlw	low _B0
  6810  0018A0  24F3               	addwf	prodl,w,c
  6811  0018A2  6ED9               	movwf	fsr2l,c
  6812  0018A4  0E01               	movlw	high _B0
  6813  0018A6  20F4               	addwfc	prodh,w,c
  6814  0018A8  6EDA               	movwf	fsr2h,c
  6815  0018AA  0101               	movlb	1	; () banked
  6816  0018AC  A4DF               	btfss	indf2,2,c
  6817  0018AE  D003               	goto	i2l2961
  6818                           
  6819                           ; BSR set to: 1
  6820  0018B0  EC01  F00F         	call	_um_0	;wreg free
  6821  0018B4  D002               	goto	i2l2963
  6822  0018B6                     i2l2961:
  6823  0018B6  EC6D  F00F         	call	_zero_0	;wreg free
  6824  0018BA                     i2l2963:
  6825                           
  6826                           ;app.c: 211: if( (B0[idx] & 2) > 0) um_0();else zero_0();
  6827  0018BA  5001               	movf	SendBuffCh0@idx,w,c
  6828  0018BC  0D01               	mullw	1
  6829  0018BE  0EC0               	movlw	low _B0
  6830  0018C0  24F3               	addwf	prodl,w,c
  6831  0018C2  6ED9               	movwf	fsr2l,c
  6832  0018C4  0E01               	movlw	high _B0
  6833  0018C6  20F4               	addwfc	prodh,w,c
  6834  0018C8  6EDA               	movwf	fsr2h,c
  6835  0018CA  0101               	movlb	1	; () banked
  6836  0018CC  A2DF               	btfss	indf2,1,c
  6837  0018CE  D003               	goto	i2l2967
  6838                           
  6839                           ; BSR set to: 1
  6840  0018D0  EC01  F00F         	call	_um_0	;wreg free
  6841  0018D4  D002               	goto	i2l2969
  6842  0018D6                     i2l2967:
  6843  0018D6  EC6D  F00F         	call	_zero_0	;wreg free
  6844  0018DA                     i2l2969:
  6845                           
  6846                           ;app.c: 212: if( (B0[idx] & 1) > 0) um_0();else zero_0();
  6847  0018DA  5001               	movf	SendBuffCh0@idx,w,c
  6848  0018DC  0D01               	mullw	1
  6849  0018DE  0EC0               	movlw	low _B0
  6850  0018E0  24F3               	addwf	prodl,w,c
  6851  0018E2  6ED9               	movwf	fsr2l,c
  6852  0018E4  0E01               	movlw	high _B0
  6853  0018E6  20F4               	addwfc	prodh,w,c
  6854  0018E8  6EDA               	movwf	fsr2h,c
  6855  0018EA  0101               	movlb	1	; () banked
  6856  0018EC  A0DF               	btfss	indf2,0,c
  6857  0018EE  D003               	goto	i2l2973
  6858                           
  6859                           ; BSR set to: 1
  6860  0018F0  EC01  F00F         	call	_um_0	;wreg free
  6861  0018F4  0012               	return	
  6862  0018F6                     i2l2973:
  6863  0018F6  EC6D  F00F         	call	_zero_0	;wreg free
  6864  0018FA  0012               	return	
  6865  0018FC                     __end_of_SendBuffCh0:
  6866                           	opt stack 0
  6867                           pclatu	equ	0xFFB
  6868                           pclath	equ	0xFFA
  6869                           tblptru	equ	0xFF8
  6870                           tblptrh	equ	0xFF7
  6871                           tblptrl	equ	0xFF6
  6872                           tablat	equ	0xFF5
  6873                           prodh	equ	0xFF4
  6874                           prodl	equ	0xFF3
  6875                           intcon	equ	0xFF2
  6876                           intcon2	equ	0xFF1
  6877                           postinc0	equ	0xFEE
  6878                           fsr0h	equ	0xFEA
  6879                           fsr0l	equ	0xFE9
  6880                           wreg	equ	0xFE8
  6881                           postdec1	equ	0xFE5
  6882                           fsr1h	equ	0xFE2
  6883                           fsr1l	equ	0xFE1
  6884                           indf2	equ	0xFDF
  6885                           fsr2h	equ	0xFDA
  6886                           fsr2l	equ	0xFD9
  6887                           status	equ	0xFD8
  6888                           
  6889 ;; *************** function _zero_0 *****************
  6890 ;; Defined at:
  6891 ;;		line 135 in file "mcc_generated_files/app.c"
  6892 ;; Parameters:    Size  Location     Type
  6893 ;;		None
  6894 ;; Auto vars:     Size  Location     Type
  6895 ;;		None
  6896 ;; Return value:  Size  Location     Type
  6897 ;;                  1    wreg      void 
  6898 ;; Registers used:
  6899 ;;		None
  6900 ;; Tracked objects:
  6901 ;;		On entry : 0/0
  6902 ;;		On exit  : 0/0
  6903 ;;		Unchanged: 0/0
  6904 ;; Data sizes:     COMRAM   BANK0   BANK1   BANK2   BANK3   BANK4   BANK5
  6905 ;;      Params:         0       0       0       0       0       0       0
  6906 ;;      Locals:         0       0       0       0       0       0       0
  6907 ;;      Temps:          0       0       0       0       0       0       0
  6908 ;;      Totals:         0       0       0       0       0       0       0
  6909 ;;Total ram usage:        0 bytes
  6910 ;; Hardware stack levels used:    1
  6911 ;; This function calls:
  6912 ;;		Nothing
  6913 ;; This function is called by:
  6914 ;;		_SendBuffCh0
  6915 ;; This function uses a non-reentrant model
  6916 ;;
  6917                           
  6918                           	psect	text35
  6919  001EDA                     __ptext35:
  6920                           	opt stack 0
  6921  001EDA                     _zero_0:
  6922                           	opt stack 21
  6923                           
  6924                           ;incstack = 0
  6925  001EDA  808A               	bsf	3978,0,c	;volatile
  6926  001EDC  F000               	nop	
  6927  001EDE  F000               	nop	
  6928  001EE0  F000               	nop	
  6929  001EE2  F000               	nop	
  6930  001EE4  F000               	nop	
  6931  001EE6  F000               	nop	
  6932                           
  6933                           ;app.c: 136: LATB0 = 0; __nop();__nop();__nop();__nop();__nop();__nop(); }
  6934  001EE8  908A               	bcf	3978,0,c	;volatile
  6935  001EEA  F000               	nop	
  6936  001EEC  F000               	nop	
  6937  001EEE  F000               	nop	
  6938  001EF0  F000               	nop	
  6939  001EF2  F000               	nop	
  6940  001EF4  F000               	nop	
  6941  001EF6  0012               	return		;funcret
  6942  001EF8                     __end_of_zero_0:
  6943                           	opt stack 0
  6944                           pclatu	equ	0xFFB
  6945                           pclath	equ	0xFFA
  6946                           tblptru	equ	0xFF8
  6947                           tblptrh	equ	0xFF7
  6948                           tblptrl	equ	0xFF6
  6949                           tablat	equ	0xFF5
  6950                           prodh	equ	0xFF4
  6951                           prodl	equ	0xFF3
  6952                           intcon	equ	0xFF2
  6953                           intcon2	equ	0xFF1
  6954                           postinc0	equ	0xFEE
  6955                           fsr0h	equ	0xFEA
  6956                           fsr0l	equ	0xFE9
  6957                           wreg	equ	0xFE8
  6958                           postdec1	equ	0xFE5
  6959                           fsr1h	equ	0xFE2
  6960                           fsr1l	equ	0xFE1
  6961                           indf2	equ	0xFDF
  6962                           fsr2h	equ	0xFDA
  6963                           fsr2l	equ	0xFD9
  6964                           status	equ	0xFD8
  6965                           
  6966 ;; *************** function _um_0 *****************
  6967 ;; Defined at:
  6968 ;;		line 131 in file "mcc_generated_files/app.c"
  6969 ;; Parameters:    Size  Location     Type
  6970 ;;		None
  6971 ;; Auto vars:     Size  Location     Type
  6972 ;;		None
  6973 ;; Return value:  Size  Location     Type
  6974 ;;                  1    wreg      void 
  6975 ;; Registers used:
  6976 ;;		None
  6977 ;; Tracked objects:
  6978 ;;		On entry : 0/0
  6979 ;;		On exit  : 0/0
  6980 ;;		Unchanged: 0/0
  6981 ;; Data sizes:     COMRAM   BANK0   BANK1   BANK2   BANK3   BANK4   BANK5
  6982 ;;      Params:         0       0       0       0       0       0       0
  6983 ;;      Locals:         0       0       0       0       0       0       0
  6984 ;;      Temps:          0       0       0       0       0       0       0
  6985 ;;      Totals:         0       0       0       0       0       0       0
  6986 ;;Total ram usage:        0 bytes
  6987 ;; Hardware stack levels used:    1
  6988 ;; This function calls:
  6989 ;;		Nothing
  6990 ;; This function is called by:
  6991 ;;		_SendBuffCh0
  6992 ;; This function uses a non-reentrant model
  6993 ;;
  6994                           
  6995                           	psect	text36
  6996  001E02                     __ptext36:
  6997                           	opt stack 0
  6998  001E02                     _um_0:
  6999                           	opt stack 21
  7000                           
  7001                           ;incstack = 0
  7002  001E02  808A               	bsf	3978,0,c	;volatile
  7003  001E04  F000               	nop	
  7004  001E06  F000               	nop	
  7005  001E08  F000               	nop	
  7006  001E0A  F000               	nop	
  7007  001E0C  F000               	nop	
  7008  001E0E  F000               	nop	
  7009                           
  7010                           ;app.c: 132: __nop();__nop();__nop();__nop();__nop();__nop();
  7011  001E10  F000               	nop	
  7012  001E12  F000               	nop	
  7013  001E14  F000               	nop	
  7014  001E16  F000               	nop	
  7015  001E18  F000               	nop	
  7016  001E1A  F000               	nop	
  7017                           
  7018                           ;app.c: 133: __nop();__nop();__nop(); LATB0 = 0;
  7019  001E1C  F000               	nop	
  7020  001E1E  F000               	nop	
  7021  001E20  F000               	nop	
  7022  001E22  908A               	bcf	3978,0,c	;volatile
  7023  001E24  0012               	return		;funcret
  7024  001E26                     __end_of_um_0:
  7025                           	opt stack 0
  7026                           pclatu	equ	0xFFB
  7027                           pclath	equ	0xFFA
  7028                           tblptru	equ	0xFF8
  7029                           tblptrh	equ	0xFF7
  7030                           tblptrl	equ	0xFF6
  7031                           tablat	equ	0xFF5
  7032                           prodh	equ	0xFF4
  7033                           prodl	equ	0xFF3
  7034                           intcon	equ	0xFF2
  7035                           intcon2	equ	0xFF1
  7036                           postinc0	equ	0xFEE
  7037                           fsr0h	equ	0xFEA
  7038                           fsr0l	equ	0xFE9
  7039                           wreg	equ	0xFE8
  7040                           postdec1	equ	0xFE5
  7041                           fsr1h	equ	0xFE2
  7042                           fsr1l	equ	0xFE1
  7043                           indf2	equ	0xFDF
  7044                           fsr2h	equ	0xFDA
  7045                           fsr2l	equ	0xFD9
  7046                           status	equ	0xFD8
  7047                           
  7048 ;; *************** function _AppTimer10ms *****************
  7049 ;; Defined at:
  7050 ;;		line 457 in file "mcc_generated_files/app.c"
  7051 ;; Parameters:    Size  Location     Type
  7052 ;;		None
  7053 ;; Auto vars:     Size  Location     Type
  7054 ;;		None
  7055 ;; Return value:  Size  Location     Type
  7056 ;;                  1    wreg      void 
  7057 ;; Registers used:
  7058 ;;		None
  7059 ;; Tracked objects:
  7060 ;;		On entry : 0/0
  7061 ;;		On exit  : 0/0
  7062 ;;		Unchanged: 0/0
  7063 ;; Data sizes:     COMRAM   BANK0   BANK1   BANK2   BANK3   BANK4   BANK5
  7064 ;;      Params:         0       0       0       0       0       0       0
  7065 ;;      Locals:         0       0       0       0       0       0       0
  7066 ;;      Temps:          0       0       0       0       0       0       0
  7067 ;;      Totals:         0       0       0       0       0       0       0
  7068 ;;Total ram usage:        0 bytes
  7069 ;; Hardware stack levels used:    1
  7070 ;; This function calls:
  7071 ;;		Nothing
  7072 ;; This function is called by:
  7073 ;;		_AppTimer30us
  7074 ;; This function uses a non-reentrant model
  7075 ;;
  7076                           
  7077                           	psect	text37
  7078  001FC0                     __ptext37:
  7079                           	opt stack 0
  7080  001FC0                     _AppTimer10ms:
  7081                           	opt stack 23
  7082                           
  7083                           ;incstack = 0
  7084  001FC0  0012               	return		;funcret
  7085  001FC2                     __end_of_AppTimer10ms:
  7086                           	opt stack 0
  7087                           pclatu	equ	0xFFB
  7088                           pclath	equ	0xFFA
  7089                           tblptru	equ	0xFF8
  7090                           tblptrh	equ	0xFF7
  7091                           tblptrl	equ	0xFF6
  7092                           tablat	equ	0xFF5
  7093                           prodh	equ	0xFF4
  7094                           prodl	equ	0xFF3
  7095                           intcon	equ	0xFF2
  7096                           intcon2	equ	0xFF1
  7097                           postinc0	equ	0xFEE
  7098                           fsr0h	equ	0xFEA
  7099                           fsr0l	equ	0xFE9
  7100                           wreg	equ	0xFE8
  7101                           postdec1	equ	0xFE5
  7102                           fsr1h	equ	0xFE2
  7103                           fsr1l	equ	0xFE1
  7104                           indf2	equ	0xFDF
  7105                           fsr2h	equ	0xFDA
  7106                           fsr2l	equ	0xFD9
  7107                           status	equ	0xFD8
  7108                           
  7109 ;; *************** function _AppTimer100ms *****************
  7110 ;; Defined at:
  7111 ;;		line 452 in file "mcc_generated_files/app.c"
  7112 ;; Parameters:    Size  Location     Type
  7113 ;;		None
  7114 ;; Auto vars:     Size  Location     Type
  7115 ;;		None
  7116 ;; Return value:  Size  Location     Type
  7117 ;;                  1    wreg      void 
  7118 ;; Registers used:
  7119 ;;		None
  7120 ;; Tracked objects:
  7121 ;;		On entry : 0/0
  7122 ;;		On exit  : 0/0
  7123 ;;		Unchanged: 0/0
  7124 ;; Data sizes:     COMRAM   BANK0   BANK1   BANK2   BANK3   BANK4   BANK5
  7125 ;;      Params:         0       0       0       0       0       0       0
  7126 ;;      Locals:         0       0       0       0       0       0       0
  7127 ;;      Temps:          0       0       0       0       0       0       0
  7128 ;;      Totals:         0       0       0       0       0       0       0
  7129 ;;Total ram usage:        0 bytes
  7130 ;; Hardware stack levels used:    1
  7131 ;; This function calls:
  7132 ;;		Nothing
  7133 ;; This function is called by:
  7134 ;;		_AppTimer30us
  7135 ;; This function uses a non-reentrant model
  7136 ;;
  7137                           
  7138                           	psect	text38
  7139  001FC2                     __ptext38:
  7140                           	opt stack 0
  7141  001FC2                     _AppTimer100ms:
  7142                           	opt stack 23
  7143                           
  7144                           ;incstack = 0
  7145  001FC2  0012               	return		;funcret
  7146  001FC4                     __end_of_AppTimer100ms:
  7147                           	opt stack 0
  7148                           pclatu	equ	0xFFB
  7149                           pclath	equ	0xFFA
  7150                           tblptru	equ	0xFF8
  7151                           tblptrh	equ	0xFF7
  7152                           tblptrl	equ	0xFF6
  7153                           tablat	equ	0xFF5
  7154                           prodh	equ	0xFF4
  7155                           prodl	equ	0xFF3
  7156                           intcon	equ	0xFF2
  7157                           intcon2	equ	0xFF1
  7158                           postinc0	equ	0xFEE
  7159                           fsr0h	equ	0xFEA
  7160                           fsr0l	equ	0xFE9
  7161                           wreg	equ	0xFE8
  7162                           postdec1	equ	0xFE5
  7163                           fsr1h	equ	0xFE2
  7164                           fsr1l	equ	0xFE1
  7165                           indf2	equ	0xFDF
  7166                           fsr2h	equ	0xFDA
  7167                           fsr2l	equ	0xFD9
  7168                           status	equ	0xFD8
  7169                           
  7170 ;; *************** function _EUSART1_Transmit_ISR *****************
  7171 ;; Defined at:
  7172 ;;		line 98 in file "mcc_generated_files/eusart1.c"
  7173 ;; Parameters:    Size  Location     Type
  7174 ;;		None
  7175 ;; Auto vars:     Size  Location     Type
  7176 ;;		None
  7177 ;; Return value:  Size  Location     Type
  7178 ;;                  1    wreg      void 
  7179 ;; Registers used:
  7180 ;;		None
  7181 ;; Tracked objects:
  7182 ;;		On entry : 0/0
  7183 ;;		On exit  : 0/0
  7184 ;;		Unchanged: 0/0
  7185 ;; Data sizes:     COMRAM   BANK0   BANK1   BANK2   BANK3   BANK4   BANK5
  7186 ;;      Params:         0       0       0       0       0       0       0
  7187 ;;      Locals:         0       0       0       0       0       0       0
  7188 ;;      Temps:          0       0       0       0       0       0       0
  7189 ;;      Totals:         0       0       0       0       0       0       0
  7190 ;;Total ram usage:        0 bytes
  7191 ;; Hardware stack levels used:    1
  7192 ;; This function calls:
  7193 ;;		Nothing
  7194 ;; This function is called by:
  7195 ;;		_INTERRUPT_InterruptManager
  7196 ;; This function uses a non-reentrant model
  7197 ;;
  7198                           
  7199                           	psect	text39
  7200  001FB8                     __ptext39:
  7201                           	opt stack 0
  7202  001FB8                     _EUSART1_Transmit_ISR:
  7203                           	opt stack 26
  7204                           
  7205                           ;eusart1.c: 100: PIE1bits.TX1IE = 0;
  7206                           
  7207                           ;incstack = 0
  7208  001FB8  989D               	bcf	3997,4,c	;volatile
  7209  001FBA  0012               	return		;funcret
  7210  001FBC                     __end_of_EUSART1_Transmit_ISR:
  7211                           	opt stack 0
  7212                           pclatu	equ	0xFFB
  7213                           pclath	equ	0xFFA
  7214                           tblptru	equ	0xFF8
  7215                           tblptrh	equ	0xFF7
  7216                           tblptrl	equ	0xFF6
  7217                           tablat	equ	0xFF5
  7218                           prodh	equ	0xFF4
  7219                           prodl	equ	0xFF3
  7220                           intcon	equ	0xFF2
  7221                           intcon2	equ	0xFF1
  7222                           postinc0	equ	0xFEE
  7223                           fsr0h	equ	0xFEA
  7224                           fsr0l	equ	0xFE9
  7225                           wreg	equ	0xFE8
  7226                           postdec1	equ	0xFE5
  7227                           fsr1h	equ	0xFE2
  7228                           fsr1l	equ	0xFE1
  7229                           indf2	equ	0xFDF
  7230                           fsr2h	equ	0xFDA
  7231                           fsr2l	equ	0xFD9
  7232                           status	equ	0xFD8
  7233                           
  7234 ;; *************** function _EUSART1_Receive_ISR *****************
  7235 ;; Defined at:
  7236 ;;		line 104 in file "mcc_generated_files/eusart1.c"
  7237 ;; Parameters:    Size  Location     Type
  7238 ;;		None
  7239 ;; Auto vars:     Size  Location     Type
  7240 ;;  byteReceived    1   27[COMRAM] unsigned char 
  7241 ;; Return value:  Size  Location     Type
  7242 ;;                  1    wreg      void 
  7243 ;; Registers used:
  7244 ;;		wreg, fsr2l, fsr2h, status,2, status,0, prodl, prodh, cstack
  7245 ;; Tracked objects:
  7246 ;;		On entry : 0/0
  7247 ;;		On exit  : 0/0
  7248 ;;		Unchanged: 0/0
  7249 ;; Data sizes:     COMRAM   BANK0   BANK1   BANK2   BANK3   BANK4   BANK5
  7250 ;;      Params:         0       0       0       0       0       0       0
  7251 ;;      Locals:         1       0       0       0       0       0       0
  7252 ;;      Temps:          0       0       0       0       0       0       0
  7253 ;;      Totals:         1       0       0       0       0       0       0
  7254 ;;Total ram usage:        1 bytes
  7255 ;; Hardware stack levels used:    1
  7256 ;; Hardware stack levels required when called:    2
  7257 ;; This function calls:
  7258 ;;		_AppINT_USART1_RX
  7259 ;; This function is called by:
  7260 ;;		_INTERRUPT_InterruptManager
  7261 ;; This function uses a non-reentrant model
  7262 ;;
  7263                           
  7264                           	psect	text40
  7265  001F14                     __ptext40:
  7266                           	opt stack 0
  7267  001F14                     _EUSART1_Receive_ISR:
  7268                           	opt stack 24
  7269                           
  7270                           ;eusart1.c: 106: unsigned char byteReceived = 0;
  7271                           
  7272                           ;incstack = 0
  7273  001F14  0E00               	movlw	0
  7274  001F16  6E1C               	movwf	EUSART1_Receive_ISR@byteReceived,c
  7275                           
  7276                           ;eusart1.c: 107: if (1 == RC1STAbits.OERR)
  7277  001F18  A2AB               	btfss	4011,1,c	;volatile
  7278  001F1A  D002               	goto	i2l169
  7279                           
  7280                           ;eusart1.c: 108: {
  7281                           ;eusart1.c: 110: RC1STAbits.CREN = 0;
  7282  001F1C  98AB               	bcf	4011,4,c	;volatile
  7283                           
  7284                           ;eusart1.c: 111: RC1STAbits.CREN = 1;
  7285  001F1E  88AB               	bsf	4011,4,c	;volatile
  7286  001F20                     i2l169:
  7287                           
  7288                           ;eusart1.c: 112: }
  7289                           ;eusart1.c: 113: byteReceived = RCREG1;
  7290  001F20  CFAE F01C          	movff	4014,EUSART1_Receive_ISR@byteReceived	;volatile
  7291                           
  7292                           ;eusart1.c: 114: AppINT_USART1_RX(byteReceived);
  7293  001F24  501C               	movf	EUSART1_Receive_ISR@byteReceived,w,c
  7294  001F26  EC58  F000         	call	_AppINT_USART1_RX
  7295  001F2A  0012               	return		;funcret
  7296  001F2C                     __end_of_EUSART1_Receive_ISR:
  7297                           	opt stack 0
  7298                           pclatu	equ	0xFFB
  7299                           pclath	equ	0xFFA
  7300                           tblptru	equ	0xFF8
  7301                           tblptrh	equ	0xFF7
  7302                           tblptrl	equ	0xFF6
  7303                           tablat	equ	0xFF5
  7304                           prodh	equ	0xFF4
  7305                           prodl	equ	0xFF3
  7306                           intcon	equ	0xFF2
  7307                           intcon2	equ	0xFF1
  7308                           postinc0	equ	0xFEE
  7309                           fsr0h	equ	0xFEA
  7310                           fsr0l	equ	0xFE9
  7311                           wreg	equ	0xFE8
  7312                           postdec1	equ	0xFE5
  7313                           fsr1h	equ	0xFE2
  7314                           fsr1l	equ	0xFE1
  7315                           indf2	equ	0xFDF
  7316                           fsr2h	equ	0xFDA
  7317                           fsr2l	equ	0xFD9
  7318                           status	equ	0xFD8
  7319                           
  7320 ;; *************** function _AppINT_USART1_RX *****************
  7321 ;; Defined at:
  7322 ;;		line 546 in file "mcc_generated_files/app.c"
  7323 ;; Parameters:    Size  Location     Type
  7324 ;;  rxData          1    wreg     unsigned char 
  7325 ;; Auto vars:     Size  Location     Type
  7326 ;;  rxData          1   18[COMRAM] unsigned char 
  7327 ;;  c               2   24[COMRAM] int 
  7328 ;;  c               2   22[COMRAM] int 
  7329 ;;  c               2   20[COMRAM] int 
  7330 ;;  channel         1   26[COMRAM] unsigned char 
  7331 ;;  cmd             1   19[COMRAM] unsigned char 
  7332 ;;  type            1   17[COMRAM] unsigned char 
  7333 ;;  blue            1   16[COMRAM] unsigned char 
  7334 ;;  green           1   15[COMRAM] unsigned char 
  7335 ;;  red             1   14[COMRAM] unsigned char 
  7336 ;;  pos             1   13[COMRAM] unsigned char 
  7337 ;;  c               1    0        unsigned char 
  7338 ;; Return value:  Size  Location     Type
  7339 ;;                  1    wreg      void 
  7340 ;; Registers used:
  7341 ;;		wreg, fsr2l, fsr2h, status,2, status,0, prodl, prodh, cstack
  7342 ;; Tracked objects:
  7343 ;;		On entry : 0/0
  7344 ;;		On exit  : 0/0
  7345 ;;		Unchanged: 0/0
  7346 ;; Data sizes:     COMRAM   BANK0   BANK1   BANK2   BANK3   BANK4   BANK5
  7347 ;;      Params:         0       0       0       0       0       0       0
  7348 ;;      Locals:        14       0       0       0       0       0       0
  7349 ;;      Temps:          4       0       0       0       0       0       0
  7350 ;;      Totals:        18       0       0       0       0       0       0
  7351 ;;Total ram usage:       18 bytes
  7352 ;; Hardware stack levels used:    1
  7353 ;; Hardware stack levels required when called:    1
  7354 ;; This function calls:
  7355 ;;		_EUSART1_Write
  7356 ;;		_SetLED
  7357 ;; This function is called by:
  7358 ;;		_EUSART1_Receive_ISR
  7359 ;; This function uses a non-reentrant model
  7360 ;;
  7361                           
  7362                           	psect	text41
  7363  0000B0                     __ptext41:
  7364                           	opt stack 0
  7365  0000B0                     _AppINT_USART1_RX:
  7366                           	opt stack 24
  7367                           
  7368                           ;incstack = 0
  7369                           ;AppINT_USART1_RX@rxData stored from wreg
  7370  0000B0  6E13               	movwf	AppINT_USART1_RX@rxData,c
  7371                           
  7372                           ;app.c: 548: uint8_t channel, pos, red, green, blue, cmd , type, c;
  7373                           ;app.c: 549: EUSART1_Write(rxData);
  7374  0000B2  5013               	movf	AppINT_USART1_RX@rxData,w,c
  7375  0000B4  ECD0  F00F         	call	_EUSART1_Write
  7376                           
  7377                           ;app.c: 550: Buffer[Idx]= rxData;
  7378  0000B8  504E               	movf	_Idx,w,c
  7379  0000BA  0D01               	mullw	1
  7380  0000BC  0E2B               	movlw	low _Buffer
  7381  0000BE  24F3               	addwf	prodl,w,c
  7382  0000C0  6ED9               	movwf	fsr2l,c
  7383  0000C2  0E00               	movlw	high _Buffer
  7384  0000C4  20F4               	addwfc	prodh,w,c
  7385  0000C6  6EDA               	movwf	fsr2h,c
  7386  0000C8  C013  FFDF         	movff	AppINT_USART1_RX@rxData,indf2
  7387                           
  7388                           ;app.c: 552: static int data_cnt;
  7389                           ;app.c: 553: data_cnt++;
  7390  0000CC  4A3B               	infsnz	AppINT_USART1_RX@data_cnt,f,c
  7391  0000CE  2A3C               	incf	AppINT_USART1_RX@data_cnt+1,f,c
  7392                           
  7393                           ;app.c: 555: if(Buffer[Idx] == 255){
  7394  0000D0  504E               	movf	_Idx,w,c
  7395  0000D2  0D01               	mullw	1
  7396  0000D4  0E2B               	movlw	low _Buffer
  7397  0000D6  24F3               	addwf	prodl,w,c
  7398  0000D8  6ED9               	movwf	fsr2l,c
  7399  0000DA  0E00               	movlw	high _Buffer
  7400  0000DC  20F4               	addwfc	prodh,w,c
  7401  0000DE  6EDA               	movwf	fsr2h,c
  7402  0000E0  28DE               	incf	postinc2,w,c
  7403  0000E2  A4D8               	btfss	status,2,c
  7404  0000E4  D17B               	goto	i2l4111
  7405                           
  7406                           ;app.c: 557: if(data_cnt==7){
  7407  0000E6  0E07               	movlw	7
  7408  0000E8  183B               	xorwf	AppINT_USART1_RX@data_cnt,w,c
  7409  0000EA  103C               	iorwf	AppINT_USART1_RX@data_cnt+1,w,c
  7410  0000EC  A4D8               	btfss	status,2,c
  7411  0000EE  D0BA               	goto	i2l4057
  7412                           
  7413                           ;app.c: 559: channel = Buffer[Idx-6];
  7414  0000F0  0EFA               	movlw	250
  7415  0000F2  6E0A               	movwf	??_AppINT_USART1_RX& (0+255),c
  7416  0000F4  0EFF               	movlw	255
  7417  0000F6  6E0B               	movwf	(??_AppINT_USART1_RX+1)& (0+255),c
  7418  0000F8  504E               	movf	_Idx,w,c
  7419  0000FA  6E0C               	movwf	(??_AppINT_USART1_RX+2)& (0+255),c
  7420  0000FC  6A0D               	clrf	(??_AppINT_USART1_RX+3)& (0+255),c
  7421  0000FE  500A               	movf	??_AppINT_USART1_RX,w,c
  7422  000100  260C               	addwf	??_AppINT_USART1_RX+2,f,c
  7423  000102  500B               	movf	??_AppINT_USART1_RX+1,w,c
  7424  000104  220D               	addwfc	??_AppINT_USART1_RX+3,f,c
  7425  000106  0E2B               	movlw	low _Buffer
  7426  000108  240C               	addwf	??_AppINT_USART1_RX+2,w,c
  7427  00010A  6ED9               	movwf	fsr2l,c
  7428  00010C  0E00               	movlw	high _Buffer
  7429  00010E  200D               	addwfc	??_AppINT_USART1_RX+3,w,c
  7430  000110  6EDA               	movwf	fsr2h,c
  7431  000112  50DF               	movf	indf2,w,c
  7432  000114  6E1B               	movwf	AppINT_USART1_RX@channel,c
  7433                           
  7434                           ;app.c: 560: type = Buffer[Idx-5];
  7435  000116  0EFB               	movlw	251
  7436  000118  6E0A               	movwf	??_AppINT_USART1_RX& (0+255),c
  7437  00011A  0EFF               	movlw	255
  7438  00011C  6E0B               	movwf	(??_AppINT_USART1_RX+1)& (0+255),c
  7439  00011E  504E               	movf	_Idx,w,c
  7440  000120  6E0C               	movwf	(??_AppINT_USART1_RX+2)& (0+255),c
  7441  000122  6A0D               	clrf	(??_AppINT_USART1_RX+3)& (0+255),c
  7442  000124  500A               	movf	??_AppINT_USART1_RX,w,c
  7443  000126  260C               	addwf	??_AppINT_USART1_RX+2,f,c
  7444  000128  500B               	movf	??_AppINT_USART1_RX+1,w,c
  7445  00012A  220D               	addwfc	??_AppINT_USART1_RX+3,f,c
  7446  00012C  0E2B               	movlw	low _Buffer
  7447  00012E  240C               	addwf	??_AppINT_USART1_RX+2,w,c
  7448  000130  6ED9               	movwf	fsr2l,c
  7449  000132  0E00               	movlw	high _Buffer
  7450  000134  200D               	addwfc	??_AppINT_USART1_RX+3,w,c
  7451  000136  6EDA               	movwf	fsr2h,c
  7452  000138  50DF               	movf	indf2,w,c
  7453  00013A  6E12               	movwf	AppINT_USART1_RX@type,c
  7454                           
  7455                           ;app.c: 561: pos = Buffer[Idx-4];
  7456  00013C  0EFC               	movlw	252
  7457  00013E  6E0A               	movwf	??_AppINT_USART1_RX& (0+255),c
  7458  000140  0EFF               	movlw	255
  7459  000142  6E0B               	movwf	(??_AppINT_USART1_RX+1)& (0+255),c
  7460  000144  504E               	movf	_Idx,w,c
  7461  000146  6E0C               	movwf	(??_AppINT_USART1_RX+2)& (0+255),c
  7462  000148  6A0D               	clrf	(??_AppINT_USART1_RX+3)& (0+255),c
  7463  00014A  500A               	movf	??_AppINT_USART1_RX,w,c
  7464  00014C  260C               	addwf	??_AppINT_USART1_RX+2,f,c
  7465  00014E  500B               	movf	??_AppINT_USART1_RX+1,w,c
  7466  000150  220D               	addwfc	??_AppINT_USART1_RX+3,f,c
  7467  000152  0E2B               	movlw	low _Buffer
  7468  000154  240C               	addwf	??_AppINT_USART1_RX+2,w,c
  7469  000156  6ED9               	movwf	fsr2l,c
  7470  000158  0E00               	movlw	high _Buffer
  7471  00015A  200D               	addwfc	??_AppINT_USART1_RX+3,w,c
  7472  00015C  6EDA               	movwf	fsr2h,c
  7473  00015E  50DF               	movf	indf2,w,c
  7474  000160  6E0E               	movwf	AppINT_USART1_RX@pos,c
  7475                           
  7476                           ;app.c: 562: red= Buffer[Idx-3];
  7477  000162  0EFD               	movlw	253
  7478  000164  6E0A               	movwf	??_AppINT_USART1_RX& (0+255),c
  7479  000166  0EFF               	movlw	255
  7480  000168  6E0B               	movwf	(??_AppINT_USART1_RX+1)& (0+255),c
  7481  00016A  504E               	movf	_Idx,w,c
  7482  00016C  6E0C               	movwf	(??_AppINT_USART1_RX+2)& (0+255),c
  7483  00016E  6A0D               	clrf	(??_AppINT_USART1_RX+3)& (0+255),c
  7484  000170  500A               	movf	??_AppINT_USART1_RX,w,c
  7485  000172  260C               	addwf	??_AppINT_USART1_RX+2,f,c
  7486  000174  500B               	movf	??_AppINT_USART1_RX+1,w,c
  7487  000176  220D               	addwfc	??_AppINT_USART1_RX+3,f,c
  7488  000178  0E2B               	movlw	low _Buffer
  7489  00017A  240C               	addwf	??_AppINT_USART1_RX+2,w,c
  7490  00017C  6ED9               	movwf	fsr2l,c
  7491  00017E  0E00               	movlw	high _Buffer
  7492  000180  200D               	addwfc	??_AppINT_USART1_RX+3,w,c
  7493  000182  6EDA               	movwf	fsr2h,c
  7494  000184  50DF               	movf	indf2,w,c
  7495  000186  6E0F               	movwf	AppINT_USART1_RX@red,c
  7496                           
  7497                           ;app.c: 563: green = Buffer[Idx-2];
  7498  000188  0EFE               	movlw	254
  7499  00018A  6E0A               	movwf	??_AppINT_USART1_RX& (0+255),c
  7500  00018C  0EFF               	movlw	255
  7501  00018E  6E0B               	movwf	(??_AppINT_USART1_RX+1)& (0+255),c
  7502  000190  504E               	movf	_Idx,w,c
  7503  000192  6E0C               	movwf	(??_AppINT_USART1_RX+2)& (0+255),c
  7504  000194  6A0D               	clrf	(??_AppINT_USART1_RX+3)& (0+255),c
  7505  000196  500A               	movf	??_AppINT_USART1_RX,w,c
  7506  000198  260C               	addwf	??_AppINT_USART1_RX+2,f,c
  7507  00019A  500B               	movf	??_AppINT_USART1_RX+1,w,c
  7508  00019C  220D               	addwfc	??_AppINT_USART1_RX+3,f,c
  7509  00019E  0E2B               	movlw	low _Buffer
  7510  0001A0  240C               	addwf	??_AppINT_USART1_RX+2,w,c
  7511  0001A2  6ED9               	movwf	fsr2l,c
  7512  0001A4  0E00               	movlw	high _Buffer
  7513  0001A6  200D               	addwfc	??_AppINT_USART1_RX+3,w,c
  7514  0001A8  6EDA               	movwf	fsr2h,c
  7515  0001AA  50DF               	movf	indf2,w,c
  7516  0001AC  6E10               	movwf	AppINT_USART1_RX@green,c
  7517                           
  7518                           ;app.c: 564: blue = Buffer[Idx-1];
  7519  0001AE  0EFF               	movlw	255
  7520  0001B0  6E0A               	movwf	??_AppINT_USART1_RX& (0+255),c
  7521  0001B2  0EFF               	movlw	255
  7522  0001B4  6E0B               	movwf	(??_AppINT_USART1_RX+1)& (0+255),c
  7523  0001B6  504E               	movf	_Idx,w,c
  7524  0001B8  6E0C               	movwf	(??_AppINT_USART1_RX+2)& (0+255),c
  7525  0001BA  6A0D               	clrf	(??_AppINT_USART1_RX+3)& (0+255),c
  7526  0001BC  500A               	movf	??_AppINT_USART1_RX,w,c
  7527  0001BE  260C               	addwf	??_AppINT_USART1_RX+2,f,c
  7528  0001C0  500B               	movf	??_AppINT_USART1_RX+1,w,c
  7529  0001C2  220D               	addwfc	??_AppINT_USART1_RX+3,f,c
  7530  0001C4  0E2B               	movlw	low _Buffer
  7531  0001C6  240C               	addwf	??_AppINT_USART1_RX+2,w,c
  7532  0001C8  6ED9               	movwf	fsr2l,c
  7533  0001CA  0E00               	movlw	high _Buffer
  7534  0001CC  200D               	addwfc	??_AppINT_USART1_RX+3,w,c
  7535  0001CE  6EDA               	movwf	fsr2h,c
  7536  0001D0  50DF               	movf	indf2,w,c
  7537  0001D2  6E11               	movwf	AppINT_USART1_RX@blue,c
  7538                           
  7539                           ;app.c: 566: Idx = 0;
  7540  0001D4  0E00               	movlw	0
  7541  0001D6  6E4E               	movwf	_Idx,c
  7542                           
  7543                           ;app.c: 568: SetLED(channel, type, pos, red, green, blue);
  7544  0001D8  C012  F001         	movff	AppINT_USART1_RX@type,SetLED@type
  7545  0001DC  C00E  F002         	movff	AppINT_USART1_RX@pos,SetLED@led
  7546  0001E0  C00F  F003         	movff	AppINT_USART1_RX@red,SetLED@color1
  7547  0001E4  C010  F004         	movff	AppINT_USART1_RX@green,SetLED@color2
  7548  0001E8  C011  F005         	movff	AppINT_USART1_RX@blue,SetLED@color3
  7549  0001EC  501B               	movf	AppINT_USART1_RX@channel,w,c
  7550  0001EE  EC7E  F00C         	call	_SetLED
  7551                           
  7552                           ;app.c: 570: if(channel==0) ShootLedsCh0 = 1;
  7553  0001F2  501B               	movf	AppINT_USART1_RX@channel,w,c
  7554  0001F4  A4D8               	btfss	status,2,c
  7555  0001F6  D005               	goto	i2l4037
  7556  0001F8  0E00               	movlw	0
  7557  0001FA  6E4A               	movwf	_ShootLedsCh0+1,c
  7558  0001FC  0E01               	movlw	1
  7559  0001FE  6E49               	movwf	_ShootLedsCh0,c
  7560  000200  D02B               	goto	i2l758
  7561  000202                     i2l4037:
  7562                           
  7563                           ;app.c: 571: else if(channel==1) ShootLedsCh1 = 1;
  7564  000202  041B               	decf	AppINT_USART1_RX@channel,w,c
  7565  000204  A4D8               	btfss	status,2,c
  7566  000206  D005               	goto	i2l4041
  7567  000208  0E00               	movlw	0
  7568  00020A  6E48               	movwf	_ShootLedsCh1+1,c
  7569  00020C  0E01               	movlw	1
  7570  00020E  6E47               	movwf	_ShootLedsCh1,c
  7571  000210  D023               	goto	i2l758
  7572  000212                     i2l4041:
  7573                           
  7574                           ;app.c: 572: else if(channel==2) ShootLedsCh2 = 1;
  7575  000212  0E02               	movlw	2
  7576  000214  181B               	xorwf	AppINT_USART1_RX@channel,w,c
  7577  000216  A4D8               	btfss	status,2,c
  7578  000218  D005               	goto	i2l4045
  7579  00021A  0E00               	movlw	0
  7580  00021C  6E46               	movwf	_ShootLedsCh2+1,c
  7581  00021E  0E01               	movlw	1
  7582  000220  6E45               	movwf	_ShootLedsCh2,c
  7583  000222  D01A               	goto	i2l758
  7584  000224                     i2l4045:
  7585                           
  7586                           ;app.c: 573: else if(channel==3) ShootLedsCh3 = 1;
  7587  000224  0E03               	movlw	3
  7588  000226  181B               	xorwf	AppINT_USART1_RX@channel,w,c
  7589  000228  A4D8               	btfss	status,2,c
  7590  00022A  D005               	goto	i2l4049
  7591  00022C  0E00               	movlw	0
  7592  00022E  6E44               	movwf	_ShootLedsCh3+1,c
  7593  000230  0E01               	movlw	1
  7594  000232  6E43               	movwf	_ShootLedsCh3,c
  7595  000234  D011               	goto	i2l758
  7596  000236                     i2l4049:
  7597                           
  7598                           ;app.c: 574: else if(channel==4) ShootLedsCh4 = 1;
  7599  000236  0E04               	movlw	4
  7600  000238  181B               	xorwf	AppINT_USART1_RX@channel,w,c
  7601  00023A  A4D8               	btfss	status,2,c
  7602  00023C  D005               	goto	i2l4053
  7603  00023E  0E00               	movlw	0
  7604  000240  6E42               	movwf	_ShootLedsCh4+1,c
  7605  000242  0E01               	movlw	1
  7606  000244  6E41               	movwf	_ShootLedsCh4,c
  7607  000246  D008               	goto	i2l758
  7608  000248                     i2l4053:
  7609                           
  7610                           ;app.c: 575: else if(channel==5) ShootLedsCh5 = 1;
  7611  000248  0E05               	movlw	5
  7612  00024A  181B               	xorwf	AppINT_USART1_RX@channel,w,c
  7613  00024C  A4D8               	btfss	status,2,c
  7614  00024E  D004               	goto	i2l758
  7615  000250  0E00               	movlw	0
  7616  000252  6E40               	movwf	_ShootLedsCh5+1,c
  7617  000254  0E01               	movlw	1
  7618  000256  6E3F               	movwf	_ShootLedsCh5,c
  7619  000258                     i2l758:
  7620                           
  7621                           ;app.c: 576: IdxFrame = 0;
  7622  000258  0E00               	movlw	0
  7623  00025A  6E4D               	movwf	_IdxFrame,c
  7624                           
  7625                           ;app.c: 578: data_cnt=0;
  7626  00025C  0E00               	movlw	0
  7627  00025E  6E3C               	movwf	AppINT_USART1_RX@data_cnt+1,c
  7628  000260  0E00               	movlw	0
  7629  000262  6E3B               	movwf	AppINT_USART1_RX@data_cnt,c
  7630  000264                     i2l4057:
  7631                           
  7632                           ;app.c: 580: }
  7633                           ;app.c: 581: if(data_cnt==2){
  7634  000264  0E02               	movlw	2
  7635  000266  183B               	xorwf	AppINT_USART1_RX@data_cnt,w,c
  7636  000268  103C               	iorwf	AppINT_USART1_RX@data_cnt+1,w,c
  7637  00026A  A4D8               	btfss	status,2,c
  7638  00026C  0012               	return	
  7639                           
  7640                           ;app.c: 583: cmd = Buffer[Idx-1];
  7641  00026E  0EFF               	movlw	255
  7642  000270  6E0A               	movwf	??_AppINT_USART1_RX& (0+255),c
  7643  000272  0EFF               	movlw	255
  7644  000274  6E0B               	movwf	(??_AppINT_USART1_RX+1)& (0+255),c
  7645  000276  504E               	movf	_Idx,w,c
  7646  000278  6E0C               	movwf	(??_AppINT_USART1_RX+2)& (0+255),c
  7647  00027A  6A0D               	clrf	(??_AppINT_USART1_RX+3)& (0+255),c
  7648  00027C  500A               	movf	??_AppINT_USART1_RX,w,c
  7649  00027E  260C               	addwf	??_AppINT_USART1_RX+2,f,c
  7650  000280  500B               	movf	??_AppINT_USART1_RX+1,w,c
  7651  000282  220D               	addwfc	??_AppINT_USART1_RX+3,f,c
  7652  000284  0E2B               	movlw	low _Buffer
  7653  000286  240C               	addwf	??_AppINT_USART1_RX+2,w,c
  7654  000288  6ED9               	movwf	fsr2l,c
  7655  00028A  0E00               	movlw	high _Buffer
  7656  00028C  200D               	addwfc	??_AppINT_USART1_RX+3,w,c
  7657  00028E  6EDA               	movwf	fsr2h,c
  7658  000290  50DF               	movf	indf2,w,c
  7659  000292  6E14               	movwf	AppINT_USART1_RX@cmd,c
  7660                           
  7661                           ;app.c: 584: Idx = 0;
  7662  000294  0E00               	movlw	0
  7663  000296  6E4E               	movwf	_Idx,c
  7664                           
  7665                           ;app.c: 586: if(cmd==0){
  7666  000298  5014               	movf	AppINT_USART1_RX@cmd,w,c
  7667  00029A  A4D8               	btfss	status,2,c
  7668  00029C  D02E               	goto	i2l4079
  7669                           
  7670                           ;app.c: 587: do { LATC3 = ~LATC3; } while(0);
  7671  00029E  B68B               	btfsc	3979,3,c	;volatile
  7672  0002A0  D002               	goto	i2u447_40
  7673  0002A2  868B               	bsf	3979,3,c	;volatile
  7674  0002A4  D001               	goto	i2l4065
  7675  0002A6                     i2u447_40:
  7676  0002A6  968B               	bcf	3979,3,c	;volatile
  7677  0002A8                     i2l4065:
  7678                           
  7679                           ;app.c: 588: for(int c=0; c< 50; c++){
  7680  0002A8  0E00               	movlw	0
  7681  0002AA  6E16               	movwf	AppINT_USART1_RX@c_801+1,c
  7682  0002AC  0E00               	movlw	0
  7683  0002AE  6E15               	movwf	AppINT_USART1_RX@c_801,c
  7684  0002B0                     i2l4067:
  7685  0002B0  BE16               	btfsc	AppINT_USART1_RX@c_801+1,7,c
  7686  0002B2  D006               	goto	i2l4071
  7687  0002B4  5016               	movf	AppINT_USART1_RX@c_801+1,w,c
  7688  0002B6  E152               	bnz	i2l4093
  7689  0002B8  0E32               	movlw	50
  7690  0002BA  5C15               	subwf	AppINT_USART1_RX@c_801,w,c
  7691  0002BC  B0D8               	btfsc	status,0,c
  7692  0002BE  D081               	goto	i2l4109
  7693  0002C0                     i2l4071:
  7694                           
  7695                           ;app.c: 589: SetLED(0, 0, c, 10 , 0 , 0);
  7696  0002C0  0E00               	movlw	0
  7697  0002C2  6E01               	movwf	SetLED@type,c
  7698  0002C4  C015  F002         	movff	AppINT_USART1_RX@c_801,SetLED@led
  7699  0002C8  0E0A               	movlw	10
  7700  0002CA  6E03               	movwf	SetLED@color1,c
  7701  0002CC  0E00               	movlw	0
  7702  0002CE  6E04               	movwf	SetLED@color2,c
  7703  0002D0  0E00               	movlw	0
  7704  0002D2  6E05               	movwf	SetLED@color3,c
  7705  0002D4  0E00               	movlw	0
  7706  0002D6  EC7E  F00C         	call	_SetLED
  7707                           
  7708                           ;app.c: 590: SetLED(1, 1, c, 10 , 0 , 0);
  7709  0002DA  0E01               	movlw	1
  7710  0002DC  6E01               	movwf	SetLED@type,c
  7711  0002DE  C015  F002         	movff	AppINT_USART1_RX@c_801,SetLED@led
  7712  0002E2  0E0A               	movlw	10
  7713  0002E4  6E03               	movwf	SetLED@color1,c
  7714  0002E6  0E00               	movlw	0
  7715  0002E8  6E04               	movwf	SetLED@color2,c
  7716  0002EA  0E00               	movlw	0
  7717  0002EC  6E05               	movwf	SetLED@color3,c
  7718  0002EE  0E01               	movlw	1
  7719  0002F0  EC7E  F00C         	call	_SetLED
  7720  0002F4  4A15               	infsnz	AppINT_USART1_RX@c_801,f,c
  7721  0002F6  2A16               	incf	AppINT_USART1_RX@c_801+1,f,c
  7722  0002F8  D7DB               	goto	i2l4067
  7723  0002FA                     i2l4079:
  7724                           
  7725                           ;app.c: 595: else if(cmd==1){
  7726  0002FA  0414               	decf	AppINT_USART1_RX@cmd,w,c
  7727  0002FC  A4D8               	btfss	status,2,c
  7728  0002FE  D02F               	goto	i2l4095
  7729                           
  7730                           ;app.c: 596: do { LATC3 = ~LATC3; } while(0);
  7731  000300  B68B               	btfsc	3979,3,c	;volatile
  7732  000302  D002               	goto	i2u452_40
  7733  000304  868B               	bsf	3979,3,c	;volatile
  7734  000306  D001               	goto	i2l4081
  7735  000308                     i2u452_40:
  7736  000308  968B               	bcf	3979,3,c	;volatile
  7737  00030A                     i2l4081:
  7738                           
  7739                           ;app.c: 597: for(int c=0; c< 50; c++){
  7740  00030A  0E00               	movlw	0
  7741  00030C  6E18               	movwf	AppINT_USART1_RX@c_802+1,c
  7742  00030E  0E00               	movlw	0
  7743  000310  6E17               	movwf	AppINT_USART1_RX@c_802,c
  7744  000312                     i2l4083:
  7745  000312  BE18               	btfsc	AppINT_USART1_RX@c_802+1,7,c
  7746  000314  D006               	goto	i2l4087
  7747  000316  5018               	movf	AppINT_USART1_RX@c_802+1,w,c
  7748  000318  E154               	bnz	i2l4109
  7749  00031A  0E32               	movlw	50
  7750  00031C  5C17               	subwf	AppINT_USART1_RX@c_802,w,c
  7751  00031E  B0D8               	btfsc	status,0,c
  7752  000320  D050               	goto	i2l4109
  7753  000322                     i2l4087:
  7754                           
  7755                           ;app.c: 598: SetLED(0, 0, c, 0 , 10 , 0);
  7756  000322  0E00               	movlw	0
  7757  000324  6E01               	movwf	SetLED@type,c
  7758  000326  C017  F002         	movff	AppINT_USART1_RX@c_802,SetLED@led
  7759  00032A  0E00               	movlw	0
  7760  00032C  6E03               	movwf	SetLED@color1,c
  7761  00032E  0E0A               	movlw	10
  7762  000330  6E04               	movwf	SetLED@color2,c
  7763  000332  0E00               	movlw	0
  7764  000334  6E05               	movwf	SetLED@color3,c
  7765  000336  0E00               	movlw	0
  7766  000338  EC7E  F00C         	call	_SetLED
  7767                           
  7768                           ;app.c: 599: SetLED(1, 1, c, 0 , 10 , 0);
  7769  00033C  0E01               	movlw	1
  7770  00033E  6E01               	movwf	SetLED@type,c
  7771  000340  C017  F002         	movff	AppINT_USART1_RX@c_802,SetLED@led
  7772  000344  0E00               	movlw	0
  7773  000346  6E03               	movwf	SetLED@color1,c
  7774  000348  0E0A               	movlw	10
  7775  00034A  6E04               	movwf	SetLED@color2,c
  7776  00034C  0E00               	movlw	0
  7777  00034E  6E05               	movwf	SetLED@color3,c
  7778  000350  0E01               	movlw	1
  7779  000352  EC7E  F00C         	call	_SetLED
  7780  000356  4A17               	infsnz	AppINT_USART1_RX@c_802,f,c
  7781  000358  2A18               	incf	AppINT_USART1_RX@c_802+1,f,c
  7782  00035A  D7DB               	goto	i2l4083
  7783  00035C                     i2l4093:
  7784  00035C  D032               	goto	i2l4109
  7785  00035E                     i2l4095:
  7786                           
  7787                           ;app.c: 604: else if(cmd==2){
  7788  00035E  0E02               	movlw	2
  7789  000360  1814               	xorwf	AppINT_USART1_RX@cmd,w,c
  7790  000362  A4D8               	btfss	status,2,c
  7791  000364  D036               	goto	i2l774
  7792                           
  7793                           ;app.c: 605: do { LATC3 = ~LATC3; } while(0);
  7794  000366  B68B               	btfsc	3979,3,c	;volatile
  7795  000368  D002               	goto	i2u457_40
  7796  00036A  868B               	bsf	3979,3,c	;volatile
  7797  00036C  D001               	goto	i2l4097
  7798  00036E                     i2u457_40:
  7799  00036E  968B               	bcf	3979,3,c	;volatile
  7800  000370                     i2l4097:
  7801                           
  7802                           ;app.c: 606: for(int c=0; c< 50; c++){
  7803  000370  0E00               	movlw	0
  7804  000372  6E1A               	movwf	AppINT_USART1_RX@c_803+1,c
  7805  000374  0E00               	movlw	0
  7806  000376  6E19               	movwf	AppINT_USART1_RX@c_803,c
  7807  000378                     i2l4099:
  7808  000378  BE1A               	btfsc	AppINT_USART1_RX@c_803+1,7,c
  7809  00037A  D006               	goto	i2l4103
  7810  00037C  501A               	movf	AppINT_USART1_RX@c_803+1,w,c
  7811  00037E  E121               	bnz	i2l4109
  7812  000380  0E32               	movlw	50
  7813  000382  5C19               	subwf	AppINT_USART1_RX@c_803,w,c
  7814  000384  B0D8               	btfsc	status,0,c
  7815  000386  D01D               	goto	i2l4109
  7816  000388                     i2l4103:
  7817                           
  7818                           ;app.c: 607: SetLED(0, 0, c, 0 , 0 , 10);
  7819  000388  0E00               	movlw	0
  7820  00038A  6E01               	movwf	SetLED@type,c
  7821  00038C  C019  F002         	movff	AppINT_USART1_RX@c_803,SetLED@led
  7822  000390  0E00               	movlw	0
  7823  000392  6E03               	movwf	SetLED@color1,c
  7824  000394  0E00               	movlw	0
  7825  000396  6E04               	movwf	SetLED@color2,c
  7826  000398  0E0A               	movlw	10
  7827  00039A  6E05               	movwf	SetLED@color3,c
  7828  00039C  0E00               	movlw	0
  7829  00039E  EC7E  F00C         	call	_SetLED
  7830                           
  7831                           ;app.c: 608: SetLED(1, 1, c, 0 , 0 , 10);
  7832  0003A2  0E01               	movlw	1
  7833  0003A4  6E01               	movwf	SetLED@type,c
  7834  0003A6  C019  F002         	movff	AppINT_USART1_RX@c_803,SetLED@led
  7835  0003AA  0E00               	movlw	0
  7836  0003AC  6E03               	movwf	SetLED@color1,c
  7837  0003AE  0E00               	movlw	0
  7838  0003B0  6E04               	movwf	SetLED@color2,c
  7839  0003B2  0E0A               	movlw	10
  7840  0003B4  6E05               	movwf	SetLED@color3,c
  7841  0003B6  0E01               	movlw	1
  7842  0003B8  EC7E  F00C         	call	_SetLED
  7843  0003BC  4A19               	infsnz	AppINT_USART1_RX@c_803,f,c
  7844  0003BE  2A1A               	incf	AppINT_USART1_RX@c_803+1,f,c
  7845  0003C0  D7DB               	goto	i2l4099
  7846  0003C2                     i2l4109:
  7847                           
  7848                           ;app.c: 609: }
  7849                           ;app.c: 610: ShootLedsCh0 = 1;
  7850  0003C2  0E00               	movlw	0
  7851  0003C4  6E4A               	movwf	_ShootLedsCh0+1,c
  7852  0003C6  0E01               	movlw	1
  7853  0003C8  6E49               	movwf	_ShootLedsCh0,c
  7854                           
  7855                           ;app.c: 611: ShootLedsCh1 = 1;
  7856  0003CA  0E00               	movlw	0
  7857  0003CC  6E48               	movwf	_ShootLedsCh1+1,c
  7858  0003CE  0E01               	movlw	1
  7859  0003D0  6E47               	movwf	_ShootLedsCh1,c
  7860  0003D2                     i2l774:
  7861                           
  7862                           ;app.c: 612: }
  7863                           ;app.c: 614: data_cnt=0;
  7864  0003D2  0E00               	movlw	0
  7865  0003D4  6E3C               	movwf	AppINT_USART1_RX@data_cnt+1,c
  7866  0003D6  0E00               	movlw	0
  7867  0003D8  6E3B               	movwf	AppINT_USART1_RX@data_cnt,c
  7868                           
  7869                           ;app.c: 615: }
  7870                           ;app.c: 616: }
  7871  0003DA  0012               	return	
  7872  0003DC                     i2l4111:
  7873                           
  7874                           ;app.c: 617: else
  7875                           ;app.c: 618: Idx += 1;
  7876  0003DC  2A4E               	incf	_Idx,f,c
  7877  0003DE  0012               	return	
  7878  0003E0                     __end_of_AppINT_USART1_RX:
  7879                           	opt stack 0
  7880                           pclatu	equ	0xFFB
  7881                           pclath	equ	0xFFA
  7882                           tblptru	equ	0xFF8
  7883                           tblptrh	equ	0xFF7
  7884                           tblptrl	equ	0xFF6
  7885                           tablat	equ	0xFF5
  7886                           prodh	equ	0xFF4
  7887                           prodl	equ	0xFF3
  7888                           intcon	equ	0xFF2
  7889                           intcon2	equ	0xFF1
  7890                           postinc0	equ	0xFEE
  7891                           fsr0h	equ	0xFEA
  7892                           fsr0l	equ	0xFE9
  7893                           wreg	equ	0xFE8
  7894                           postdec1	equ	0xFE5
  7895                           fsr1h	equ	0xFE2
  7896                           fsr1l	equ	0xFE1
  7897                           indf2	equ	0xFDF
  7898                           postinc2	equ	0xFDE
  7899                           fsr2h	equ	0xFDA
  7900                           fsr2l	equ	0xFD9
  7901                           status	equ	0xFD8
  7902                           
  7903 ;; *************** function _SetLED *****************
  7904 ;; Defined at:
  7905 ;;		line 393 in file "mcc_generated_files/app.c"
  7906 ;; Parameters:    Size  Location     Type
  7907 ;;  channel         1    wreg     unsigned char 
  7908 ;;  type            1    0[COMRAM] unsigned char 
  7909 ;;  led             1    1[COMRAM] unsigned char 
  7910 ;;  color1          1    2[COMRAM] unsigned char 
  7911 ;;  color2          1    3[COMRAM] unsigned char 
  7912 ;;  color3          1    4[COMRAM] unsigned char 
  7913 ;; Auto vars:     Size  Location     Type
  7914 ;;  channel         1    5[COMRAM] unsigned char 
  7915 ;;  blue            1    8[COMRAM] unsigned char 
  7916 ;;  green           1    7[COMRAM] unsigned char 
  7917 ;;  red             1    6[COMRAM] unsigned char 
  7918 ;; Return value:  Size  Location     Type
  7919 ;;                  1    wreg      void 
  7920 ;; Registers used:
  7921 ;;		wreg, fsr2l, fsr2h, status,2, status,0, prodl, prodh
  7922 ;; Tracked objects:
  7923 ;;		On entry : 0/0
  7924 ;;		On exit  : 0/0
  7925 ;;		Unchanged: 0/0
  7926 ;; Data sizes:     COMRAM   BANK0   BANK1   BANK2   BANK3   BANK4   BANK5
  7927 ;;      Params:         5       0       0       0       0       0       0
  7928 ;;      Locals:         4       0       0       0       0       0       0
  7929 ;;      Temps:          0       0       0       0       0       0       0
  7930 ;;      Totals:         9       0       0       0       0       0       0
  7931 ;;Total ram usage:        9 bytes
  7932 ;; Hardware stack levels used:    1
  7933 ;; This function calls:
  7934 ;;		Nothing
  7935 ;; This function is called by:
  7936 ;;		_AppINT_USART1_RX
  7937 ;; This function uses a non-reentrant model
  7938 ;;
  7939                           
  7940                           	psect	text42
  7941  0018FC                     __ptext42:
  7942                           	opt stack 0
  7943  0018FC                     _SetLED:
  7944                           	opt stack 24
  7945                           
  7946                           ;incstack = 0
  7947                           ;SetLED@channel stored from wreg
  7948  0018FC  6E06               	movwf	SetLED@channel,c
  7949                           
  7950                           ;app.c: 395: uint8_t red, green, blue;
  7951                           ;app.c: 397: if(type == 0){
  7952  0018FE  5001               	movf	SetLED@type,w,c
  7953  001900  A4D8               	btfss	status,2,c
  7954  001902  D007               	goto	i2l3987
  7955                           
  7956                           ;app.c: 398: red = color2;
  7957  001904  C004  F007         	movff	SetLED@color2,SetLED@red
  7958                           
  7959                           ;app.c: 399: green = color1;
  7960  001908  C003  F008         	movff	SetLED@color1,SetLED@green
  7961                           
  7962                           ;app.c: 400: blue = color3;
  7963  00190C  C005  F009         	movff	SetLED@color3,SetLED@blue
  7964                           
  7965                           ;app.c: 401: }
  7966  001910  D009               	goto	i2l3991
  7967  001912                     i2l3987:
  7968                           
  7969                           ;app.c: 402: else if(type==1){
  7970  001912  0401               	decf	SetLED@type,w,c
  7971  001914  A4D8               	btfss	status,2,c
  7972  001916  D006               	goto	i2l3991
  7973                           
  7974                           ;app.c: 403: red = color1;
  7975  001918  C003  F007         	movff	SetLED@color1,SetLED@red
  7976                           
  7977                           ;app.c: 404: green = color3;
  7978  00191C  C005  F008         	movff	SetLED@color3,SetLED@green
  7979                           
  7980                           ;app.c: 405: blue = color2;
  7981  001920  C004  F009         	movff	SetLED@color2,SetLED@blue
  7982  001924                     i2l3991:
  7983                           
  7984                           ;app.c: 406: }
  7985                           ;app.c: 408: if(channel == 0){
  7986  001924  5006               	movf	SetLED@channel,w,c
  7987  001926  A4D8               	btfss	status,2,c
  7988  001928  D01F               	goto	i2l3995
  7989                           
  7990                           ;app.c: 409: R0[led]=red;
  7991  00192A  5002               	movf	SetLED@led,w,c
  7992  00192C  0D01               	mullw	1
  7993  00192E  0EA0               	movlw	low _R0
  7994  001930  24F3               	addwf	prodl,w,c
  7995  001932  6ED9               	movwf	fsr2l,c
  7996  001934  0E00               	movlw	high _R0
  7997  001936  20F4               	addwfc	prodh,w,c
  7998  001938  6EDA               	movwf	fsr2h,c
  7999  00193A  C007  FFDF         	movff	SetLED@red,indf2
  8000                           
  8001                           ;app.c: 410: G0[led]=green;
  8002  00193E  5002               	movf	SetLED@led,w,c
  8003  001940  0D01               	mullw	1
  8004  001942  0E60               	movlw	low _G0
  8005  001944  24F3               	addwf	prodl,w,c
  8006  001946  6ED9               	movwf	fsr2l,c
  8007  001948  0E00               	movlw	high _G0
  8008  00194A  20F4               	addwfc	prodh,w,c
  8009  00194C  6EDA               	movwf	fsr2h,c
  8010  00194E  C008  FFDF         	movff	SetLED@green,indf2
  8011                           
  8012                           ;app.c: 411: B0[led]=blue;
  8013  001952  5002               	movf	SetLED@led,w,c
  8014  001954  0D01               	mullw	1
  8015  001956  0EC0               	movlw	low _B0
  8016  001958  24F3               	addwf	prodl,w,c
  8017  00195A  6ED9               	movwf	fsr2l,c
  8018  00195C  0E01               	movlw	high _B0
  8019  00195E  20F4               	addwfc	prodh,w,c
  8020  001960  6EDA               	movwf	fsr2h,c
  8021  001962  C009  FFDF         	movff	SetLED@blue,indf2
  8022                           
  8023                           ;app.c: 412: }
  8024  001966  0012               	return	
  8025  001968                     i2l3995:
  8026                           
  8027                           ;app.c: 413: else if(channel == 1){
  8028  001968  0406               	decf	SetLED@channel,w,c
  8029  00196A  A4D8               	btfss	status,2,c
  8030  00196C  D01F               	goto	i2l3999
  8031                           
  8032                           ;app.c: 414: R1[led]=red;
  8033  00196E  5002               	movf	SetLED@led,w,c
  8034  001970  0D01               	mullw	1
  8035  001972  0E80               	movlw	low _R1
  8036  001974  24F3               	addwf	prodl,w,c
  8037  001976  6ED9               	movwf	fsr2l,c
  8038  001978  0E01               	movlw	high _R1
  8039  00197A  20F4               	addwfc	prodh,w,c
  8040  00197C  6EDA               	movwf	fsr2h,c
  8041  00197E  C007  FFDF         	movff	SetLED@red,indf2
  8042                           
  8043                           ;app.c: 415: G1[led]=green;
  8044  001982  5002               	movf	SetLED@led,w,c
  8045  001984  0D01               	mullw	1
  8046  001986  0E40               	movlw	low _G1
  8047  001988  24F3               	addwf	prodl,w,c
  8048  00198A  6ED9               	movwf	fsr2l,c
  8049  00198C  0E01               	movlw	high _G1
  8050  00198E  20F4               	addwfc	prodh,w,c
  8051  001990  6EDA               	movwf	fsr2h,c
  8052  001992  C008  FFDF         	movff	SetLED@green,indf2
  8053                           
  8054                           ;app.c: 416: B1[led]=blue;
  8055  001996  5002               	movf	SetLED@led,w,c
  8056  001998  0D01               	mullw	1
  8057  00199A  0E00               	movlw	low _B1
  8058  00199C  24F3               	addwf	prodl,w,c
  8059  00199E  6ED9               	movwf	fsr2l,c
  8060  0019A0  0E01               	movlw	high _B1
  8061  0019A2  20F4               	addwfc	prodh,w,c
  8062  0019A4  6EDA               	movwf	fsr2h,c
  8063  0019A6  C009  FFDF         	movff	SetLED@blue,indf2
  8064                           
  8065                           ;app.c: 417: }
  8066  0019AA  0012               	return	
  8067  0019AC                     i2l3999:
  8068                           
  8069                           ;app.c: 418: else if(channel == 2){
  8070  0019AC  0E02               	movlw	2
  8071  0019AE  1806               	xorwf	SetLED@channel,w,c
  8072  0019B0  A4D8               	btfss	status,2,c
  8073  0019B2  D01F               	goto	i2l4003
  8074                           
  8075                           ;app.c: 419: R2[led]=red;
  8076  0019B4  5002               	movf	SetLED@led,w,c
  8077  0019B6  0D01               	mullw	1
  8078  0019B8  0EC0               	movlw	low _R2
  8079  0019BA  24F3               	addwf	prodl,w,c
  8080  0019BC  6ED9               	movwf	fsr2l,c
  8081  0019BE  0E02               	movlw	high _R2
  8082  0019C0  20F4               	addwfc	prodh,w,c
  8083  0019C2  6EDA               	movwf	fsr2h,c
  8084  0019C4  C007  FFDF         	movff	SetLED@red,indf2
  8085                           
  8086                           ;app.c: 420: G2[led]=green;
  8087  0019C8  5002               	movf	SetLED@led,w,c
  8088  0019CA  0D01               	mullw	1
  8089  0019CC  0E80               	movlw	low _G2
  8090  0019CE  24F3               	addwf	prodl,w,c
  8091  0019D0  6ED9               	movwf	fsr2l,c
  8092  0019D2  0E02               	movlw	high _G2
  8093  0019D4  20F4               	addwfc	prodh,w,c
  8094  0019D6  6EDA               	movwf	fsr2h,c
  8095  0019D8  C008  FFDF         	movff	SetLED@green,indf2
  8096                           
  8097                           ;app.c: 421: B2[led]=blue;
  8098  0019DC  5002               	movf	SetLED@led,w,c
  8099  0019DE  0D01               	mullw	1
  8100  0019E0  0E40               	movlw	low _B2
  8101  0019E2  24F3               	addwf	prodl,w,c
  8102  0019E4  6ED9               	movwf	fsr2l,c
  8103  0019E6  0E02               	movlw	high _B2
  8104  0019E8  20F4               	addwfc	prodh,w,c
  8105  0019EA  6EDA               	movwf	fsr2h,c
  8106  0019EC  C009  FFDF         	movff	SetLED@blue,indf2
  8107                           
  8108                           ;app.c: 422: }
  8109  0019F0  0012               	return	
  8110  0019F2                     i2l4003:
  8111                           
  8112                           ;app.c: 423: else if(channel == 3){
  8113  0019F2  0E03               	movlw	3
  8114  0019F4  1806               	xorwf	SetLED@channel,w,c
  8115  0019F6  A4D8               	btfss	status,2,c
  8116  0019F8  D01F               	goto	i2l4007
  8117                           
  8118                           ;app.c: 424: R3[led]=red;
  8119  0019FA  5002               	movf	SetLED@led,w,c
  8120  0019FC  0D01               	mullw	1
  8121  0019FE  0E00               	movlw	low _R3
  8122  001A00  24F3               	addwf	prodl,w,c
  8123  001A02  6ED9               	movwf	fsr2l,c
  8124  001A04  0E02               	movlw	high _R3
  8125  001A06  20F4               	addwfc	prodh,w,c
  8126  001A08  6EDA               	movwf	fsr2h,c
  8127  001A0A  C007  FFDF         	movff	SetLED@red,indf2
  8128                           
  8129                           ;app.c: 425: G3[led]=green;
  8130  001A0E  5002               	movf	SetLED@led,w,c
  8131  001A10  0D01               	mullw	1
  8132  001A12  0EC0               	movlw	low _G3
  8133  001A14  24F3               	addwf	prodl,w,c
  8134  001A16  6ED9               	movwf	fsr2l,c
  8135  001A18  0E03               	movlw	high _G3
  8136  001A1A  20F4               	addwfc	prodh,w,c
  8137  001A1C  6EDA               	movwf	fsr2h,c
  8138  001A1E  C008  FFDF         	movff	SetLED@green,indf2
  8139                           
  8140                           ;app.c: 426: B3[led]=blue;
  8141  001A22  5002               	movf	SetLED@led,w,c
  8142  001A24  0D01               	mullw	1
  8143  001A26  0E80               	movlw	low _B3
  8144  001A28  24F3               	addwf	prodl,w,c
  8145  001A2A  6ED9               	movwf	fsr2l,c
  8146  001A2C  0E03               	movlw	high _B3
  8147  001A2E  20F4               	addwfc	prodh,w,c
  8148  001A30  6EDA               	movwf	fsr2h,c
  8149  001A32  C009  FFDF         	movff	SetLED@blue,indf2
  8150                           
  8151                           ;app.c: 427: }
  8152  001A36  0012               	return	
  8153  001A38                     i2l4007:
  8154                           
  8155                           ;app.c: 428: else if(channel == 4){
  8156  001A38  0E04               	movlw	4
  8157  001A3A  1806               	xorwf	SetLED@channel,w,c
  8158  001A3C  A4D8               	btfss	status,2,c
  8159  001A3E  D01F               	goto	i2l4011
  8160                           
  8161                           ;app.c: 429: R4[led]=red;
  8162  001A40  5002               	movf	SetLED@led,w,c
  8163  001A42  0D01               	mullw	1
  8164  001A44  0E40               	movlw	low _R4
  8165  001A46  24F3               	addwf	prodl,w,c
  8166  001A48  6ED9               	movwf	fsr2l,c
  8167  001A4A  0E03               	movlw	high _R4
  8168  001A4C  20F4               	addwfc	prodh,w,c
  8169  001A4E  6EDA               	movwf	fsr2h,c
  8170  001A50  C007  FFDF         	movff	SetLED@red,indf2
  8171                           
  8172                           ;app.c: 430: G4[led]=green;
  8173  001A54  5002               	movf	SetLED@led,w,c
  8174  001A56  0D01               	mullw	1
  8175  001A58  0E00               	movlw	low _G4
  8176  001A5A  24F3               	addwf	prodl,w,c
  8177  001A5C  6ED9               	movwf	fsr2l,c
  8178  001A5E  0E03               	movlw	high _G4
  8179  001A60  20F4               	addwfc	prodh,w,c
  8180  001A62  6EDA               	movwf	fsr2h,c
  8181  001A64  C008  FFDF         	movff	SetLED@green,indf2
  8182                           
  8183                           ;app.c: 431: B4[led]=blue;
  8184  001A68  5002               	movf	SetLED@led,w,c
  8185  001A6A  0D01               	mullw	1
  8186  001A6C  0EC0               	movlw	low _B4
  8187  001A6E  24F3               	addwf	prodl,w,c
  8188  001A70  6ED9               	movwf	fsr2l,c
  8189  001A72  0E04               	movlw	high _B4
  8190  001A74  20F4               	addwfc	prodh,w,c
  8191  001A76  6EDA               	movwf	fsr2h,c
  8192  001A78  C009  FFDF         	movff	SetLED@blue,indf2
  8193                           
  8194                           ;app.c: 432: }
  8195  001A7C  0012               	return	
  8196  001A7E                     i2l4011:
  8197                           
  8198                           ;app.c: 433: else if(channel == 5){
  8199  001A7E  0E05               	movlw	5
  8200  001A80  1806               	xorwf	SetLED@channel,w,c
  8201  001A82  A4D8               	btfss	status,2,c
  8202  001A84  0012               	return	
  8203                           
  8204                           ;app.c: 434: R5[led]=red;
  8205  001A86  5002               	movf	SetLED@led,w,c
  8206  001A88  0D01               	mullw	1
  8207  001A8A  0E80               	movlw	low _R5
  8208  001A8C  24F3               	addwf	prodl,w,c
  8209  001A8E  6ED9               	movwf	fsr2l,c
  8210  001A90  0E04               	movlw	high _R5
  8211  001A92  20F4               	addwfc	prodh,w,c
  8212  001A94  6EDA               	movwf	fsr2h,c
  8213  001A96  C007  FFDF         	movff	SetLED@red,indf2
  8214                           
  8215                           ;app.c: 435: G5[led]=green;
  8216  001A9A  5002               	movf	SetLED@led,w,c
  8217  001A9C  0D01               	mullw	1
  8218  001A9E  0E40               	movlw	low _G5
  8219  001AA0  24F3               	addwf	prodl,w,c
  8220  001AA2  6ED9               	movwf	fsr2l,c
  8221  001AA4  0E04               	movlw	high _G5
  8222  001AA6  20F4               	addwfc	prodh,w,c
  8223  001AA8  6EDA               	movwf	fsr2h,c
  8224  001AAA  C008  FFDF         	movff	SetLED@green,indf2
  8225                           
  8226                           ;app.c: 436: B5[led]=blue;
  8227  001AAE  5002               	movf	SetLED@led,w,c
  8228  001AB0  0D01               	mullw	1
  8229  001AB2  0E00               	movlw	low _B5
  8230  001AB4  24F3               	addwf	prodl,w,c
  8231  001AB6  6ED9               	movwf	fsr2l,c
  8232  001AB8  0E04               	movlw	high _B5
  8233  001ABA  20F4               	addwfc	prodh,w,c
  8234  001ABC  6EDA               	movwf	fsr2h,c
  8235  001ABE  C009  FFDF         	movff	SetLED@blue,indf2
  8236  001AC2  0012               	return	
  8237  001AC4                     __end_of_SetLED:
  8238                           	opt stack 0
  8239                           pclatu	equ	0xFFB
  8240                           pclath	equ	0xFFA
  8241                           tblptru	equ	0xFF8
  8242                           tblptrh	equ	0xFF7
  8243                           tblptrl	equ	0xFF6
  8244                           tablat	equ	0xFF5
  8245                           prodh	equ	0xFF4
  8246                           prodl	equ	0xFF3
  8247                           intcon	equ	0xFF2
  8248                           intcon2	equ	0xFF1
  8249                           postinc0	equ	0xFEE
  8250                           fsr0h	equ	0xFEA
  8251                           fsr0l	equ	0xFE9
  8252                           wreg	equ	0xFE8
  8253                           postdec1	equ	0xFE5
  8254                           fsr1h	equ	0xFE2
  8255                           fsr1l	equ	0xFE1
  8256                           indf2	equ	0xFDF
  8257                           postinc2	equ	0xFDE
  8258                           fsr2h	equ	0xFDA
  8259                           fsr2l	equ	0xFD9
  8260                           status	equ	0xFD8
  8261                           
  8262 ;; *************** function _EUSART1_Write *****************
  8263 ;; Defined at:
  8264 ;;		line 82 in file "mcc_generated_files/eusart1.c"
  8265 ;; Parameters:    Size  Location     Type
  8266 ;;  txData          1    wreg     unsigned char 
  8267 ;; Auto vars:     Size  Location     Type
  8268 ;;  txData          1    0[COMRAM] unsigned char 
  8269 ;; Return value:  Size  Location     Type
  8270 ;;                  1    wreg      void 
  8271 ;; Registers used:
  8272 ;;		wreg
  8273 ;; Tracked objects:
  8274 ;;		On entry : 0/0
  8275 ;;		On exit  : 0/0
  8276 ;;		Unchanged: 0/0
  8277 ;; Data sizes:     COMRAM   BANK0   BANK1   BANK2   BANK3   BANK4   BANK5
  8278 ;;      Params:         0       0       0       0       0       0       0
  8279 ;;      Locals:         1       0       0       0       0       0       0
  8280 ;;      Temps:          0       0       0       0       0       0       0
  8281 ;;      Totals:         1       0       0       0       0       0       0
  8282 ;;Total ram usage:        1 bytes
  8283 ;; Hardware stack levels used:    1
  8284 ;; This function calls:
  8285 ;;		Nothing
  8286 ;; This function is called by:
  8287 ;;		_AppINT_USART1_RX
  8288 ;;		_putch
  8289 ;; This function uses a non-reentrant model
  8290 ;;
  8291                           
  8292                           	psect	text43
  8293  001FA0                     __ptext43:
  8294                           	opt stack 0
  8295  001FA0                     _EUSART1_Write:
  8296                           	opt stack 24
  8297                           
  8298                           ;incstack = 0
  8299                           ;EUSART1_Write@txData stored from wreg
  8300  001FA0  6E01               	movwf	EUSART1_Write@txData,c
  8301                           
  8302                           ;eusart1.c: 84: TXREG1=txData;
  8303  001FA2  C001  FFAD         	movff	EUSART1_Write@txData,4013	;volatile
  8304  001FA6  0012               	return		;funcret
  8305  001FA8                     __end_of_EUSART1_Write:
  8306                           	opt stack 0
  8307  0000                     pclatu	equ	0xFFB
  8308                           pclath	equ	0xFFA
  8309                           tblptru	equ	0xFF8
  8310                           tblptrh	equ	0xFF7
  8311                           tblptrl	equ	0xFF6
  8312                           tablat	equ	0xFF5
  8313                           prodh	equ	0xFF4
  8314                           prodl	equ	0xFF3
  8315                           intcon	equ	0xFF2
  8316                           intcon2	equ	0xFF1
  8317                           postinc0	equ	0xFEE
  8318                           fsr0h	equ	0xFEA
  8319                           fsr0l	equ	0xFE9
  8320                           wreg	equ	0xFE8
  8321                           postdec1	equ	0xFE5
  8322                           fsr1h	equ	0xFE2
  8323                           fsr1l	equ	0xFE1
  8324                           indf2	equ	0xFDF
  8325                           postinc2	equ	0xFDE
  8326                           fsr2h	equ	0xFDA
  8327                           fsr2l	equ	0xFD9
  8328                           status	equ	0xFD8
  8329                           pclatu	equ	0xFFB
  8330                           pclath	equ	0xFFA
  8331                           tblptru	equ	0xFF8
  8332                           tblptrh	equ	0xFF7
  8333                           tblptrl	equ	0xFF6
  8334                           tablat	equ	0xFF5
  8335                           prodh	equ	0xFF4
  8336                           prodl	equ	0xFF3
  8337                           intcon	equ	0xFF2
  8338                           intcon2	equ	0xFF1
  8339                           postinc0	equ	0xFEE
  8340                           fsr0h	equ	0xFEA
  8341                           fsr0l	equ	0xFE9
  8342                           wreg	equ	0xFE8
  8343                           postdec1	equ	0xFE5
  8344                           fsr1h	equ	0xFE2
  8345                           fsr1l	equ	0xFE1
  8346                           indf2	equ	0xFDF
  8347                           postinc2	equ	0xFDE
  8348                           fsr2h	equ	0xFDA
  8349                           fsr2l	equ	0xFD9
  8350                           status	equ	0xFD8
  8351                           
  8352                           	psect	rparam
  8353  0000                     pclatu	equ	0xFFB
  8354                           pclath	equ	0xFFA
  8355                           tblptru	equ	0xFF8
  8356                           tblptrh	equ	0xFF7
  8357                           tblptrl	equ	0xFF6
  8358                           tablat	equ	0xFF5
  8359                           prodh	equ	0xFF4
  8360                           prodl	equ	0xFF3
  8361                           intcon	equ	0xFF2
  8362                           intcon2	equ	0xFF1
  8363                           postinc0	equ	0xFEE
  8364                           fsr0h	equ	0xFEA
  8365                           fsr0l	equ	0xFE9
  8366                           wreg	equ	0xFE8
  8367                           postdec1	equ	0xFE5
  8368                           fsr1h	equ	0xFE2
  8369                           fsr1l	equ	0xFE1
  8370                           indf2	equ	0xFDF
  8371                           postinc2	equ	0xFDE
  8372                           fsr2h	equ	0xFDA
  8373                           fsr2l	equ	0xFD9
  8374                           status	equ	0xFD8
  8375                           
  8376                           	psect	temp
  8377  000058                     btemp:
  8378                           	opt stack 0
  8379  000058                     	ds	1
  8380  0000                     int$flags	set	btemp
  8381                           pclatu	equ	0xFFB
  8382                           pclath	equ	0xFFA
  8383                           tblptru	equ	0xFF8
  8384                           tblptrh	equ	0xFF7
  8385                           tblptrl	equ	0xFF6
  8386                           tablat	equ	0xFF5
  8387                           prodh	equ	0xFF4
  8388                           prodl	equ	0xFF3
  8389                           intcon	equ	0xFF2
  8390                           intcon2	equ	0xFF1
  8391                           postinc0	equ	0xFEE
  8392                           fsr0h	equ	0xFEA
  8393                           fsr0l	equ	0xFE9
  8394                           wreg	equ	0xFE8
  8395                           postdec1	equ	0xFE5
  8396                           fsr1h	equ	0xFE2
  8397                           fsr1l	equ	0xFE1
  8398                           indf2	equ	0xFDF
  8399                           postinc2	equ	0xFDE
  8400                           fsr2h	equ	0xFDA
  8401                           fsr2l	equ	0xFD9
  8402                           status	equ	0xFD8


Data Sizes:
    Strings     0
    Constant    0
    Data        9
    BSS         1380
    Persistent  0
    Stack       0

Auto Spaces:
    Space          Size  Autos    Used
    COMRAM           94     42      87
    BANK0           160      0     128
    BANK1           256      0     256
    BANK2           256      0     256
    BANK3           256      0     256
    BANK4           256      0     256
    BANK5           256      0     192

Pointer List with Targets:

    None.

Critical Paths under _main in COMRAM

    None.

Critical Paths under _INTERRUPT_InterruptManager in COMRAM

    _INTERRUPT_InterruptManager->_EUSART1_Receive_ISR
    _AppTimer1ms->_SendBuffCh0
    _AppTimer1ms->_SendBuffCh1
    _AppTimer1ms->_SendBuffCh2
    _AppTimer1ms->_SendBuffCh3
    _AppTimer1ms->_SendBuffCh4
    _AppTimer1ms->_SendBuffCh5
    _AppTimer1ms->_SendBuffCh6
    _EUSART1_Receive_ISR->_AppINT_USART1_RX
    _AppINT_USART1_RX->_SetLED

Critical Paths under _main in BANK0

    None.

Critical Paths under _INTERRUPT_InterruptManager in BANK0

    None.

Critical Paths under _main in BANK1

    None.

Critical Paths under _INTERRUPT_InterruptManager in BANK1

    None.

Critical Paths under _main in BANK2

    None.

Critical Paths under _INTERRUPT_InterruptManager in BANK2

    None.

Critical Paths under _main in BANK3

    None.

Critical Paths under _INTERRUPT_InterruptManager in BANK3

    None.

Critical Paths under _main in BANK4

    None.

Critical Paths under _INTERRUPT_InterruptManager in BANK4

    None.

Critical Paths under _main in BANK5

    None.

Critical Paths under _INTERRUPT_InterruptManager in BANK5

    None.

Call Graph Tables:

 ---------------------------------------------------------------------------------
 (Depth) Function   	        Calls       Base Space   Used Autos Params    Refs
 ---------------------------------------------------------------------------------
 (0) _main                                                 0     0      0       0
                      _AppInitialize
                         _AppProcess
                  _SYSTEM_Initialize
 ---------------------------------------------------------------------------------
 (1) _SYSTEM_Initialize                                    0     0      0       0
                 _EUSART1_Initialize
               _INTERRUPT_Initialize
              _OSCILLATOR_Initialize
             _PIN_MANAGER_Initialize
                    _TMR0_Initialize
 ---------------------------------------------------------------------------------
 (2) _TMR0_Initialize                                      0     0      0       0
                    _TMR0_StartTimer
 ---------------------------------------------------------------------------------
 (3) _TMR0_StartTimer                                      0     0      0       0
 ---------------------------------------------------------------------------------
 (2) _PIN_MANAGER_Initialize                               0     0      0       0
 ---------------------------------------------------------------------------------
 (2) _OSCILLATOR_Initialize                                0     0      0       0
 ---------------------------------------------------------------------------------
 (2) _INTERRUPT_Initialize                                 0     0      0       0
 ---------------------------------------------------------------------------------
 (2) _EUSART1_Initialize                                   0     0      0       0
 ---------------------------------------------------------------------------------
 (1) _AppProcess                                           0     0      0       0
 ---------------------------------------------------------------------------------
 (1) _AppInitialize                                        0     0      0       0
 ---------------------------------------------------------------------------------
 Estimated maximum stack depth 3
 ---------------------------------------------------------------------------------
 (Depth) Function   	        Calls       Base Space   Used Autos Params    Refs
 ---------------------------------------------------------------------------------
 (4) _INTERRUPT_InterruptManager                          14    14      0    6997
                                             28 COMRAM    14    14      0
                _EUSART1_Receive_ISR
               _EUSART1_Transmit_ISR
                           _TMR0_ISR
 ---------------------------------------------------------------------------------
 (5) _TMR0_ISR                                             0     0      0    3696
                      _TMR0_CallBack
 ---------------------------------------------------------------------------------
 (6) _TMR0_CallBack                                        0     0      0    3696
                       _AppTimer30us
 ---------------------------------------------------------------------------------
 (7) _AppTimer30us                                         0     0      0    3696
                      _AppTimer100ms
                       _AppTimer10ms
                        _AppTimer1ms
                         _AppTimer1s
 ---------------------------------------------------------------------------------
 (8) _AppTimer1s                                           0     0      0       0
 ---------------------------------------------------------------------------------
 (8) _AppTimer1ms                                          0     0      0    3696
                        _SendBuffCh0
                        _SendBuffCh1
                        _SendBuffCh2
                        _SendBuffCh3
                        _SendBuffCh4
                        _SendBuffCh5
                        _SendBuffCh6
 ---------------------------------------------------------------------------------
 (9) _SendBuffCh6                                          1     1      0     528
                                              0 COMRAM     1     1      0
                               _um_6
                             _zero_6
 ---------------------------------------------------------------------------------
 (10) _zero_6                                              0     0      0       0
 ---------------------------------------------------------------------------------
 (10) _um_6                                                0     0      0       0
 ---------------------------------------------------------------------------------
 (9) _SendBuffCh5                                          1     1      0     528
                                              0 COMRAM     1     1      0
                               _um_5
                             _zero_5
 ---------------------------------------------------------------------------------
 (10) _zero_5                                              0     0      0       0
 ---------------------------------------------------------------------------------
 (10) _um_5                                                0     0      0       0
 ---------------------------------------------------------------------------------
 (9) _SendBuffCh4                                          1     1      0     528
                                              0 COMRAM     1     1      0
                               _um_4
                             _zero_4
 ---------------------------------------------------------------------------------
 (10) _zero_4                                              0     0      0       0
 ---------------------------------------------------------------------------------
 (10) _um_4                                                0     0      0       0
 ---------------------------------------------------------------------------------
 (9) _SendBuffCh3                                          1     1      0     528
                                              0 COMRAM     1     1      0
                               _um_3
                             _zero_3
 ---------------------------------------------------------------------------------
 (10) _zero_3                                              0     0      0       0
 ---------------------------------------------------------------------------------
 (10) _um_3                                                0     0      0       0
 ---------------------------------------------------------------------------------
 (9) _SendBuffCh2                                          1     1      0     528
                                              0 COMRAM     1     1      0
                               _um_2
                             _zero_2
 ---------------------------------------------------------------------------------
 (10) _zero_2                                              0     0      0       0
 ---------------------------------------------------------------------------------
 (10) _um_2                                                0     0      0       0
 ---------------------------------------------------------------------------------
 (9) _SendBuffCh1                                          1     1      0     528
                                              0 COMRAM     1     1      0
                               _um_1
                             _zero_1
 ---------------------------------------------------------------------------------
 (10) _zero_1                                              0     0      0       0
 ---------------------------------------------------------------------------------
 (10) _um_1                                                0     0      0       0
 ---------------------------------------------------------------------------------
 (9) _SendBuffCh0                                          1     1      0     528
                                              0 COMRAM     1     1      0
                               _um_0
                             _zero_0
 ---------------------------------------------------------------------------------
 (10) _zero_0                                              0     0      0       0
 ---------------------------------------------------------------------------------
 (10) _um_0                                                0     0      0       0
 ---------------------------------------------------------------------------------
 (8) _AppTimer10ms                                         0     0      0       0
 ---------------------------------------------------------------------------------
 (8) _AppTimer100ms                                        0     0      0       0
 ---------------------------------------------------------------------------------
 (5) _EUSART1_Transmit_ISR                                 0     0      0       0
 ---------------------------------------------------------------------------------
 (5) _EUSART1_Receive_ISR                                  1     1      0    3301
                                             27 COMRAM     1     1      0
                   _AppINT_USART1_RX
 ---------------------------------------------------------------------------------
 (6) _AppINT_USART1_RX                                    19    19      0    3277
                                              9 COMRAM    18    18      0
                      _EUSART1_Write
                             _SetLED
 ---------------------------------------------------------------------------------
 (7) _SetLED                                               9     4      5    2611
                                              0 COMRAM     9     4      5
 ---------------------------------------------------------------------------------
 (7) _EUSART1_Write                                        1     1      0      15
                                              0 COMRAM     1     1      0
 ---------------------------------------------------------------------------------
 Estimated maximum stack depth 10
 ---------------------------------------------------------------------------------

 Call Graph Graphs:

 _main (ROOT)
   _AppInitialize
   _AppProcess
   _SYSTEM_Initialize
     _EUSART1_Initialize
     _INTERRUPT_Initialize
     _OSCILLATOR_Initialize
     _PIN_MANAGER_Initialize
     _TMR0_Initialize
       _TMR0_StartTimer

 _INTERRUPT_InterruptManager (ROOT)
   _EUSART1_Receive_ISR
     _AppINT_USART1_RX
       _EUSART1_Write
       _SetLED
   _EUSART1_Transmit_ISR
   _TMR0_ISR
     _TMR0_CallBack
       _AppTimer30us
         _AppTimer100ms
         _AppTimer10ms
         _AppTimer1ms
           _SendBuffCh0
             _um_0
             _zero_0
           _SendBuffCh1
             _um_1
             _zero_1
           _SendBuffCh2
             _um_2
             _zero_2
           _SendBuffCh3
             _um_3
             _zero_3
           _SendBuffCh4
             _um_4
             _zero_4
           _SendBuffCh5
             _um_5
             _zero_5
           _SendBuffCh6
             _um_6
             _zero_6
         _AppTimer1s

 Address spaces:
Name               Size   Autos  Total    Cost      Usage
BIGRAM             5FF      0       0      16        0.0%
EEDATA             100      0       0       0        0.0%
BITBANK5           100      0       0      14        0.0%
BANK5              100      0      C0      15       75.0%
BITBANK4           100      0       0      12        0.0%
BANK4              100      0     100      13      100.0%
BITBANK3           100      0       0      10        0.0%
BANK3              100      0     100      11      100.0%
BITBANK2           100      0       0       7        0.0%
BANK2              100      0     100       8      100.0%
BITBANK1           100      0       0       5        0.0%
BANK1              100      0     100       6      100.0%
BITBANK0            A0      0       0       3        0.0%
BANK0               A0      0      80       4       80.0%
BITCOMRAM           5E      0       0       0        0.0%
COMRAM              5E     2A      57       1       92.6%
BITSFR_1             0      0       0     200        0.0%
SFR_1                0      0       0     200        0.0%
BITSFR               0      0       0     200        0.0%
SFR                  0      0       0     200        0.0%
STACK                0      0       0       2        0.0%
NULL                 0      0       0       0        0.0%
ABS                  0      0     597       9        0.0%
DATA                 0      0     597      17        0.0%
CODE                 0      0       0       0        0.0%


Microchip Technology PIC18 Macro Assembler V1.41 build -162212810 
Symbol Table                                                                                   Mon May 17 22:53:33 2021

                                 _B0 01C0                                   _B1 0100  
                                 _B2 0240                                   _B3 0380  
                                 _B4 04C0                                   _B5 0400  
                                 _B6 0500                                   _G0 0060  
                                 _G1 0140                                   _G2 0280  
                                 _G3 03C0                                   _G4 0300  
                                 _G5 0440                                   _G6 0540  
                                 _R0 00A0                                   _R1 0180  
                                 _R2 02C0                                   _R3 0200  
                                 _R4 0340                                   _R5 0480  
                                 _R6 0580                         __CFG_CP0$OFF 000000  
                       __CFG_CP1$OFF 000000                         __CFG_CP2$OFF 000000  
                       __CFG_CP3$OFF 000000                  __end_of_AppTimer1ms 1BD0  
              __end_of_AppInitialize 1FAE                                  l123 1F76  
                                l181 1F68                                  l276 1FBC  
                       __CFG_CPB$OFF 000000                         __CFG_CPD$OFF 000000  
                                _Idx 004E                                  prod 000FF3  
                                wreg 000FE8                 __end_of_AppTimer10ms 1FC2  
               __end_of_AppTimer30us 1CF8                         __CFG_LVP$OFF 000000  
                               _LATA 000F89                                 _LATB 000F8A  
                               _LATC 000F8B                                 i2l91 004E  
                               i2l92 006E                                 i2l93 005A  
                               i2l95 0066                                 _WPUB 000F61  
                      _EUSART1_Write 1FA0                                 _main 1F58  
                               _um_0 1E02                                 _um_1 1DDE  
                               _um_2 1DBA                                 _um_3 1D96  
                               _um_4 1D72                                 _um_5 1D4E  
                               _um_6 1D2A                      _TMR0_StartTimer 1FB4  
                               fsr0h 000FEA                                 fsr1h 000FE2  
                               fsr2h 000FDA                                 fsr0l 000FE9  
                               indf2 000FDF                                 fsr1l 000FE1  
                               fsr2l 000FD9                                 btemp 0058  
                      __CFG_BORV$190 000000                                 prodh 000FF4  
                               prodl 000FF3                                 start 00AC  
                      __CFG_IESO$OFF 000000                           SetLED@blue 0009  
              __end_of_AppTimer100ms 1FC4                           SetLED@type 0001  
                       ___param_bank 000000                           _AppTimer1s 1FBE  
                         _AppProcess 1FBC              __end_of_TMR0_Initialize 1F58  
     __size_of_OSCILLATOR_Initialize 0012        __end_of_OSCILLATOR_Initialize 1F7C  
               AppTimer30us@count1ms 0055                                ?_main 0001  
                              ?_um_0 0001                                ?_um_1 0001  
                              ?_um_2 0001                                ?_um_3 0001  
                              ?_um_4 0001                                ?_um_5 0001  
                              ?_um_6 0001                                _T0CON 000FD5  
                              _LATB0 007C50                                _LATB1 007C51  
                              _LATB2 007C52                                _LATB3 007C53  
                              _LATB4 007C54                                _LATB5 007C55  
                              _LATC3 007C5B                                i2l169 1F20  
                              i2l774 03D2                                i2l758 0258  
                              _TMR0H 000FD7                                _TMR0L 000FD6  
                              _TRISA 000F92                                _TRISB 000F93  
                              _TRISC 000F94                        __CFG_WRT0$OFF 000000  
                      __CFG_WRT1$OFF 000000                        __CFG_WRT2$OFF 000000  
                      __CFG_WRT3$OFF 000000                 _EUSART1_Transmit_ISR 1FB8  
                     __CFG_EBTR0$OFF 000000                       __CFG_FCMEN$OFF 000000  
                     __CFG_EBTR1$OFF 000000                       __CFG_EBTR2$OFF 000000  
                     __CFG_EBTR3$OFF 000000                     __end_of_TMR0_ISR 1F8C  
                      __CFG_WRTB$OFF 000000                        __CFG_WRTC$OFF 000000  
                      __CFG_WRTD$OFF 000000                       __CFG_EBTRB$OFF 000000  
                              _ftest 0057                   __CFG_MCLRE$EXTMCLR 000000  
                     ?_EUSART1_Write 0001                                pclath 000FFA  
                              tablat 000FF5                                status 000FD8  
                     __CFG_HFOFST$ON 000000                       __CFG_PBADEN$ON 000000  
                   _AppINT_USART1_RX 00B0                          SetLED@green 0008  
                      ??_SendBuffCh0 0001                        ??_SendBuffCh1 0001  
                      ??_SendBuffCh2 0001                        ??_SendBuffCh3 0001  
                      ??_SendBuffCh4 0001                        ??_SendBuffCh5 0001  
                      ??_SendBuffCh6 0001                      __initialization 1BD0  
                        _AppTimer1ms 1AC4           __end_of_EUSART1_Initialize 1F14  
                       __end_of_main 1F6A                         __end_of_um_0 1E26  
                       __end_of_um_1 1E02                         __end_of_um_2 1DDE  
                       __end_of_um_3 1DBA                         __end_of_um_4 1D96  
                       __end_of_um_5 1D72                         __end_of_um_6 1D4E  
        ?_INTERRUPT_InterruptManager 0001                               ??_main 0000  
                             ??_um_0 0001                               ??_um_1 0001  
                             ??_um_2 0001                               ??_um_3 0001  
                             ??_um_4 0001                               ??_um_5 0001  
                             ??_um_6 0001                        __activetblptr 000000  
                     __CFG_PLLCFG$ON 000000                ?_EUSART1_Transmit_ISR 0001  
              AppTimer30us@count10ms 0053              __end_of_TMR0_StartTimer 1FB8  
                             _ANSELA 000F38                               _ANSELB 000F39  
                             _ANSELC 000F3A                               _RC1STA 000FAB  
                             i2l3011 13B6                               i2l3003 1392  
                             i2l3101 1596                               i2l3021 13F2  
                             i2l3005 1396                               i2l3111 15D2  
                             i2l3023 13F6                               i2l3015 13D2  
                             i2l3113 15D6                               i2l3105 15B2  
                             i2l3041 1456                               i2l3033 1432  
                             i2l3017 13D6                               i2l3009 13B2  
                             i2l3201 11AE                               i2l4011 1A7E  
                             i2l4003 19F2                               i2l3107 15B6  
                             i2l3051 1492                               i2l3035 1436  
                             i2l3027 1412                               i2l3203 11B2  
                             i2l3131 1032                               i2l3123 100E  
                             i2l3117 15F2                               i2l3053 1496  
                             i2l3045 1472                               i2l3029 1416  
                             i2l3221 1212                               i2l3213 11EE  
                             i2l3141 106E                               i2l3125 1012  
                             i2l4007 1A38                               i2l4103 0388  
                             i2l4111 03DC                               i2l3071 14F6  
                             i2l3063 14D2                               i2l3047 1476  
                             i2l3039 1452                               i2l3231 124E  
                             i2l3215 11F2                               i2l3207 11CE  
                             i2l3143 1072                               i2l3135 104E  
                             i2l3311 0DEE                               i2l3303 0DCA  
                             i2l4041 0212                               i2l3081 1532  
                             i2l3065 14D6                               i2l3057 14B2  
                             i2l3233 1252                               i2l3225 122E  
                             i2l3209 11D2                               i2l3161 10D2  
                             i2l3153 10AE                               i2l3137 1052  
                             i2l3129 102E                               i2l3401 0FCE  
                             i2l3321 0E2A                               i2l3305 0DCE  
                             i2l3083 1536                               i2l3075 1512  
                             i2l3059 14B6                               i2l3251 12B2  
                             i2l3243 128E                               i2l3227 1232  
                             i2l3219 120E                               i2l3171 110E  
                             i2l3155 10B2                               i2l3147 108E  
                             i2l3323 0E2E                               i2l3315 0E0A  
                             i2l3411 0A06                               i2l4109 03C2  
                             i2l4053 0248                               i2l4045 0224  
                             i2l4037 0202                               i2l3093 1572  
                             i2l3077 1516                               i2l3069 14F2  
                             i2l3261 12EE                               i2l3245 1292  
                             i2l3237 126E                               i2l3173 1112  
                             i2l3165 10EE                               i2l3149 1092  
                             i2l3405 0FEA                               i2l3341 0E8E  
                             i2l3333 0E6A                               i2l3317 0E0E  
                             i2l3309 0DEA                               i2l3501 0BE6  
                             i2l3413 0A0A                       __CFG_WDTEN$OFF 000000  
                             i2l4071 02C0                               i2l3095 1576  
                             i2l3087 1552                               i2l3255 12CE  
                             i2l3239 1272                               i2l3191 1172  
                             i2l3183 114E                               i2l3167 10F2  
                             i2l3159 10CE                               i2l3351 0ECA  
                             i2l3335 0E6E                               i2l3327 0E4A  
                             i2l3503 0BEA                               i2l3431 0A6A  
                             i2l3423 0A46                               i2l4081 030A  
                             i2l4065 02A8                               i2l4049 0236  
                             i2l4057 0264                               i2l3089 1556  
                             i2l3257 12D2                               i2l3249 12AE  
                             i2l3185 1152                               i2l3177 112E  
                             i2l3353 0ECE                               i2l3345 0EAA  
                             i2l3329 0E4E                               i2l3281 0D4E  
                             i2l3273 0D2A                               i2l3521 0C4A  
                             i2l3513 0C26                               i2l3441 0AA6  
                             i2l3425 0A4A                               i2l3417 0A26  
                             i2l4083 0312                               i2l4067 02B0  
                             i2l3099 1592                               i2l3195 118E  
                             i2l3179 1132                               i2l3371 0F2E  
                             i2l3363 0F0A                               i2l3347 0EAE  
                             i2l3339 0E8A                               i2l3291 0D8A  
                             i2l3275 0D2E                               i2l3267 0D0A  
                             i2l3531 0C86                               i2l3515 0C2A  
                             i2l3507 0C06                               i2l3443 0AAA  
                             i2l3435 0A86                               i2l3419 0A2A  
                             i2l3611 0826                               i2l3603 0802  
                             i2l4093 035C                               i2l2901 1776  
                             i2l3197 1192                               i2l3189 116E  
                             i2l3381 0F6A                               i2l3365 0F0E  
                             i2l3357 0EEA                               i2l3293 0D8E  
                             i2l3285 0D6A                               i2l3269 0D0E  
                             i2l3533 0C8A                               i2l3525 0C66  
                             i2l3509 0C0A                               i2l3461 0B0A  
                             i2l3453 0AE6                               i2l3437 0A8A  
                             i2l3429 0A66                               i2l3621 0862  
                             i2l3605 0806                               i2l3701 0402  
                             i2l4087 0322                               i2l4095 035E  
                             i2l4079 02FA                               i2l2903 177A  
                             i2l3383 0F6E                               i2l3375 0F4A  
                             i2l3359 0EEE                               i2l3287 0D6E  
                             i2l3279 0D4A                               i2l3543 0CC6  
                             i2l3527 0C6A                               i2l3519 0C46  
                             i2l3471 0B46                               i2l3455 0AEA  
                             i2l3447 0AC6                               i2l3623 0866  
                             i2l3615 0842                               i2l3711 043E  
                             i2l4097 0370                               i2l2921 17DA  
                             i2l2913 17B6                               i2l2841 1636  
                             i2l3393 0FAA                               i2l3377 0F4E  
                             i2l3369 0F2A                               i2l3297 0DAA  
                             i2l3545 0CCA                               i2l3537 0CA6  
                             i2l3473 0B4A                               i2l3465 0B26  
                             i2l3449 0ACA                               i2l3641 08C6  
                             i2l3633 08A2                               i2l3617 0846  
                             i2l3609 0822                               i2l3561 0722  
                             i2l3801 061E                               i2l3713 0442  
                             i2l3705 041E                               i2l4099 0378  
                             i2l2931 1816                               i2l2915 17BA  
                             i2l2907 1796                               i2l2843 163A  
                             i2l2835 1616                               i2l3395 0FAE  
                             i2l3387 0F8A                               i2l3299 0DAE  
                             i2l3539 0CAA                               i2l3491 0BAA  
                             i2l3483 0B86                               i2l3467 0B2A  
                             i2l3459 0B06                               i2l3651 0902  
                             i2l3635 08A6                               i2l3627 0882  
                             i2l3563 0726                               i2l3555 0702  
                             i2l3803 0622                               i2l3731 04A2  
                             i2l3723 047E                               i2l3707 0422  
                             i2l2933 181A                               i2l2925 17F6  
                             i2l2909 179A                               i2l2861 169A  
                             i2l2853 1676                               i2l2837 161A  
                             i2l3389 0F8E                               i2l3549 0CE6  
                             i2l3485 0B8A                               i2l3477 0B66  
                             i2l3653 0906                               i2l3645 08E2  
                             i2l3629 0886                               i2l3581 0786  
                             i2l3573 0762                               i2l3557 0706  
                             i2l3821 0682                               i2l3813 065E  
                             i2l3741 04DE                               i2l3725 0482  
                             i2l3717 045E                               i2l3901 1B54  
                             i2l2951 187A                               i2l2943 1856  
                             i2l2927 17FA                               i2l2919 17D6  
                             i2l2871 16D6                               i2l2855 167A  
                             i2l2847 1656                               i2l3399 0FCA  
                             i2l3495 0BC6                               i2l3479 0B6A  
                             i2l3671 0966                               i2l3663 0942  
                             i2l3647 08E6                               i2l3639 08C2  
                             i2l3591 07C2                               i2l3575 0766  
                             i2l3567 0742                               i2l3831 06BE  
                             i2l3815 0662                               i2l3807 063E  
                             i2l3743 04E2                               i2l3735 04BE  
                             i2l3719 0462                               i2l3911 1B70  
                             i2l3903 1B5C                               i2l2961 18B6  
                             i2l2945 185A                               i2l2937 1836  
                             i2l2873 16DA                               i2l2865 16B6  
                             i2l2849 165A                               i2l3497 0BCA  
                             i2l3489 0BA6                               i2l3681 09A2  
                             i2l3665 0946                               i2l3657 0922  
                             i2l3593 07C6                               i2l3585 07A2  
                             i2l3569 0746                               i2l3833 06C2  
                             i2l3825 069E                               i2l3809 0642  
                             i2l3761 0542                               i2l3753 051E  
                             i2l3737 04C2                               i2l3729 049E  
                             i2l2963 18BA                               i2l2955 1896  
                             i2l2939 183A                               i2l2891 173A  
                             i2l2883 1716                               i2l2867 16BA  
                             i2l2859 1696                               i2l3683 09A6  
                             i2l3675 0982                               i2l3659 0926  
                             i2l3587 07A6                               i2l3579 0782  
                             i2l3827 06A2                               i2l3819 067E  
                             i2l3771 057E                               i2l3755 0522  
                             i2l3747 04FE                               i2l3923 1B8E  
                             i2l3907 1B68                               i2l3843 1AD0  
                             i2l2973 18F6                               i2l2957 189A  
                             i2l2949 1876                               i2l2885 171A  
                             i2l2877 16F6                               i2l2981 1316  
                             i2l3693 09E2                               i2l3677 0986  
                             i2l3669 0962                               i2l3597 07E2  
                             i2l3837 06DE                               i2l3773 0582  
                             i2l3765 055E                               i2l3749 0502  
                             i2l3933 1BA0                               i2l3917 1B7A  
                             i2l3853 1AE2                               i2l2967 18D6  
                             i2l2895 1756                               i2l2879 16FA  
                             i2l2991 1352                               i2l3687 09C2  
                             i2l3599 07E6                               i2l3791 05E2  
                             i2l3783 05BE                               i2l3767 0562  
                             i2l3759 053E                               i2l3943 1BBC  
                             i2l3927 1B96                               i2l3935 1BA8  
                             i2l3919 1B82                               i2l3863 1AFE  
                             i2l3871 1B10                               i2l3847 1AD8  
                             i2l3855 1AEA                               i2l2969 18DA  
                             i2l2897 175A                               i2l2889 1736  
                             i2l2993 1356                               i2l2985 1332  
                             i2l3689 09C6                               i2l3785 05C2  
                             i2l3777 059E                               i2l2987 1336  
                             i2l2979 1312                               i2l3795 05FE  
                             i2l3779 05A2                               i2l3699 03FE  
                             i2l3939 1BB4                               i2l3891 1B42  
                             i2l3875 1B1C                               i2l3859 1AF6  
                             i2l3971 1CC8                               i2l3963 1CA6  
                             i2l3955 1C84                               i2l2997 1372  
                             i2l3797 0602                               i2l3789 05DE  
                             i2l3949 1BC6                               i2l3885 1B2E  
                             i2l3869 1B08                               i2l3991 1924  
                             i2l2999 1376                               i2l3895 1B4A  
                             i2l3879 1B24                               i2l3887 1B36  
                             i2l3995 1968                               i2l3987 1912  
                             i2l3979 1CEA                               i2l3999 19AC  
                             _RCREG1 000FAE                               _OSCCON 000FD3  
                             _PLLRDY 007E97                               _SPBRG1 000FAF  
                             _TX1STA 000FAC                               _TXREG1 000FAD  
                             _Buffer 002B                               _SetLED 18FC  
                     __CFG_XINST$OFF 000000                          ?_AppTimer1s 0001  
                        ?_AppProcess 0001                       __CFG_STVREN$ON 000000  
                   ?_TMR0_Initialize 0001                               clear_0 1BF6  
                             clear_1 1C04                               clear_2 1C18  
                             clear_3 1C2C                               clear_4 1C40  
                             clear_5 1C52                               clear_6 1C5E  
                __end_of_SendBuffCh0 18FC                  __end_of_SendBuffCh1 15F8  
                __end_of_SendBuffCh2 12F4                  __end_of_SendBuffCh3 0FF0  
                __end_of_SendBuffCh4 0CEC                  __end_of_SendBuffCh5 09E8  
                __end_of_SendBuffCh6 06E4                               _zero_0 1EDA  
                             _zero_1 1EBC                               _zero_2 1E9E  
                             _zero_3 1E80                               _zero_4 1E62  
                             _zero_5 1E44                               _zero_6 1E26  
              __size_of_AppTimer10ms 0002                __size_of_AppTimer30us 008A  
                       __pdataCOMRAM 004F                               tblptrh 000FF7  
                             tblptrl 000FF6                               tblptru 000FF8  
              __end_of_TMR0_CallBack 1FB4                      ??_EUSART1_Write 0001  
      __size_of_INTERRUPT_Initialize 000A                    _SYSTEM_Initialize 1F2C  
                         __accesstop 0060              __end_of__initialization 1C64  
                 ?_SYSTEM_Initialize 0001                        ___rparam_used 000001  
                       SetLED@color1 0003                         SetLED@color2 0004  
                       SetLED@color3 0005                       __pcstackCOMRAM 0001  
                       _AppTimer10ms 1FC0                         _AppTimer30us 1C6E  
                ??_SYSTEM_Initialize 0000                            ?_TMR0_ISR 0001  
             ??_EUSART1_Transmit_ISR 0001          __end_of_EUSART1_Receive_ISR 1F2C  
            AppINT_USART1_RX@channel 001B                     ?_TMR0_StartTimer 0001  
                __size_of_AppTimer1s 0002            __end_of_SYSTEM_Initialize 1F42  
                __size_of_AppProcess 0002                           __pbssBANK0 0060  
                         __pbssBANK1 0100                           __pbssBANK2 0200  
                         __pbssBANK3 0300                           __pbssBANK4 0400  
                         __pbssBANK5 0500                AppINT_USART1_RX@c_801 0015  
              AppINT_USART1_RX@c_802 0017                AppINT_USART1_RX@c_803 0019  
             AppTimer30us@count100ms 0051                AppINT_USART1_RX@green 0010  
                            ?_SetLED 0001                  AppINT_USART1_RX@cmd 0014  
                AppINT_USART1_RX@red 000F                  AppINT_USART1_RX@pos 000E  
                 __CFG_CCP2MX$PORTC1 000000                          _SendBuffCh0 15F8  
                        _SendBuffCh1 12F4                          _SendBuffCh2 0FF0  
                        _SendBuffCh3 0CEC                          _SendBuffCh4 09E8  
                        _SendBuffCh5 06E4                          _SendBuffCh6 03E0  
                         ??_TMR0_ISR 0002                   __CFG_CCP3MX$PORTB5 000000  
                            ?_zero_0 0001                              ?_zero_1 0001  
                            ?_zero_2 0001                              ?_zero_3 0001  
                            ?_zero_4 0001                              ?_zero_5 0001  
                            ?_zero_6 0001             __end_of_AppINT_USART1_RX 03E0  
                            _OSCCON2 000FD2                              _OSCTUNE 000F9B  
                            _SPBRGH1 000FB0               __size_of_AppInitialize 0006  
                    __CFG_PWRTEN$OFF 000000                              __Hparam 0000  
                            __Lparam 0000                      __size_of_SetLED 01C8  
    EUSART1_Receive_ISR@byteReceived 001C                         ?_AppTimer1ms 0001  
                            __pcinit 1BD0                              __ramtop 0600  
                            __ptext0 1F58                              __ptext1 1F2C  
                            __ptext2 1F42                              __ptext3 1FB4  
                            __ptext4 1CF8                              __ptext5 1F6A  
                            __ptext6 1F8C                              __ptext7 1EF8  
                            __ptext8 1FBC                              __ptext9 1FA8  
                          _T0CONbits 000FD5                      __size_of_zero_0 001E  
                    __size_of_zero_1 001E                      __size_of_zero_2 001E  
                    __size_of_zero_3 001E                      __size_of_zero_4 001E  
                    __size_of_zero_5 001E                      __size_of_zero_6 001E  
              _OSCILLATOR_Initialize 1F6A                   _EUSART1_Initialize 1EF8  
           ??_PIN_MANAGER_Initialize 0000               __size_of_AppTimer100ms 0002  
         __size_of_SYSTEM_Initialize 0016                 end_of_initialization 1C64  
                ?_EUSART1_Initialize 0001                         ??_AppTimer1s 0001  
                       ??_AppProcess 0000                              postdec1 000FE5  
                            postinc0 000FEE                              postinc2 000FDE  
               ??_EUSART1_Initialize 0000                        _AppInitialize 1FA8  
                EUSART1_Write@txData 0001                   __end_of_AppTimer1s 1FC0  
                 __end_of_AppProcess 1FBE                        SetLED@channel 0006  
                          SetLED@led 0002                            SetLED@red 0007  
               _timer0ReloadVal16bit 004B                        _AppTimer100ms 1FC2  
                     __end_of_SetLED 1AC4         __end_of_INTERRUPT_Initialize 1F96  
                      __pidataCOMRAM 1F96                    __size_of_TMR0_ISR 0010  
             ?_OSCILLATOR_Initialize 0001                       ?_AppInitialize 0001  
                     __end_of_zero_0 1EF8                       __end_of_zero_1 1EDA  
                     __end_of_zero_2 1EBC                       __end_of_zero_3 1E9E  
                     __end_of_zero_4 1E80                       __end_of_zero_5 1E62  
                     __end_of_zero_6 1E44                  start_initialization 1BD0  
           __size_of_TMR0_Initialize 0016      __size_of_PIN_MANAGER_Initialize 0032  
              __end_of_EUSART1_Write 1FA8                             ??_SetLED 0006  
                     ?_AppTimer100ms 0001                         ?_SendBuffCh0 0001  
                       ?_SendBuffCh1 0001                         ?_SendBuffCh2 0001  
                       ?_SendBuffCh3 0001                         ?_SendBuffCh4 0001  
                       ?_SendBuffCh5 0001                         ?_SendBuffCh6 0001  
           AppINT_USART1_RX@data_cnt 003B               __size_of_TMR0_CallBack 0006  
               __size_of_AppTimer1ms 010C                             ??_zero_0 0001  
                           ??_zero_1 0001                             ??_zero_2 0001  
                           ??_zero_3 0001                             ??_zero_4 0001  
                           ??_zero_5 0001                             ??_zero_6 0001  
                        __pbssCOMRAM 002B        __size_of_EUSART1_Transmit_ISR 0004  
                      __pcstackBANK0 0000                    ?_AppINT_USART1_RX 0001  
                 ??_AppINT_USART1_RX 000A              AppTimer30us@count1000ms 004F  
       __size_of_EUSART1_Receive_ISR 0018               AppINT_USART1_RX@rxData 0013  
           __size_of_TMR0_StartTimer 0004                 AppINT_USART1_RX@blue 0011  
             _PIN_MANAGER_Initialize 1CF8                 AppINT_USART1_RX@type 0012  
                          __pintcode 0008                      ??_AppInitialize 0000  
       ??_INTERRUPT_InterruptManager 001D                     __CFG_PRICLKEN$ON 000000  
                           _BAUD1CON 000FB8                        _TMR0_CallBack 1FAE  
               _INTERRUPT_Initialize 1F8C                    ??_TMR0_Initialize 0000  
                           _IPR1bits 000F9F                             _PIE1bits 000F9D  
                    ??_AppTimer100ms 0001  __size_of_INTERRUPT_InterruptManager 00A4  
                           i2u425_40 1C7C                             _PIR1bits 000F9E  
                           i2u426_40 1C9E                             i2u427_40 1CC0  
                           i2u452_40 0308                             i2u428_40 1CE2  
                           i2u447_40 02A6                             i2u457_40 036E  
                           _RCONbits 000FD0                     __CFG_WDTPS$32768 000000  
                           _TMR0_ISR 1F7C                       ?_TMR0_CallBack 0001  
                           _IdxFrame 004D                          _INTCON2bits 000FF1  
                          copy_data0 1BE4                ?_INTERRUPT_Initialize 0001  
                           __Hrparam 0000                             __Lrparam 0000  
                      ?_AppTimer10ms 0001                   __CFG_BOREN$SBORDIS 000000  
                      ?_AppTimer30us 0001                    __CFG_P2BMX$PORTB5 000000  
            ??_OSCILLATOR_Initialize 0000                    ??_TMR0_StartTimer 0000  
               __size_of_SendBuffCh0 0304                 __size_of_SendBuffCh1 0304  
               __size_of_SendBuffCh2 0304                 __size_of_SendBuffCh3 0304  
               __size_of_SendBuffCh4 0304                 __size_of_SendBuffCh5 0304  
               __size_of_SendBuffCh6 0304          __size_of_EUSART1_Initialize 001C  
                           __ptext11 1F7C                             __ptext20 1E44  
                           __ptext12 1FAE                             __ptext21 1D4E  
                           __ptext13 1C6E                             __ptext30 1DBA  
                           __ptext22 09E8                             __ptext14 1FBE  
                           __ptext31 12F4                             __ptext23 1E62  
                           __ptext15 1AC4                             __ptext40 1F14  
                           __ptext32 1EBC                             __ptext24 1D72  
                           __ptext16 03E0                             __ptext41 00B0  
                           __ptext33 1DDE                             __ptext25 0CEC  
                           __ptext17 1E26                             __ptext42 18FC  
                           __ptext34 15F8                             __ptext26 1E80  
                           __ptext18 1D2A                             __ptext43 1FA0  
                           __ptext35 1EDA                             __ptext27 1D96  
                           __ptext19 06E4                             __ptext36 1E02  
                           __ptext28 0FF0                             __ptext37 1FC0  
                           __ptext29 1E9E                             __ptext38 1FC2  
                           __ptext39 1FB8                         _ShootLedsCh0 0049  
                       _ShootLedsCh1 0047                         _ShootLedsCh2 0045  
                       _ShootLedsCh3 0043                         _ShootLedsCh4 0041  
                       _ShootLedsCh5 003F                         _ShootLedsCh6 003D  
                      __size_of_main 0012                        __size_of_um_0 0024  
                      __size_of_um_1 0024                        __size_of_um_2 0024  
                      __size_of_um_3 0024                        __size_of_um_4 0024  
                      __size_of_um_5 0024                        __size_of_um_6 0024  
                     ??_AppTimer10ms 0001                       ??_AppTimer30us 0002  
                         _RC1STAbits 000FAB                             int$flags 0058  
 __end_of_INTERRUPT_InterruptManager 00AC           _INTERRUPT_InterruptManager 0008  
                _EUSART1_Receive_ISR 1F14                           _INTCONbits 000FF2  
                    ??_TMR0_CallBack 0002               ??_INTERRUPT_Initialize 0000  
                     SendBuffCh0@idx 0001                       SendBuffCh1@idx 0001  
                     SendBuffCh2@idx 0001                       SendBuffCh3@idx 0001  
                     SendBuffCh4@idx 0001                       SendBuffCh5@idx 0001  
                     SendBuffCh6@idx 0001                             intlevel2 0000  
               ?_EUSART1_Receive_ISR 0001              ?_PIN_MANAGER_Initialize 0001  
       __end_of_EUSART1_Transmit_ISR 1FBC            __size_of_AppINT_USART1_RX 0330  
                      ??_AppTimer1ms 0002               __size_of_EUSART1_Write 0008  
                    _TMR0_Initialize 1F42                    __CFG_T3CMX$PORTC0 000000  
              ??_EUSART1_Receive_ISR 001C       __end_of_PIN_MANAGER_Initialize 1D2A  
                  __CFG_FOSC$INTIO67 000000  
