

Microchip Technology PIC18 LITE Macro Assembler V1.41 build -162212810 
                                                                                               Sun May 23 14:12:37 2021

Microchip Technology Omniscient Code Generator v1.41 (Free mode) build 201701250102
     1                           	processor	18F25K22
     2                           	fnconf	rparam,??,?,0
     3                           	opt	pw 120
     4                           	opt	lm
     5                           	psect	idataCOMRAM,global,class=CODE,delta=1,noexec
     6                           	psect	cinit,global,reloc=2,class=CODE,delta=1
     7                           	psect	bssCOMRAM,global,class=COMRAM,space=1,delta=1,noexec
     8                           	psect	dataCOMRAM,global,class=COMRAM,space=1,delta=1,noexec
     9                           	psect	bssBANK0,global,class=BANK0,space=1,delta=1,lowdata,noexec
    10                           	psect	bssBANK1,global,class=BANK1,space=1,delta=1,lowdata,noexec
    11                           	psect	bssBANK2,global,class=BANK2,space=1,delta=1,lowdata,noexec
    12                           	psect	cstackCOMRAM,global,class=COMRAM,space=1,delta=1,noexec
    13                           	psect	text0,global,reloc=2,class=CODE,delta=1
    14                           	psect	text1,global,reloc=2,class=CODE,delta=1
    15                           	psect	text2,global,reloc=2,class=CODE,delta=1
    16                           	psect	text3,global,reloc=2,class=CODE,delta=1
    17                           	psect	text4,global,reloc=2,class=CODE,delta=1
    18                           	psect	text5,global,reloc=2,class=CODE,delta=1
    19                           	psect	text6,global,reloc=2,class=CODE,delta=1
    20                           	psect	text7,global,reloc=2,class=CODE,delta=1
    21                           	psect	text8,global,reloc=2,class=CODE,delta=1
    22                           	psect	text9,global,reloc=2,class=CODE,delta=1
    23                           	psect	intcode,global,reloc=2,class=CODE,delta=1
    24                           	psect	text11,global,reloc=2,class=CODE,delta=1
    25                           	psect	text12,global,reloc=2,class=CODE,delta=1
    26                           	psect	text13,global,reloc=2,class=CODE,delta=1
    27                           	psect	text14,global,reloc=2,class=CODE,delta=1
    28                           	psect	text15,global,reloc=2,class=CODE,delta=1
    29                           	psect	text16,global,reloc=2,class=CODE,delta=1
    30                           	psect	text17,global,reloc=2,class=CODE,delta=1
    31                           	psect	text18,global,reloc=2,class=CODE,delta=1
    32                           	psect	text19,global,reloc=2,class=CODE,delta=1
    33                           	psect	text20,global,reloc=2,class=CODE,delta=1
    34                           	psect	text21,global,reloc=2,class=CODE,delta=1
    35                           	psect	text22,global,reloc=2,class=CODE,delta=1
    36                           	psect	text23,global,reloc=2,class=CODE,delta=1
    37                           	psect	text24,global,reloc=2,class=CODE,delta=1
    38                           	psect	text25,global,reloc=2,class=CODE,delta=1
    39                           	psect	text26,global,reloc=2,class=CODE,delta=1
    40                           	psect	text27,global,reloc=2,class=CODE,delta=1
    41                           	psect	text28,global,reloc=2,class=CODE,delta=1
    42                           	psect	text29,global,reloc=2,class=CODE,delta=1
    43                           	psect	text30,global,reloc=2,class=CODE,delta=1
    44                           	psect	text31,global,reloc=2,class=CODE,delta=1
    45                           	psect	text32,global,reloc=2,class=CODE,delta=1
    46                           	psect	text33,global,reloc=2,class=CODE,delta=1
    47                           	psect	text34,global,reloc=2,class=CODE,delta=1
    48                           	psect	text35,global,reloc=2,class=CODE,delta=1
    49                           	psect	text36,global,reloc=2,class=CODE,delta=1
    50                           	psect	text37,global,reloc=2,class=CODE,delta=1
    51                           	psect	text38,global,reloc=2,class=CODE,delta=1
    52                           	psect	intsave_regs,global,class=BIGRAM,space=1,delta=1,noexec
    53                           	psect	rparam,global,class=COMRAM,space=1,delta=1,noexec
    54                           	psect	temp,global,ovrld,common,class=COMRAM,space=1,delta=1
    55  0000                     
    56                           ; Version 1.41
    57                           ; Generated 25/01/2017 GMT
    58                           ; 
    59                           ; Copyright © 2017, Microchip Technology Inc. and its subsidiaries ("Microchip")
    60                           ; All rights reserved.
    61                           ; 
    62                           ; This software is developed by Microchip Technology Inc. and its subsidiaries ("Microch
      +                          ip").
    63                           ; 
    64                           ; Redistribution and use in source and binary forms, with or without modification, are
    65                           ; permitted provided that the following conditions are met:
    66                           ; 
    67                           ;     1. Redistributions of source code must retain the above copyright notice, this lis
      +                          t of
    68                           ;        conditions and the following disclaimer.
    69                           ; 
    70                           ;     2. Redistributions in binary form must reproduce the above copyright notice, this 
      +                          list
    71                           ;        of conditions and the following disclaimer in the documentation and/or other
    72                           ;        materials provided with the distribution.
    73                           ; 
    74                           ;     3. Microchip's name may not be used to endorse or promote products derived from th
      +                          is
    75                           ;        software without specific prior written permission.
    76                           ; 
    77                           ; THIS SOFTWARE IS PROVIDED BY MICROCHIP "AS IS" AND ANY EXPRESS OR IMPLIED WARRANTIES,
    78                           ; INCLUDING, BUT NOT LIMITED TO, THE IMPLIED WARRANTIES OF MERCHANTABILITY AND FITNESS F
      +                          OR
    79                           ; PURPOSE ARE DISCLAIMED.  IN NO EVENT SHALL MICROCHIP BE LIABLE FOR ANY DIRECT, INDIREC
      +                          T,
    80                           ; INCIDENTAL, SPECIAL, EXEMPLARY, OR CONSEQUENTIAL DAMAGES (INCLUDING BUT NOT LIMITED TO
    81                           ; PROCUREMENT OF SUBSTITUTE GOODS OR SERVICES; LOSS OF USE, DATA OR PROFITS; OR BUSINESS
    82                           ; INTERRUPTION) HOWSOEVER CAUSED AND ON ANY THEORY OF LIABILITY, WHETHER IN CONTRACT, ST
      +                          RICT
    83                           ; LIABILITY, OR TORT (INCLUDING NEGLIGENCE OR OTHERWISE) ARISING IN ANY WAY OUT OF THE U
      +                          SE OF
    84                           ; THIS SOFTWARE, EVEN IF ADVISED OF THE POSSIBILITY OF SUCH DAMAGE.
    85                           ; 
    86                           ; 
    87                           ; Code-generator required, PIC18F25K22 Definitions
    88                           ; 
    89                           ; SFR Addresses
    90  0000                     
    91                           	psect	idataCOMRAM
    92  001D58                     __pidataCOMRAM:
    93                           	opt stack 0
    94                           
    95                           ;initializer for AppTimer30us@count1000ms
    96  001D58  0009               	dw	9
    97                           
    98                           ;initializer for AppTimer30us@count100ms
    99  001D5A  0009               	dw	9
   100                           
   101                           ;initializer for AppTimer30us@count10ms
   102  001D5C  0009               	dw	9
   103                           
   104                           ;initializer for AppTimer30us@count1ms
   105  001D5E  0004               	dw	4
   106  0000                     _ANSELC	set	3898
   107  0000                     _ANSELB	set	3897
   108  0000                     _ANSELA	set	3896
   109  0000                     _RCREG1	set	4014
   110  0000                     _RC1STAbits	set	4011
   111  0000                     _TXREG1	set	4013
   112  0000                     _SPBRG1	set	4015
   113  0000                     _SPBRGH1	set	4016
   114  0000                     _TX1STA	set	4012
   115  0000                     _RC1STA	set	4011
   116  0000                     _BAUD1CON	set	4024
   117  0000                     _OSCTUNE	set	3995
   118  0000                     _OSCCON2	set	4050
   119  0000                     _OSCCON	set	4051
   120  0000                     _PIR1bits	set	3998
   121  0000                     _PIE1bits	set	3997
   122  0000                     _IPR1bits	set	3999
   123  0000                     _RCONbits	set	4048
   124  0000                     _INTCON2bits	set	4081
   125  0000                     _TRISC	set	3988
   126  0000                     _LATC	set	3979
   127  0000                     _WPUB	set	3937
   128  0000                     _TRISB	set	3987
   129  0000                     _LATB	set	3978
   130  0000                     _TRISA	set	3986
   131  0000                     _LATA	set	3977
   132  0000                     _T0CONbits	set	4053
   133  0000                     _INTCONbits	set	4082
   134  0000                     _TMR0L	set	4054
   135  0000                     _TMR0H	set	4055
   136  0000                     _T0CON	set	4053
   137  0000                     _LATC3	set	31835
   138  0000                     _LATC0	set	31832
   139  0000                     _LATB5	set	31829
   140  0000                     _LATB4	set	31828
   141  0000                     _LATB3	set	31827
   142  0000                     _LATB2	set	31826
   143  0000                     _LATB1	set	31825
   144  0000                     _LATB0	set	31824
   145  0000                     _PLLRDY	set	32407
   146                           
   147                           ; #config settings
   148  0000                     
   149                           	psect	cinit
   150  001A58                     __pcinit:
   151                           	opt stack 0
   152  001A58                     start_initialization:
   153                           	opt stack 0
   154  001A58                     __initialization:
   155                           	opt stack 0
   156                           
   157                           ; Initialize objects allocated to COMRAM (8 bytes)
   158                           ; load TBLPTR registers with __pidataCOMRAM
   159  001A58  0E58               	movlw	low __pidataCOMRAM
   160  001A5A  6EF6               	movwf	tblptrl,c
   161  001A5C  0E1D               	movlw	high __pidataCOMRAM
   162  001A5E  6EF7               	movwf	tblptrh,c
   163  001A60  0E00               	movlw	low (__pidataCOMRAM shr (0+16))
   164  001A62  6EF8               	movwf	tblptru,c
   165  001A64  EE00  F031         	lfsr	0,__pdataCOMRAM
   166  001A68  EE10 F008          	lfsr	1,8
   167  001A6C                     copy_data0:
   168  001A6C  0009               	tblrd		*+
   169  001A6E  CFF5 FFEE          	movff	tablat,postinc0
   170  001A72  50E5               	movf	postdec1,w,c
   171  001A74  50E1               	movf	fsr1l,w,c
   172  001A76  E1FA               	bnz	copy_data0
   173                           
   174                           ; Clear objects allocated to BANK2 (128 bytes)
   175  001A78  EE02  F000         	lfsr	0,__pbssBANK2
   176  001A7C  0E80               	movlw	128
   177  001A7E                     clear_0:
   178  001A7E  6AEE               	clrf	postinc0,c
   179  001A80  06E8               	decf	wreg,f,c
   180  001A82  E1FD               	bnz	clear_0
   181                           
   182                           ; Clear objects allocated to BANK1 (256 bytes)
   183  001A84  EE01  F000         	lfsr	0,__pbssBANK1
   184  001A88  EE11 F000          	lfsr	1,256
   185  001A8C                     clear_1:
   186  001A8C  6AEE               	clrf	postinc0,c
   187  001A8E  50E5               	movf	postdec1,w,c
   188  001A90  50E1               	movf	fsr1l,w,c
   189  001A92  E1FC               	bnz	clear_1
   190  001A94  50E2               	movf	fsr1h,w,c
   191  001A96  E1FA               	bnz	clear_1
   192                           
   193                           ; Clear objects allocated to BANK0 (128 bytes)
   194  001A98  EE00  F060         	lfsr	0,__pbssBANK0
   195  001A9C  0E80               	movlw	128
   196  001A9E                     clear_2:
   197  001A9E  6AEE               	clrf	postinc0,c
   198  001AA0  06E8               	decf	wreg,f,c
   199  001AA2  E1FD               	bnz	clear_2
   200                           
   201                           ; Clear objects allocated to COMRAM (25 bytes)
   202  001AA4  EE00  F001         	lfsr	0,__pbssCOMRAM
   203  001AA8  0E19               	movlw	25
   204  001AAA                     clear_3:
   205  001AAA  6AEE               	clrf	postinc0,c
   206  001AAC  06E8               	decf	wreg,f,c
   207  001AAE  E1FD               	bnz	clear_3
   208  001AB0                     end_of_initialization:
   209                           	opt stack 0
   210  001AB0                     __end_of__initialization:
   211                           	opt stack 0
   212  001AB0  9039               	bcf	int$flags,0,c	;clear compiler interrupt flag (level 1)
   213  001AB2  9239               	bcf	int$flags,1,c	;clear compiler interrupt flag (level 2)
   214  001AB4  0100               	movlb	0
   215  001AB6  EF8D  F00E         	goto	_main	;jump to C main() function
   216                           tblptru	equ	0xFF8
   217                           tblptrh	equ	0xFF7
   218                           tblptrl	equ	0xFF6
   219                           tablat	equ	0xFF5
   220                           postinc0	equ	0xFEE
   221                           wreg	equ	0xFE8
   222                           postdec1	equ	0xFE5
   223                           fsr1h	equ	0xFE2
   224                           fsr1l	equ	0xFE1
   225                           
   226                           	psect	bssCOMRAM
   227  000001                     __pbssCOMRAM:
   228                           	opt stack 0
   229  000001                     _type:
   230                           	opt stack 0
   231  000001                     	ds	2
   232  000003                     _channel:
   233                           	opt stack 0
   234  000003                     	ds	2
   235  000005                     _timer0ReloadVal16bit:
   236                           	opt stack 0
   237  000005                     	ds	2
   238  000007                     _capturando:
   239                           	opt stack 0
   240  000007                     	ds	1
   241  000008                     _len_package:
   242                           	opt stack 0
   243  000008                     	ds	1
   244  000009                     _Idx2:
   245                           	opt stack 0
   246  000009                     	ds	1
   247  00000A                     _Idx1:
   248                           	opt stack 0
   249  00000A                     	ds	1
   250  00000B                     _Idx0:
   251                           	opt stack 0
   252  00000B                     	ds	1
   253  00000C                     _ch7_len:
   254                           	opt stack 0
   255  00000C                     	ds	1
   256  00000D                     _ch6_len:
   257                           	opt stack 0
   258  00000D                     	ds	1
   259  00000E                     _ch5_len:
   260                           	opt stack 0
   261  00000E                     	ds	1
   262  00000F                     _ch4_len:
   263                           	opt stack 0
   264  00000F                     	ds	1
   265  000010                     _ch3_len:
   266                           	opt stack 0
   267  000010                     	ds	1
   268  000011                     _ch2_len:
   269                           	opt stack 0
   270  000011                     	ds	1
   271  000012                     _ch1_len:
   272                           	opt stack 0
   273  000012                     	ds	1
   274  000013                     _SendLedsCh7:
   275                           	opt stack 0
   276  000013                     	ds	1
   277  000014                     _SendLedsCh6:
   278                           	opt stack 0
   279  000014                     	ds	1
   280  000015                     _SendLedsCh5:
   281                           	opt stack 0
   282  000015                     	ds	1
   283  000016                     _SendLedsCh4:
   284                           	opt stack 0
   285  000016                     	ds	1
   286  000017                     _SendLedsCh3:
   287                           	opt stack 0
   288  000017                     	ds	1
   289  000018                     _SendLedsCh2:
   290                           	opt stack 0
   291  000018                     	ds	1
   292  000019                     _SendLedsCh1:
   293                           	opt stack 0
   294  000019                     	ds	1
   295                           tblptru	equ	0xFF8
   296                           tblptrh	equ	0xFF7
   297                           tblptrl	equ	0xFF6
   298                           tablat	equ	0xFF5
   299                           postinc0	equ	0xFEE
   300                           wreg	equ	0xFE8
   301                           postdec1	equ	0xFE5
   302                           fsr1h	equ	0xFE2
   303                           fsr1l	equ	0xFE1
   304                           
   305                           	psect	dataCOMRAM
   306  000031                     __pdataCOMRAM:
   307                           	opt stack 0
   308  000031                     AppTimer30us@count1000ms:
   309                           	opt stack 0
   310  000031                     	ds	2
   311  000033                     AppTimer30us@count100ms:
   312                           	opt stack 0
   313  000033                     	ds	2
   314  000035                     AppTimer30us@count10ms:
   315                           	opt stack 0
   316  000035                     	ds	2
   317  000037                     AppTimer30us@count1ms:
   318                           	opt stack 0
   319  000037                     	ds	2
   320                           tblptru	equ	0xFF8
   321                           tblptrh	equ	0xFF7
   322                           tblptrl	equ	0xFF6
   323                           tablat	equ	0xFF5
   324                           postinc0	equ	0xFEE
   325                           wreg	equ	0xFE8
   326                           postdec1	equ	0xFE5
   327                           fsr1h	equ	0xFE2
   328                           fsr1l	equ	0xFE1
   329                           
   330                           	psect	bssBANK0
   331  000060                     __pbssBANK0:
   332                           	opt stack 0
   333  000060                     _CH2:
   334                           	opt stack 0
   335  000060                     	ds	64
   336  0000A0                     _CH1:
   337                           	opt stack 0
   338  0000A0                     	ds	64
   339                           tblptru	equ	0xFF8
   340                           tblptrh	equ	0xFF7
   341                           tblptrl	equ	0xFF6
   342                           tablat	equ	0xFF5
   343                           postinc0	equ	0xFEE
   344                           wreg	equ	0xFE8
   345                           postdec1	equ	0xFE5
   346                           fsr1h	equ	0xFE2
   347                           fsr1l	equ	0xFE1
   348                           
   349                           	psect	bssBANK1
   350  000100                     __pbssBANK1:
   351                           	opt stack 0
   352  000100                     _CH6:
   353                           	opt stack 0
   354  000100                     	ds	64
   355  000140                     _CH5:
   356                           	opt stack 0
   357  000140                     	ds	64
   358  000180                     _CH4:
   359                           	opt stack 0
   360  000180                     	ds	64
   361  0001C0                     _CH3:
   362                           	opt stack 0
   363  0001C0                     	ds	64
   364                           tblptru	equ	0xFF8
   365                           tblptrh	equ	0xFF7
   366                           tblptrl	equ	0xFF6
   367                           tablat	equ	0xFF5
   368                           postinc0	equ	0xFEE
   369                           wreg	equ	0xFE8
   370                           postdec1	equ	0xFE5
   371                           fsr1h	equ	0xFE2
   372                           fsr1l	equ	0xFE1
   373                           
   374                           	psect	bssBANK2
   375  000200                     __pbssBANK2:
   376                           	opt stack 0
   377  000200                     _CH7:
   378                           	opt stack 0
   379  000200                     	ds	64
   380  000240                     _Buffer:
   381                           	opt stack 0
   382  000240                     	ds	64
   383                           tblptru	equ	0xFF8
   384                           tblptrh	equ	0xFF7
   385                           tblptrl	equ	0xFF6
   386                           tablat	equ	0xFF5
   387                           postinc0	equ	0xFEE
   388                           wreg	equ	0xFE8
   389                           postdec1	equ	0xFE5
   390                           fsr1h	equ	0xFE2
   391                           fsr1l	equ	0xFE1
   392                           
   393                           	psect	cstackCOMRAM
   394  00001A                     __pcstackCOMRAM:
   395                           	opt stack 0
   396  00001A                     ??_AppINT_USART1_RX:
   397  00001A                     SendBuffCh1@idx_color2:
   398                           	opt stack 0
   399  00001A                     SendBuffCh2@idx_color2:
   400                           	opt stack 0
   401  00001A                     SendBuffCh3@idx_color2:
   402                           	opt stack 0
   403  00001A                     SendBuffCh4@idx_color2:
   404                           	opt stack 0
   405  00001A                     SendBuffCh5@idx_color2:
   406                           	opt stack 0
   407  00001A                     SendBuffCh6@idx_color2:
   408                           	opt stack 0
   409  00001A                     SendBuffCh7@idx_color2:
   410                           	opt stack 0
   411                           
   412                           ; 1 bytes @ 0x0
   413  00001A                     	ds	1
   414  00001B                     SendBuffCh1@idx_color3:
   415                           	opt stack 0
   416  00001B                     SendBuffCh2@idx_color3:
   417                           	opt stack 0
   418  00001B                     SendBuffCh3@idx_color3:
   419                           	opt stack 0
   420  00001B                     SendBuffCh4@idx_color3:
   421                           	opt stack 0
   422  00001B                     SendBuffCh5@idx_color3:
   423                           	opt stack 0
   424  00001B                     SendBuffCh6@idx_color3:
   425                           	opt stack 0
   426  00001B                     SendBuffCh7@idx_color3:
   427                           	opt stack 0
   428                           
   429                           ; 1 bytes @ 0x1
   430  00001B                     	ds	1
   431  00001C                     SendBuffCh1@idx_color1:
   432                           	opt stack 0
   433  00001C                     SendBuffCh2@idx_color1:
   434                           	opt stack 0
   435  00001C                     SendBuffCh3@idx_color1:
   436                           	opt stack 0
   437  00001C                     SendBuffCh4@idx_color1:
   438                           	opt stack 0
   439  00001C                     SendBuffCh5@idx_color1:
   440                           	opt stack 0
   441  00001C                     SendBuffCh6@idx_color1:
   442                           	opt stack 0
   443  00001C                     SendBuffCh7@idx_color1:
   444                           	opt stack 0
   445                           
   446                           ; 1 bytes @ 0x2
   447  00001C                     	ds	1
   448  00001D                     
   449                           ; 1 bytes @ 0x3
   450  00001D                     	ds	4
   451  000021                     AppINT_USART1_RX@rxData:
   452                           	opt stack 0
   453                           
   454                           ; 1 bytes @ 0x7
   455  000021                     	ds	1
   456  000022                     EUSART1_Receive_ISR@byteReceived:
   457                           	opt stack 0
   458                           
   459                           ; 1 bytes @ 0x8
   460  000022                     	ds	1
   461  000023                     ??_INTERRUPT_InterruptManager:
   462                           
   463                           ; 1 bytes @ 0x9
   464  000023                     	ds	14
   465  000031                     tblptru	equ	0xFF8
   466                           tblptrh	equ	0xFF7
   467                           tblptrl	equ	0xFF6
   468                           tablat	equ	0xFF5
   469                           postinc0	equ	0xFEE
   470                           wreg	equ	0xFE8
   471                           postdec1	equ	0xFE5
   472                           fsr1h	equ	0xFE2
   473                           fsr1l	equ	0xFE1
   474                           
   475                           ; 1 bytes @ 0x17
   476 ;;
   477 ;;Main: autosize = 0, tempsize = 0, incstack = 0, save=0
   478 ;;
   479 ;; *************** function _main *****************
   480 ;; Defined at:
   481 ;;		line 5 in file "main.c"
   482 ;; Parameters:    Size  Location     Type
   483 ;;		None
   484 ;; Auto vars:     Size  Location     Type
   485 ;;		None
   486 ;; Return value:  Size  Location     Type
   487 ;;                  1    wreg      void 
   488 ;; Registers used:
   489 ;;		wreg, status,2, cstack
   490 ;; Tracked objects:
   491 ;;		On entry : 0/0
   492 ;;		On exit  : 0/0
   493 ;;		Unchanged: 0/0
   494 ;; Data sizes:     COMRAM   BANK0   BANK1   BANK2   BANK3   BANK4   BANK5
   495 ;;      Params:         0       0       0       0       0       0       0
   496 ;;      Locals:         0       0       0       0       0       0       0
   497 ;;      Temps:          0       0       0       0       0       0       0
   498 ;;      Totals:         0       0       0       0       0       0       0
   499 ;;Total ram usage:        0 bytes
   500 ;; Hardware stack levels required when called:   10
   501 ;; This function calls:
   502 ;;		_AppInitialize
   503 ;;		_AppProcess
   504 ;;		_SYSTEM_Initialize
   505 ;; This function is called by:
   506 ;;		Startup code after reset
   507 ;; This function uses a non-reentrant model
   508 ;;
   509                           
   510                           	psect	text0
   511  001D1A                     __ptext0:
   512                           	opt stack 0
   513  001D1A                     _main:
   514                           	opt stack 21
   515                           
   516                           ;main.c: 7: SYSTEM_Initialize();
   517                           
   518                           ;incstack = 0
   519  001D1A  EC77  F00E         	call	_SYSTEM_Initialize	;wreg free
   520                           
   521                           ;main.c: 8: AppInitialize();
   522  001D1E  ECB0  F00E         	call	_AppInitialize	;wreg free
   523                           
   524                           ;main.c: 10: (INTCONbits.GIE = 1);
   525  001D22  8EF2               	bsf	intcon,7,c	;volatile
   526                           
   527                           ;main.c: 12: (INTCONbits.PEIE = 1);
   528  001D24  8CF2               	bsf	intcon,6,c	;volatile
   529                           
   530                           ;main.c: 14: AppProcess();
   531  001D26  ECBA  F00E         	call	_AppProcess	;wreg free
   532  001D2A                     l181:
   533  001D2A  D7FF               	goto	l181
   534  001D2C                     __end_of_main:
   535                           	opt stack 0
   536                           tblptru	equ	0xFF8
   537                           tblptrh	equ	0xFF7
   538                           tblptrl	equ	0xFF6
   539                           tablat	equ	0xFF5
   540                           intcon	equ	0xFF2
   541                           postinc0	equ	0xFEE
   542                           wreg	equ	0xFE8
   543                           postdec1	equ	0xFE5
   544                           fsr1h	equ	0xFE2
   545                           fsr1l	equ	0xFE1
   546                           
   547 ;; *************** function _SYSTEM_Initialize *****************
   548 ;; Defined at:
   549 ;;		line 66 in file "mcc_generated_files/mcc.c"
   550 ;; Parameters:    Size  Location     Type
   551 ;;		None
   552 ;; Auto vars:     Size  Location     Type
   553 ;;		None
   554 ;; Return value:  Size  Location     Type
   555 ;;                  1    wreg      void 
   556 ;; Registers used:
   557 ;;		wreg, status,2, cstack
   558 ;; Tracked objects:
   559 ;;		On entry : 0/0
   560 ;;		On exit  : 0/0
   561 ;;		Unchanged: 0/0
   562 ;; Data sizes:     COMRAM   BANK0   BANK1   BANK2   BANK3   BANK4   BANK5
   563 ;;      Params:         0       0       0       0       0       0       0
   564 ;;      Locals:         0       0       0       0       0       0       0
   565 ;;      Temps:          0       0       0       0       0       0       0
   566 ;;      Totals:         0       0       0       0       0       0       0
   567 ;;Total ram usage:        0 bytes
   568 ;; Hardware stack levels used:    1
   569 ;; Hardware stack levels required when called:    9
   570 ;; This function calls:
   571 ;;		_EUSART1_Initialize
   572 ;;		_INTERRUPT_Initialize
   573 ;;		_OSCILLATOR_Initialize
   574 ;;		_PIN_MANAGER_Initialize
   575 ;;		_TMR0_Initialize
   576 ;; This function is called by:
   577 ;;		_main
   578 ;; This function uses a non-reentrant model
   579 ;;
   580                           
   581                           	psect	text1
   582  001CEE                     __ptext1:
   583                           	opt stack 0
   584  001CEE                     _SYSTEM_Initialize:
   585                           	opt stack 21
   586                           
   587                           ;mcc.c: 68: OSCILLATOR_Initialize();
   588                           
   589                           ;incstack = 0
   590  001CEE  EC96  F00E         	call	_OSCILLATOR_Initialize	;wreg free
   591                           
   592                           ;mcc.c: 69: PIN_MANAGER_Initialize();
   593  001CF2  EC5D  F00D         	call	_PIN_MANAGER_Initialize	;wreg free
   594                           
   595                           ;mcc.c: 70: INTERRUPT_Initialize();
   596  001CF6  ECA7  F00E         	call	_INTERRUPT_Initialize	;wreg free
   597                           
   598                           ;mcc.c: 71: TMR0_Initialize();
   599  001CFA  EC82  F00E         	call	_TMR0_Initialize	;wreg free
   600                           
   601                           ;mcc.c: 72: EUSART1_Initialize();
   602  001CFE  EC5D  F00E         	call	_EUSART1_Initialize	;wreg free
   603  001D02  0012               	return		;funcret
   604  001D04                     __end_of_SYSTEM_Initialize:
   605                           	opt stack 0
   606                           tblptru	equ	0xFF8
   607                           tblptrh	equ	0xFF7
   608                           tblptrl	equ	0xFF6
   609                           tablat	equ	0xFF5
   610                           intcon	equ	0xFF2
   611                           postinc0	equ	0xFEE
   612                           wreg	equ	0xFE8
   613                           postdec1	equ	0xFE5
   614                           fsr1h	equ	0xFE2
   615                           fsr1l	equ	0xFE1
   616                           
   617 ;; *************** function _TMR0_Initialize *****************
   618 ;; Defined at:
   619 ;;		line 18 in file "mcc_generated_files/tmr0.c"
   620 ;; Parameters:    Size  Location     Type
   621 ;;		None
   622 ;; Auto vars:     Size  Location     Type
   623 ;;		None
   624 ;; Return value:  Size  Location     Type
   625 ;;                  1    wreg      void 
   626 ;; Registers used:
   627 ;;		wreg, status,2, cstack
   628 ;; Tracked objects:
   629 ;;		On entry : 0/0
   630 ;;		On exit  : 0/0
   631 ;;		Unchanged: 0/0
   632 ;; Data sizes:     COMRAM   BANK0   BANK1   BANK2   BANK3   BANK4   BANK5
   633 ;;      Params:         0       0       0       0       0       0       0
   634 ;;      Locals:         0       0       0       0       0       0       0
   635 ;;      Temps:          0       0       0       0       0       0       0
   636 ;;      Totals:         0       0       0       0       0       0       0
   637 ;;Total ram usage:        0 bytes
   638 ;; Hardware stack levels used:    1
   639 ;; Hardware stack levels required when called:    8
   640 ;; This function calls:
   641 ;;		_TMR0_StartTimer
   642 ;; This function is called by:
   643 ;;		_SYSTEM_Initialize
   644 ;; This function uses a non-reentrant model
   645 ;;
   646                           
   647                           	psect	text2
   648  001D04                     __ptext2:
   649                           	opt stack 0
   650  001D04                     _TMR0_Initialize:
   651                           	opt stack 21
   652                           
   653                           ;tmr0.c: 23: T0CON = 0b11000000;
   654                           
   655                           ;incstack = 0
   656  001D04  0EC0               	movlw	192
   657  001D06  6ED5               	movwf	4053,c	;volatile
   658                           
   659                           ;tmr0.c: 30: TMR0H = 1;
   660  001D08  0E01               	movlw	1
   661  001D0A  6ED7               	movwf	4055,c	;volatile
   662                           
   663                           ;tmr0.c: 31: TMR0L = 19;
   664  001D0C  0E13               	movlw	19
   665  001D0E  6ED6               	movwf	4054,c	;volatile
   666                           
   667                           ;tmr0.c: 39: INTCONbits.TMR0IF = 0;
   668  001D10  94F2               	bcf	intcon,2,c	;volatile
   669                           
   670                           ;tmr0.c: 41: INTCONbits.TMR0IE = 1;
   671  001D12  8AF2               	bsf	intcon,5,c	;volatile
   672                           
   673                           ;tmr0.c: 43: TMR0_StartTimer();
   674  001D14  ECB6  F00E         	call	_TMR0_StartTimer	;wreg free
   675  001D18  0012               	return		;funcret
   676  001D1A                     __end_of_TMR0_Initialize:
   677                           	opt stack 0
   678                           tblptru	equ	0xFF8
   679                           tblptrh	equ	0xFF7
   680                           tblptrl	equ	0xFF6
   681                           tablat	equ	0xFF5
   682                           intcon	equ	0xFF2
   683                           postinc0	equ	0xFEE
   684                           wreg	equ	0xFE8
   685                           postdec1	equ	0xFE5
   686                           fsr1h	equ	0xFE2
   687                           fsr1l	equ	0xFE1
   688                           
   689 ;; *************** function _TMR0_StartTimer *****************
   690 ;; Defined at:
   691 ;;		line 48 in file "mcc_generated_files/tmr0.c"
   692 ;; Parameters:    Size  Location     Type
   693 ;;		None
   694 ;; Auto vars:     Size  Location     Type
   695 ;;		None
   696 ;; Return value:  Size  Location     Type
   697 ;;                  1    wreg      void 
   698 ;; Registers used:
   699 ;;		None
   700 ;; Tracked objects:
   701 ;;		On entry : 0/0
   702 ;;		On exit  : 0/0
   703 ;;		Unchanged: 0/0
   704 ;; Data sizes:     COMRAM   BANK0   BANK1   BANK2   BANK3   BANK4   BANK5
   705 ;;      Params:         0       0       0       0       0       0       0
   706 ;;      Locals:         0       0       0       0       0       0       0
   707 ;;      Temps:          0       0       0       0       0       0       0
   708 ;;      Totals:         0       0       0       0       0       0       0
   709 ;;Total ram usage:        0 bytes
   710 ;; Hardware stack levels used:    1
   711 ;; Hardware stack levels required when called:    7
   712 ;; This function calls:
   713 ;;		Nothing
   714 ;; This function is called by:
   715 ;;		_TMR0_Initialize
   716 ;; This function uses a non-reentrant model
   717 ;;
   718                           
   719                           	psect	text3
   720  001D6C                     __ptext3:
   721                           	opt stack 0
   722  001D6C                     _TMR0_StartTimer:
   723                           	opt stack 21
   724                           
   725                           ;tmr0.c: 50: T0CONbits.TMR0ON = 1;
   726                           
   727                           ;incstack = 0
   728  001D6C  8ED5               	bsf	4053,7,c	;volatile
   729  001D6E  0012               	return		;funcret
   730  001D70                     __end_of_TMR0_StartTimer:
   731                           	opt stack 0
   732                           tblptru	equ	0xFF8
   733                           tblptrh	equ	0xFF7
   734                           tblptrl	equ	0xFF6
   735                           tablat	equ	0xFF5
   736                           intcon	equ	0xFF2
   737                           postinc0	equ	0xFEE
   738                           wreg	equ	0xFE8
   739                           postdec1	equ	0xFE5
   740                           fsr1h	equ	0xFE2
   741                           fsr1l	equ	0xFE1
   742                           
   743 ;; *************** function _PIN_MANAGER_Initialize *****************
   744 ;; Defined at:
   745 ;;		line 4 in file "mcc_generated_files/pin_manager.c"
   746 ;; Parameters:    Size  Location     Type
   747 ;;		None
   748 ;; Auto vars:     Size  Location     Type
   749 ;;		None
   750 ;; Return value:  Size  Location     Type
   751 ;;                  1    wreg      void 
   752 ;; Registers used:
   753 ;;		wreg, status,2
   754 ;; Tracked objects:
   755 ;;		On entry : 0/0
   756 ;;		On exit  : 0/0
   757 ;;		Unchanged: 0/0
   758 ;; Data sizes:     COMRAM   BANK0   BANK1   BANK2   BANK3   BANK4   BANK5
   759 ;;      Params:         0       0       0       0       0       0       0
   760 ;;      Locals:         0       0       0       0       0       0       0
   761 ;;      Temps:          0       0       0       0       0       0       0
   762 ;;      Totals:         0       0       0       0       0       0       0
   763 ;;Total ram usage:        0 bytes
   764 ;; Hardware stack levels used:    1
   765 ;; Hardware stack levels required when called:    7
   766 ;; This function calls:
   767 ;;		Nothing
   768 ;; This function is called by:
   769 ;;		_SYSTEM_Initialize
   770 ;; This function uses a non-reentrant model
   771 ;;
   772                           
   773                           	psect	text4
   774  001ABA                     __ptext4:
   775                           	opt stack 0
   776  001ABA                     _PIN_MANAGER_Initialize:
   777                           	opt stack 22
   778                           
   779                           ;pin_manager.c: 5: LATA = 0x00;
   780                           
   781                           ;incstack = 0
   782  001ABA  0E00               	movlw	0
   783  001ABC  6E89               	movwf	3977,c	;volatile
   784                           
   785                           ;pin_manager.c: 6: TRISA = 0b00001011;
   786  001ABE  0E0B               	movlw	11
   787  001AC0  6E92               	movwf	3986,c	;volatile
   788                           
   789                           ;pin_manager.c: 7: ANSELA = 0b00000000;
   790  001AC2  0E00               	movlw	0
   791  001AC4  010F               	movlb	15	; () banked
   792  001AC6  6F38               	movwf	56,b	;volatile
   793                           
   794                           ;pin_manager.c: 9: LATB = 0b00000000;
   795  001AC8  0E00               	movlw	0
   796  001ACA  6E8A               	movwf	3978,c	;volatile
   797                           
   798                           ;pin_manager.c: 10: TRISB = 0b00000000;
   799  001ACC  0E00               	movlw	0
   800  001ACE  6E93               	movwf	3987,c	;volatile
   801                           
   802                           ;pin_manager.c: 11: ANSELB = 0b00000000;
   803  001AD0  0E00               	movlw	0
   804  001AD2  010F               	movlb	15	; () banked
   805  001AD4  6F39               	movwf	57,b	;volatile
   806                           
   807                           ;pin_manager.c: 12: WPUB = 0b00000000;
   808  001AD6  0E00               	movlw	0
   809  001AD8  6E61               	movwf	3937,c	;volatile
   810                           
   811                           ;pin_manager.c: 14: LATC = 0b00000000;
   812  001ADA  0E00               	movlw	0
   813  001ADC  6E8B               	movwf	3979,c	;volatile
   814                           
   815                           ;pin_manager.c: 15: TRISC = 0b10000000;
   816  001ADE  0E80               	movlw	128
   817  001AE0  6E94               	movwf	3988,c	;volatile
   818                           
   819                           ;pin_manager.c: 16: ANSELC = 0b00000000;
   820  001AE2  0E00               	movlw	0
   821  001AE4  010F               	movlb	15	; () banked
   822  001AE6  6F3A               	movwf	58,b	;volatile
   823                           
   824                           ; BSR set to: 15
   825                           ;pin_manager.c: 18: INTCON2bits.nRBPU = 0x01;
   826  001AE8  8EF1               	bsf	intcon2,7,c	;volatile
   827                           
   828                           ; BSR set to: 15
   829  001AEA  0012               	return		;funcret
   830  001AEC                     __end_of_PIN_MANAGER_Initialize:
   831                           	opt stack 0
   832                           tblptru	equ	0xFF8
   833                           tblptrh	equ	0xFF7
   834                           tblptrl	equ	0xFF6
   835                           tablat	equ	0xFF5
   836                           intcon	equ	0xFF2
   837                           intcon2	equ	0xFF1
   838                           postinc0	equ	0xFEE
   839                           wreg	equ	0xFE8
   840                           postdec1	equ	0xFE5
   841                           fsr1h	equ	0xFE2
   842                           fsr1l	equ	0xFE1
   843                           
   844 ;; *************** function _OSCILLATOR_Initialize *****************
   845 ;; Defined at:
   846 ;;		line 76 in file "mcc_generated_files/mcc.c"
   847 ;; Parameters:    Size  Location     Type
   848 ;;		None
   849 ;; Auto vars:     Size  Location     Type
   850 ;;		None
   851 ;; Return value:  Size  Location     Type
   852 ;;                  1    wreg      void 
   853 ;; Registers used:
   854 ;;		wreg, status,2
   855 ;; Tracked objects:
   856 ;;		On entry : 0/0
   857 ;;		On exit  : 0/0
   858 ;;		Unchanged: 0/0
   859 ;; Data sizes:     COMRAM   BANK0   BANK1   BANK2   BANK3   BANK4   BANK5
   860 ;;      Params:         0       0       0       0       0       0       0
   861 ;;      Locals:         0       0       0       0       0       0       0
   862 ;;      Temps:          0       0       0       0       0       0       0
   863 ;;      Totals:         0       0       0       0       0       0       0
   864 ;;Total ram usage:        0 bytes
   865 ;; Hardware stack levels used:    1
   866 ;; Hardware stack levels required when called:    7
   867 ;; This function calls:
   868 ;;		Nothing
   869 ;; This function is called by:
   870 ;;		_SYSTEM_Initialize
   871 ;; This function uses a non-reentrant model
   872 ;;
   873                           
   874                           	psect	text5
   875  001D2C                     __ptext5:
   876                           	opt stack 0
   877  001D2C                     _OSCILLATOR_Initialize:
   878                           	opt stack 22
   879                           
   880                           ;mcc.c: 79: OSCCON = 0x70;
   881                           
   882                           ; BSR set to: 15
   883                           ;incstack = 0
   884  001D2C  0E70               	movlw	112
   885  001D2E  6ED3               	movwf	4051,c	;volatile
   886                           
   887                           ;mcc.c: 85: OSCCON2 = 0x04;
   888  001D30  0E04               	movlw	4
   889  001D32  6ED2               	movwf	4050,c	;volatile
   890                           
   891                           ;mcc.c: 87: OSCTUNE = 0x40;
   892  001D34  0E40               	movlw	64
   893  001D36  6E9B               	movwf	3995,c	;volatile
   894  001D38                     l123:
   895  001D38  BED2               	btfsc	4050,7,c	;volatile
   896  001D3A  0012               	return	
   897  001D3C  D7FD               	goto	l123
   898  001D3E                     __end_of_OSCILLATOR_Initialize:
   899                           	opt stack 0
   900                           tblptru	equ	0xFF8
   901                           tblptrh	equ	0xFF7
   902                           tblptrl	equ	0xFF6
   903                           tablat	equ	0xFF5
   904                           intcon	equ	0xFF2
   905                           intcon2	equ	0xFF1
   906                           postinc0	equ	0xFEE
   907                           wreg	equ	0xFE8
   908                           postdec1	equ	0xFE5
   909                           fsr1h	equ	0xFE2
   910                           fsr1l	equ	0xFE1
   911                           
   912 ;; *************** function _INTERRUPT_Initialize *****************
   913 ;; Defined at:
   914 ;;		line 5 in file "mcc_generated_files/interrupt_manager.c"
   915 ;; Parameters:    Size  Location     Type
   916 ;;		None
   917 ;; Auto vars:     Size  Location     Type
   918 ;;		None
   919 ;; Return value:  Size  Location     Type
   920 ;;                  1    wreg      void 
   921 ;; Registers used:
   922 ;;		None
   923 ;; Tracked objects:
   924 ;;		On entry : 0/0
   925 ;;		On exit  : 0/0
   926 ;;		Unchanged: 0/0
   927 ;; Data sizes:     COMRAM   BANK0   BANK1   BANK2   BANK3   BANK4   BANK5
   928 ;;      Params:         0       0       0       0       0       0       0
   929 ;;      Locals:         0       0       0       0       0       0       0
   930 ;;      Temps:          0       0       0       0       0       0       0
   931 ;;      Totals:         0       0       0       0       0       0       0
   932 ;;Total ram usage:        0 bytes
   933 ;; Hardware stack levels used:    1
   934 ;; Hardware stack levels required when called:    7
   935 ;; This function calls:
   936 ;;		Nothing
   937 ;; This function is called by:
   938 ;;		_SYSTEM_Initialize
   939 ;; This function uses a non-reentrant model
   940 ;;
   941                           
   942                           	psect	text6
   943  001D4E                     __ptext6:
   944                           	opt stack 0
   945  001D4E                     _INTERRUPT_Initialize:
   946                           	opt stack 22
   947                           
   948                           ;interrupt_manager.c: 7: RCONbits.IPEN = 0;
   949                           
   950                           ;incstack = 0
   951  001D4E  9ED0               	bcf	4048,7,c	;volatile
   952                           
   953                           ;interrupt_manager.c: 10: INTCON2bits.TMR0IP = 0;
   954  001D50  94F1               	bcf	intcon2,2,c	;volatile
   955                           
   956                           ;interrupt_manager.c: 12: IPR1bits.RC1IP = 0;
   957  001D52  9A9F               	bcf	3999,5,c	;volatile
   958                           
   959                           ;interrupt_manager.c: 14: IPR1bits.TX1IP = 0;
   960  001D54  989F               	bcf	3999,4,c	;volatile
   961  001D56  0012               	return		;funcret
   962  001D58                     __end_of_INTERRUPT_Initialize:
   963                           	opt stack 0
   964                           tblptru	equ	0xFF8
   965                           tblptrh	equ	0xFF7
   966                           tblptrl	equ	0xFF6
   967                           tablat	equ	0xFF5
   968                           intcon	equ	0xFF2
   969                           intcon2	equ	0xFF1
   970                           postinc0	equ	0xFEE
   971                           wreg	equ	0xFE8
   972                           postdec1	equ	0xFE5
   973                           fsr1h	equ	0xFE2
   974                           fsr1l	equ	0xFE1
   975                           
   976 ;; *************** function _EUSART1_Initialize *****************
   977 ;; Defined at:
   978 ;;		line 15 in file "mcc_generated_files/eusart1.c"
   979 ;; Parameters:    Size  Location     Type
   980 ;;		None
   981 ;; Auto vars:     Size  Location     Type
   982 ;;		None
   983 ;; Return value:  Size  Location     Type
   984 ;;                  1    wreg      void 
   985 ;; Registers used:
   986 ;;		wreg, status,2
   987 ;; Tracked objects:
   988 ;;		On entry : 0/0
   989 ;;		On exit  : 0/0
   990 ;;		Unchanged: 0/0
   991 ;; Data sizes:     COMRAM   BANK0   BANK1   BANK2   BANK3   BANK4   BANK5
   992 ;;      Params:         0       0       0       0       0       0       0
   993 ;;      Locals:         0       0       0       0       0       0       0
   994 ;;      Temps:          0       0       0       0       0       0       0
   995 ;;      Totals:         0       0       0       0       0       0       0
   996 ;;Total ram usage:        0 bytes
   997 ;; Hardware stack levels used:    1
   998 ;; Hardware stack levels required when called:    7
   999 ;; This function calls:
  1000 ;;		Nothing
  1001 ;; This function is called by:
  1002 ;;		_SYSTEM_Initialize
  1003 ;; This function uses a non-reentrant model
  1004 ;;
  1005                           
  1006                           	psect	text7
  1007  001CBA                     __ptext7:
  1008                           	opt stack 0
  1009  001CBA                     _EUSART1_Initialize:
  1010                           	opt stack 22
  1011                           
  1012                           ;eusart1.c: 17: PIE1bits.RC1IE = 0;
  1013                           
  1014                           ;incstack = 0
  1015  001CBA  9A9D               	bcf	3997,5,c	;volatile
  1016                           
  1017                           ;eusart1.c: 18: PIE1bits.TX1IE = 0;
  1018  001CBC  989D               	bcf	3997,4,c	;volatile
  1019                           
  1020                           ;eusart1.c: 27: BAUD1CON = 0x48;
  1021  001CBE  0E48               	movlw	72
  1022  001CC0  6EB8               	movwf	4024,c	;volatile
  1023                           
  1024                           ;eusart1.c: 38: RC1STA = 0b10010000;
  1025  001CC2  0E90               	movlw	144
  1026  001CC4  6EAB               	movwf	4011,c	;volatile
  1027                           
  1028                           ;eusart1.c: 48: TX1STA = 0b00100110;
  1029  001CC6  0E26               	movlw	38
  1030  001CC8  6EAC               	movwf	4012,c	;volatile
  1031                           
  1032                           ;eusart1.c: 67: else{
  1033                           ;eusart1.c: 68: SPBRGH1 = 0;
  1034                           
  1035                           ;eusart1.c: 66: }
  1036                           
  1037                           ;eusart1.c: 65: SPBRG1=(int)(((64000000/115200)/4)-1)&0x00ff;
  1038                           
  1039                           ;eusart1.c: 64: SPBRGH1 = 1;
  1040                           
  1041                           ;eusart1.c: 63: if( ((64000000/115200)/4)-1 > 255 ){
  1042  001CCA  0E00               	movlw	0
  1043  001CCC  6EB0               	movwf	4016,c	;volatile
  1044                           
  1045                           ;eusart1.c: 69: SPBRG1=(int)(((64000000/115200)/4)-1)&0x00ff;
  1046  001CCE  0E89               	movlw	137
  1047  001CD0  6EAF               	movwf	4015,c	;volatile
  1048                           
  1049                           ;eusart1.c: 70: }
  1050                           ;eusart1.c: 72: PIE1bits.RC1IE = 1;
  1051  001CD2  8A9D               	bsf	3997,5,c	;volatile
  1052  001CD4  0012               	return		;funcret
  1053  001CD6                     __end_of_EUSART1_Initialize:
  1054                           	opt stack 0
  1055                           tblptru	equ	0xFF8
  1056                           tblptrh	equ	0xFF7
  1057                           tblptrl	equ	0xFF6
  1058                           tablat	equ	0xFF5
  1059                           intcon	equ	0xFF2
  1060                           intcon2	equ	0xFF1
  1061                           postinc0	equ	0xFEE
  1062                           wreg	equ	0xFE8
  1063                           postdec1	equ	0xFE5
  1064                           fsr1h	equ	0xFE2
  1065                           fsr1l	equ	0xFE1
  1066                           
  1067 ;; *************** function _AppProcess *****************
  1068 ;; Defined at:
  1069 ;;		line 87 in file "mcc_generated_files/app.c"
  1070 ;; Parameters:    Size  Location     Type
  1071 ;;		None
  1072 ;; Auto vars:     Size  Location     Type
  1073 ;;		None
  1074 ;; Return value:  Size  Location     Type
  1075 ;;                  2  178[None  ] int 
  1076 ;; Registers used:
  1077 ;;		None
  1078 ;; Tracked objects:
  1079 ;;		On entry : 0/0
  1080 ;;		On exit  : 0/0
  1081 ;;		Unchanged: 0/0
  1082 ;; Data sizes:     COMRAM   BANK0   BANK1   BANK2   BANK3   BANK4   BANK5
  1083 ;;      Params:         0       0       0       0       0       0       0
  1084 ;;      Locals:         0       0       0       0       0       0       0
  1085 ;;      Temps:          0       0       0       0       0       0       0
  1086 ;;      Totals:         0       0       0       0       0       0       0
  1087 ;;Total ram usage:        0 bytes
  1088 ;; Hardware stack levels used:    1
  1089 ;; Hardware stack levels required when called:    7
  1090 ;; This function calls:
  1091 ;;		Nothing
  1092 ;; This function is called by:
  1093 ;;		_main
  1094 ;; This function uses a non-reentrant model
  1095 ;;
  1096                           
  1097                           	psect	text8
  1098  001D74                     __ptext8:
  1099                           	opt stack 0
  1100  001D74                     _AppProcess:
  1101                           	opt stack 23
  1102  001D74                     l270:
  1103  001D74  D7FF               	goto	l270
  1104  001D76                     __end_of_AppProcess:
  1105                           	opt stack 0
  1106                           tblptru	equ	0xFF8
  1107                           tblptrh	equ	0xFF7
  1108                           tblptrl	equ	0xFF6
  1109                           tablat	equ	0xFF5
  1110                           intcon	equ	0xFF2
  1111                           intcon2	equ	0xFF1
  1112                           postinc0	equ	0xFEE
  1113                           wreg	equ	0xFE8
  1114                           postdec1	equ	0xFE5
  1115                           fsr1h	equ	0xFE2
  1116                           fsr1l	equ	0xFE1
  1117                           
  1118 ;; *************** function _AppInitialize *****************
  1119 ;; Defined at:
  1120 ;;		line 76 in file "mcc_generated_files/app.c"
  1121 ;; Parameters:    Size  Location     Type
  1122 ;;		None
  1123 ;; Auto vars:     Size  Location     Type
  1124 ;;		None
  1125 ;; Return value:  Size  Location     Type
  1126 ;;                  2  174[None  ] int 
  1127 ;; Registers used:
  1128 ;;		None
  1129 ;; Tracked objects:
  1130 ;;		On entry : 0/0
  1131 ;;		On exit  : 0/0
  1132 ;;		Unchanged: 0/0
  1133 ;; Data sizes:     COMRAM   BANK0   BANK1   BANK2   BANK3   BANK4   BANK5
  1134 ;;      Params:         0       0       0       0       0       0       0
  1135 ;;      Locals:         0       0       0       0       0       0       0
  1136 ;;      Temps:          0       0       0       0       0       0       0
  1137 ;;      Totals:         0       0       0       0       0       0       0
  1138 ;;Total ram usage:        0 bytes
  1139 ;; Hardware stack levels used:    1
  1140 ;; Hardware stack levels required when called:    7
  1141 ;; This function calls:
  1142 ;;		Nothing
  1143 ;; This function is called by:
  1144 ;;		_main
  1145 ;; This function uses a non-reentrant model
  1146 ;;
  1147                           
  1148                           	psect	text9
  1149  001D60                     __ptext9:
  1150                           	opt stack 0
  1151  001D60                     _AppInitialize:
  1152                           	opt stack 23
  1153                           
  1154                           ;app.c: 79: INTCONbits.INT0IE = 1;
  1155                           
  1156                           ;incstack = 0
  1157  001D60  88F2               	bsf	intcon,4,c	;volatile
  1158                           
  1159                           ;app.c: 80: INTCON2bits.INTEDG0 = 1;
  1160  001D62  8CF1               	bsf	intcon2,6,c	;volatile
  1161  001D64  0012               	return		;funcret
  1162  001D66                     __end_of_AppInitialize:
  1163                           	opt stack 0
  1164                           tblptru	equ	0xFF8
  1165                           tblptrh	equ	0xFF7
  1166                           tblptrl	equ	0xFF6
  1167                           tablat	equ	0xFF5
  1168                           intcon	equ	0xFF2
  1169                           intcon2	equ	0xFF1
  1170                           postinc0	equ	0xFEE
  1171                           wreg	equ	0xFE8
  1172                           postdec1	equ	0xFE5
  1173                           fsr1h	equ	0xFE2
  1174                           fsr1l	equ	0xFE1
  1175                           
  1176 ;; *************** function _INTERRUPT_InterruptManager *****************
  1177 ;; Defined at:
  1178 ;;		line 18 in file "mcc_generated_files/interrupt_manager.c"
  1179 ;; Parameters:    Size  Location     Type
  1180 ;;		None
  1181 ;; Auto vars:     Size  Location     Type
  1182 ;;		None
  1183 ;; Return value:  Size  Location     Type
  1184 ;;                  1    wreg      void 
  1185 ;; Registers used:
  1186 ;;		wreg, fsr2l, fsr2h, status,2, status,0, prodl, prodh, cstack
  1187 ;; Tracked objects:
  1188 ;;		On entry : 0/0
  1189 ;;		On exit  : 0/0
  1190 ;;		Unchanged: 0/0
  1191 ;; Data sizes:     COMRAM   BANK0   BANK1   BANK2   BANK3   BANK4   BANK5
  1192 ;;      Params:         0       0       0       0       0       0       0
  1193 ;;      Locals:         0       0       0       0       0       0       0
  1194 ;;      Temps:         14       0       0       0       0       0       0
  1195 ;;      Totals:        14       0       0       0       0       0       0
  1196 ;;Total ram usage:       14 bytes
  1197 ;; Hardware stack levels used:    1
  1198 ;; Hardware stack levels required when called:    6
  1199 ;; This function calls:
  1200 ;;		_EUSART1_Receive_ISR
  1201 ;;		_EUSART1_Transmit_ISR
  1202 ;;		_TMR0_ISR
  1203 ;; This function is called by:
  1204 ;;		Interrupt level 2
  1205 ;; This function uses a non-reentrant model
  1206 ;;
  1207                           
  1208                           	psect	intcode
  1209  000008                     __pintcode:
  1210                           	opt stack 0
  1211  000008                     _INTERRUPT_InterruptManager:
  1212                           	opt stack 21
  1213                           
  1214                           ;incstack = 0
  1215  000008  8239               	bsf	btemp,1,c	;set compiler interrupt flag (level 2)
  1216  00000A  CFFA F023          	movff	pclath,??_INTERRUPT_InterruptManager
  1217  00000E  CFFB F024          	movff	pclatu,??_INTERRUPT_InterruptManager+1
  1218  000012  CFE9 F025          	movff	fsr0l,??_INTERRUPT_InterruptManager+2
  1219  000016  CFEA F026          	movff	fsr0h,??_INTERRUPT_InterruptManager+3
  1220  00001A  CFE1 F027          	movff	fsr1l,??_INTERRUPT_InterruptManager+4
  1221  00001E  CFE2 F028          	movff	fsr1h,??_INTERRUPT_InterruptManager+5
  1222  000022  CFD9 F029          	movff	fsr2l,??_INTERRUPT_InterruptManager+6
  1223  000026  CFDA F02A          	movff	fsr2h,??_INTERRUPT_InterruptManager+7
  1224  00002A  CFF3 F02B          	movff	prodl,??_INTERRUPT_InterruptManager+8
  1225  00002E  CFF4 F02C          	movff	prodh,??_INTERRUPT_InterruptManager+9
  1226  000032  CFF6 F02D          	movff	tblptrl,??_INTERRUPT_InterruptManager+10
  1227  000036  CFF7 F02E          	movff	tblptrh,??_INTERRUPT_InterruptManager+11
  1228  00003A  CFF8 F02F          	movff	tblptru,??_INTERRUPT_InterruptManager+12
  1229  00003E  CFF5 F030          	movff	tablat,??_INTERRUPT_InterruptManager+13
  1230                           
  1231                           ;interrupt_manager.c: 20: if (INTCONbits.TMR0IE == 1 && INTCONbits.TMR0IF == 1) {
  1232  000042  BAF2               	btfsc	intcon,5,c	;volatile
  1233  000044  A4F2               	btfss	intcon,2,c	;volatile
  1234  000046  D003               	goto	i2l91
  1235                           
  1236                           ;interrupt_manager.c: 21: TMR0_ISR();
  1237  000048  EC9F  F00E         	call	_TMR0_ISR	;wreg free
  1238                           
  1239                           ;interrupt_manager.c: 22: } else if (PIE1bits.RC1IE == 1 && PIR1bits.RC1IF == 1) {
  1240  00004C  D010               	goto	i2l92
  1241  00004E                     i2l91:
  1242  00004E  BA9D               	btfsc	3997,5,c	;volatile
  1243  000050  AA9E               	btfss	3998,5,c	;volatile
  1244  000052  D003               	goto	i2l93
  1245                           
  1246                           ;interrupt_manager.c: 23: EUSART1_Receive_ISR();
  1247  000054  EC6B  F00E         	call	_EUSART1_Receive_ISR	;wreg free
  1248                           
  1249                           ;interrupt_manager.c: 24: } else if (PIE1bits.TX1IE == 1 && PIR1bits.TX1IF == 1) {
  1250  000058  D00A               	goto	i2l92
  1251  00005A                     i2l93:
  1252  00005A  B89D               	btfsc	3997,4,c	;volatile
  1253  00005C  A89E               	btfss	3998,4,c	;volatile
  1254  00005E  D003               	goto	i2l95
  1255                           
  1256                           ;interrupt_manager.c: 25: EUSART1_Transmit_ISR();
  1257  000060  ECB8  F00E         	call	_EUSART1_Transmit_ISR	;wreg free
  1258                           
  1259                           ;interrupt_manager.c: 26: } else if(INTCONbits.INT0IE && INTCONbits.INT0IF){
  1260  000064  D004               	goto	i2l92
  1261  000066                     i2l95:
  1262  000066  B8F2               	btfsc	intcon,4,c	;volatile
  1263  000068  A2F2               	btfss	intcon,1,c	;volatile
  1264  00006A  D001               	goto	i2l92
  1265                           
  1266                           ;interrupt_manager.c: 28: INTCONbits.INT0IF = 0;
  1267  00006C  92F2               	bcf	intcon,1,c	;volatile
  1268  00006E                     i2l92:
  1269                           
  1270                           ;interrupt_manager.c: 32: }
  1271                           ;interrupt_manager.c: 34: INTCON2bits.TMR0IP = 1;
  1272  00006E  84F1               	bsf	intcon2,2,c	;volatile
  1273  000070  C030  FFF5         	movff	??_INTERRUPT_InterruptManager+13,tablat
  1274  000074  C02F  FFF8         	movff	??_INTERRUPT_InterruptManager+12,tblptru
  1275  000078  C02E  FFF7         	movff	??_INTERRUPT_InterruptManager+11,tblptrh
  1276  00007C  C02D  FFF6         	movff	??_INTERRUPT_InterruptManager+10,tblptrl
  1277  000080  C02C  FFF4         	movff	??_INTERRUPT_InterruptManager+9,prodh
  1278  000084  C02B  FFF3         	movff	??_INTERRUPT_InterruptManager+8,prodl
  1279  000088  C02A  FFDA         	movff	??_INTERRUPT_InterruptManager+7,fsr2h
  1280  00008C  C029  FFD9         	movff	??_INTERRUPT_InterruptManager+6,fsr2l
  1281  000090  C028  FFE2         	movff	??_INTERRUPT_InterruptManager+5,fsr1h
  1282  000094  C027  FFE1         	movff	??_INTERRUPT_InterruptManager+4,fsr1l
  1283  000098  C026  FFEA         	movff	??_INTERRUPT_InterruptManager+3,fsr0h
  1284  00009C  C025  FFE9         	movff	??_INTERRUPT_InterruptManager+2,fsr0l
  1285  0000A0  C024  FFFB         	movff	??_INTERRUPT_InterruptManager+1,pclatu
  1286  0000A4  C023  FFFA         	movff	??_INTERRUPT_InterruptManager,pclath
  1287  0000A8  9239               	bcf	btemp,1,c	;clear compiler interrupt flag (level 2)
  1288  0000AA  0011               	retfie		f
  1289  0000AC                     __end_of_INTERRUPT_InterruptManager:
  1290                           	opt stack 0
  1291                           pclatu	equ	0xFFB
  1292                           pclath	equ	0xFFA
  1293                           tblptru	equ	0xFF8
  1294                           tblptrh	equ	0xFF7
  1295                           tblptrl	equ	0xFF6
  1296                           tablat	equ	0xFF5
  1297                           prodh	equ	0xFF4
  1298                           prodl	equ	0xFF3
  1299                           intcon	equ	0xFF2
  1300                           intcon2	equ	0xFF1
  1301                           postinc0	equ	0xFEE
  1302                           fsr0h	equ	0xFEA
  1303                           fsr0l	equ	0xFE9
  1304                           wreg	equ	0xFE8
  1305                           postdec1	equ	0xFE5
  1306                           fsr1h	equ	0xFE2
  1307                           fsr1l	equ	0xFE1
  1308                           fsr2h	equ	0xFDA
  1309                           fsr2l	equ	0xFD9
  1310                           
  1311 ;; *************** function _TMR0_ISR *****************
  1312 ;; Defined at:
  1313 ;;		line 90 in file "mcc_generated_files/tmr0.c"
  1314 ;; Parameters:    Size  Location     Type
  1315 ;;		None
  1316 ;; Auto vars:     Size  Location     Type
  1317 ;;		None
  1318 ;; Return value:  Size  Location     Type
  1319 ;;                  1    wreg      void 
  1320 ;; Registers used:
  1321 ;;		wreg, fsr2l, fsr2h, status,2, status,0, prodl, prodh, cstack
  1322 ;; Tracked objects:
  1323 ;;		On entry : 0/0
  1324 ;;		On exit  : 0/0
  1325 ;;		Unchanged: 0/0
  1326 ;; Data sizes:     COMRAM   BANK0   BANK1   BANK2   BANK3   BANK4   BANK5
  1327 ;;      Params:         0       0       0       0       0       0       0
  1328 ;;      Locals:         0       0       0       0       0       0       0
  1329 ;;      Temps:          0       0       0       0       0       0       0
  1330 ;;      Totals:         0       0       0       0       0       0       0
  1331 ;;Total ram usage:        0 bytes
  1332 ;; Hardware stack levels used:    1
  1333 ;; Hardware stack levels required when called:    5
  1334 ;; This function calls:
  1335 ;;		_TMR0_CallBack
  1336 ;; This function is called by:
  1337 ;;		_INTERRUPT_InterruptManager
  1338 ;; This function uses a non-reentrant model
  1339 ;;
  1340                           
  1341                           	psect	text11
  1342  001D3E                     __ptext11:
  1343                           	opt stack 0
  1344  001D3E                     _TMR0_ISR:
  1345                           	opt stack 21
  1346                           
  1347                           ;tmr0.c: 92: INTCONbits.TMR0IF = 0;
  1348                           
  1349                           ;incstack = 0
  1350  001D3E  94F2               	bcf	intcon,2,c	;volatile
  1351                           
  1352                           ;tmr0.c: 94: TMR0H = 1;
  1353  001D40  0E01               	movlw	1
  1354  001D42  6ED7               	movwf	4055,c	;volatile
  1355                           
  1356                           ;tmr0.c: 95: TMR0L = 19;
  1357  001D44  0E13               	movlw	19
  1358  001D46  6ED6               	movwf	4054,c	;volatile
  1359                           
  1360                           ;tmr0.c: 103: TMR0_CallBack();
  1361  001D48  ECB3  F00E         	call	_TMR0_CallBack	;wreg free
  1362  001D4C  0012               	return		;funcret
  1363  001D4E                     __end_of_TMR0_ISR:
  1364                           	opt stack 0
  1365                           pclatu	equ	0xFFB
  1366                           pclath	equ	0xFFA
  1367                           tblptru	equ	0xFF8
  1368                           tblptrh	equ	0xFF7
  1369                           tblptrl	equ	0xFF6
  1370                           tablat	equ	0xFF5
  1371                           prodh	equ	0xFF4
  1372                           prodl	equ	0xFF3
  1373                           intcon	equ	0xFF2
  1374                           intcon2	equ	0xFF1
  1375                           postinc0	equ	0xFEE
  1376                           fsr0h	equ	0xFEA
  1377                           fsr0l	equ	0xFE9
  1378                           wreg	equ	0xFE8
  1379                           postdec1	equ	0xFE5
  1380                           fsr1h	equ	0xFE2
  1381                           fsr1l	equ	0xFE1
  1382                           fsr2h	equ	0xFDA
  1383                           fsr2l	equ	0xFD9
  1384                           
  1385 ;; *************** function _TMR0_CallBack *****************
  1386 ;; Defined at:
  1387 ;;		line 109 in file "mcc_generated_files/tmr0.c"
  1388 ;; Parameters:    Size  Location     Type
  1389 ;;		None
  1390 ;; Auto vars:     Size  Location     Type
  1391 ;;		None
  1392 ;; Return value:  Size  Location     Type
  1393 ;;                  1    wreg      void 
  1394 ;; Registers used:
  1395 ;;		wreg, fsr2l, fsr2h, status,2, status,0, prodl, prodh, cstack
  1396 ;; Tracked objects:
  1397 ;;		On entry : 0/0
  1398 ;;		On exit  : 0/0
  1399 ;;		Unchanged: 0/0
  1400 ;; Data sizes:     COMRAM   BANK0   BANK1   BANK2   BANK3   BANK4   BANK5
  1401 ;;      Params:         0       0       0       0       0       0       0
  1402 ;;      Locals:         0       0       0       0       0       0       0
  1403 ;;      Temps:          0       0       0       0       0       0       0
  1404 ;;      Totals:         0       0       0       0       0       0       0
  1405 ;;Total ram usage:        0 bytes
  1406 ;; Hardware stack levels used:    1
  1407 ;; Hardware stack levels required when called:    4
  1408 ;; This function calls:
  1409 ;;		_AppTimer30us
  1410 ;; This function is called by:
  1411 ;;		_TMR0_ISR
  1412 ;; This function uses a non-reentrant model
  1413 ;;
  1414                           
  1415                           	psect	text12
  1416  001D66                     __ptext12:
  1417                           	opt stack 0
  1418  001D66                     _TMR0_CallBack:
  1419                           	opt stack 21
  1420                           
  1421                           ;tmr0.c: 112: AppTimer30us();
  1422                           
  1423                           ;incstack = 0
  1424  001D66  ECED  F00C         	call	_AppTimer30us	;wreg free
  1425  001D6A  0012               	return		;funcret
  1426  001D6C                     __end_of_TMR0_CallBack:
  1427                           	opt stack 0
  1428                           pclatu	equ	0xFFB
  1429                           pclath	equ	0xFFA
  1430                           tblptru	equ	0xFF8
  1431                           tblptrh	equ	0xFF7
  1432                           tblptrl	equ	0xFF6
  1433                           tablat	equ	0xFF5
  1434                           prodh	equ	0xFF4
  1435                           prodl	equ	0xFF3
  1436                           intcon	equ	0xFF2
  1437                           intcon2	equ	0xFF1
  1438                           postinc0	equ	0xFEE
  1439                           fsr0h	equ	0xFEA
  1440                           fsr0l	equ	0xFE9
  1441                           wreg	equ	0xFE8
  1442                           postdec1	equ	0xFE5
  1443                           fsr1h	equ	0xFE2
  1444                           fsr1l	equ	0xFE1
  1445                           fsr2h	equ	0xFDA
  1446                           fsr2l	equ	0xFD9
  1447                           
  1448 ;; *************** function _AppTimer30us *****************
  1449 ;; Defined at:
  1450 ;;		line 385 in file "mcc_generated_files/app.c"
  1451 ;; Parameters:    Size  Location     Type
  1452 ;;		None
  1453 ;; Auto vars:     Size  Location     Type
  1454 ;;		None
  1455 ;; Return value:  Size  Location     Type
  1456 ;;                  2   16[None  ] int 
  1457 ;; Registers used:
  1458 ;;		wreg, fsr2l, fsr2h, status,2, status,0, prodl, prodh, cstack
  1459 ;; Tracked objects:
  1460 ;;		On entry : 0/0
  1461 ;;		On exit  : 0/0
  1462 ;;		Unchanged: 0/0
  1463 ;; Data sizes:     COMRAM   BANK0   BANK1   BANK2   BANK3   BANK4   BANK5
  1464 ;;      Params:         0       0       0       0       0       0       0
  1465 ;;      Locals:         0       0       0       0       0       0       0
  1466 ;;      Temps:          0       0       0       0       0       0       0
  1467 ;;      Totals:         0       0       0       0       0       0       0
  1468 ;;Total ram usage:        0 bytes
  1469 ;; Hardware stack levels used:    1
  1470 ;; Hardware stack levels required when called:    3
  1471 ;; This function calls:
  1472 ;;		_AppTimer1ms
  1473 ;; This function is called by:
  1474 ;;		_TMR0_CallBack
  1475 ;; This function uses a non-reentrant model
  1476 ;;
  1477                           
  1478                           	psect	text13
  1479  0019DA                     __ptext13:
  1480                           	opt stack 0
  1481  0019DA                     _AppTimer30us:
  1482                           	opt stack 21
  1483                           
  1484                           ;app.c: 386: static int count1ms = 4;
  1485                           ;app.c: 387: static int count10ms = 9;
  1486                           ;app.c: 388: static int count100ms = 9;
  1487                           ;app.c: 389: static int count1000ms = 9;
  1488                           ;app.c: 392: if (count1ms > 0) count1ms--;
  1489                           
  1490                           ;incstack = 0
  1491  0019DA  BE38               	btfsc	AppTimer30us@count1ms+1,7,c
  1492  0019DC  D009               	goto	i2l3850
  1493  0019DE  5038               	movf	AppTimer30us@count1ms+1,w,c
  1494  0019E0  E103               	bnz	i2u410_40
  1495  0019E2  0437               	decf	AppTimer30us@count1ms,w,c
  1496  0019E4  A0D8               	btfss	status,0,c
  1497  0019E6  D004               	goto	i2l3850
  1498  0019E8                     i2u410_40:
  1499  0019E8  0637               	decf	AppTimer30us@count1ms,f,c
  1500  0019EA  A0D8               	btfss	status,0,c
  1501  0019EC  0638               	decf	AppTimer30us@count1ms+1,f,c
  1502  0019EE  0012               	return	
  1503  0019F0                     i2l3850:
  1504                           
  1505                           ;app.c: 393: else {
  1506                           ;app.c: 394: count1ms = 33;
  1507  0019F0  0E00               	movlw	0
  1508  0019F2  6E38               	movwf	AppTimer30us@count1ms+1,c
  1509  0019F4  0E21               	movlw	33
  1510  0019F6  6E37               	movwf	AppTimer30us@count1ms,c
  1511                           
  1512                           ;app.c: 395: AppTimer1ms();
  1513  0019F8  EC52  F00C         	call	_AppTimer1ms	;wreg free
  1514                           
  1515                           ;app.c: 396: if (count10ms > 0)count10ms--;
  1516  0019FC  BE36               	btfsc	AppTimer30us@count10ms+1,7,c
  1517  0019FE  D009               	goto	i2l3858
  1518  001A00  5036               	movf	AppTimer30us@count10ms+1,w,c
  1519  001A02  E103               	bnz	i2u411_40
  1520  001A04  0435               	decf	AppTimer30us@count10ms,w,c
  1521  001A06  A0D8               	btfss	status,0,c
  1522  001A08  D004               	goto	i2l3858
  1523  001A0A                     i2u411_40:
  1524  001A0A  0635               	decf	AppTimer30us@count10ms,f,c
  1525  001A0C  A0D8               	btfss	status,0,c
  1526  001A0E  0636               	decf	AppTimer30us@count10ms+1,f,c
  1527  001A10  0012               	return	
  1528  001A12                     i2l3858:
  1529                           
  1530                           ;app.c: 397: else {
  1531                           ;app.c: 398: count10ms = 9;
  1532  001A12  0E00               	movlw	0
  1533  001A14  6E36               	movwf	AppTimer30us@count10ms+1,c
  1534  001A16  0E09               	movlw	9
  1535  001A18  6E35               	movwf	AppTimer30us@count10ms,c
  1536                           
  1537                           ;app.c: 400: if (count100ms > 0)count100ms--;
  1538  001A1A  BE34               	btfsc	AppTimer30us@count100ms+1,7,c
  1539  001A1C  D009               	goto	i2l3864
  1540  001A1E  5034               	movf	AppTimer30us@count100ms+1,w,c
  1541  001A20  E103               	bnz	i2u412_40
  1542  001A22  0433               	decf	AppTimer30us@count100ms,w,c
  1543  001A24  A0D8               	btfss	status,0,c
  1544  001A26  D004               	goto	i2l3864
  1545  001A28                     i2u412_40:
  1546  001A28  0633               	decf	AppTimer30us@count100ms,f,c
  1547  001A2A  A0D8               	btfss	status,0,c
  1548  001A2C  0634               	decf	AppTimer30us@count100ms+1,f,c
  1549  001A2E  0012               	return	
  1550  001A30                     i2l3864:
  1551                           
  1552                           ;app.c: 401: else {
  1553                           ;app.c: 402: count100ms = 9;
  1554  001A30  0E00               	movlw	0
  1555  001A32  6E34               	movwf	AppTimer30us@count100ms+1,c
  1556  001A34  0E09               	movlw	9
  1557  001A36  6E33               	movwf	AppTimer30us@count100ms,c
  1558                           
  1559                           ;app.c: 404: if (count1000ms > 0)count1000ms--;
  1560  001A38  BE32               	btfsc	AppTimer30us@count1000ms+1,7,c
  1561  001A3A  D009               	goto	i2l3870
  1562  001A3C  5032               	movf	AppTimer30us@count1000ms+1,w,c
  1563  001A3E  E103               	bnz	i2u413_40
  1564  001A40  0431               	decf	AppTimer30us@count1000ms,w,c
  1565  001A42  A0D8               	btfss	status,0,c
  1566  001A44  D004               	goto	i2l3870
  1567  001A46                     i2u413_40:
  1568  001A46  0631               	decf	AppTimer30us@count1000ms,f,c
  1569  001A48  A0D8               	btfss	status,0,c
  1570  001A4A  0632               	decf	AppTimer30us@count1000ms+1,f,c
  1571  001A4C  0012               	return	
  1572  001A4E                     i2l3870:
  1573                           
  1574                           ;app.c: 405: else {
  1575                           ;app.c: 406: count1000ms = 9;
  1576  001A4E  0E00               	movlw	0
  1577  001A50  6E32               	movwf	AppTimer30us@count1000ms+1,c
  1578  001A52  0E09               	movlw	9
  1579  001A54  6E31               	movwf	AppTimer30us@count1000ms,c
  1580  001A56  0012               	return	
  1581  001A58                     __end_of_AppTimer30us:
  1582                           	opt stack 0
  1583                           pclatu	equ	0xFFB
  1584                           pclath	equ	0xFFA
  1585                           tblptru	equ	0xFF8
  1586                           tblptrh	equ	0xFF7
  1587                           tblptrl	equ	0xFF6
  1588                           tablat	equ	0xFF5
  1589                           prodh	equ	0xFF4
  1590                           prodl	equ	0xFF3
  1591                           intcon	equ	0xFF2
  1592                           intcon2	equ	0xFF1
  1593                           postinc0	equ	0xFEE
  1594                           fsr0h	equ	0xFEA
  1595                           fsr0l	equ	0xFE9
  1596                           wreg	equ	0xFE8
  1597                           postdec1	equ	0xFE5
  1598                           fsr1h	equ	0xFE2
  1599                           fsr1l	equ	0xFE1
  1600                           fsr2h	equ	0xFDA
  1601                           fsr2l	equ	0xFD9
  1602                           status	equ	0xFD8
  1603                           
  1604 ;; *************** function _AppTimer1ms *****************
  1605 ;; Defined at:
  1606 ;;		line 357 in file "mcc_generated_files/app.c"
  1607 ;; Parameters:    Size  Location     Type
  1608 ;;		None
  1609 ;; Auto vars:     Size  Location     Type
  1610 ;;		None
  1611 ;; Return value:  Size  Location     Type
  1612 ;;                  1    wreg      void 
  1613 ;; Registers used:
  1614 ;;		wreg, fsr2l, fsr2h, status,2, status,0, prodl, prodh, cstack
  1615 ;; Tracked objects:
  1616 ;;		On entry : 0/0
  1617 ;;		On exit  : 0/0
  1618 ;;		Unchanged: 0/0
  1619 ;; Data sizes:     COMRAM   BANK0   BANK1   BANK2   BANK3   BANK4   BANK5
  1620 ;;      Params:         0       0       0       0       0       0       0
  1621 ;;      Locals:         0       0       0       0       0       0       0
  1622 ;;      Temps:          0       0       0       0       0       0       0
  1623 ;;      Totals:         0       0       0       0       0       0       0
  1624 ;;Total ram usage:        0 bytes
  1625 ;; Hardware stack levels used:    1
  1626 ;; Hardware stack levels required when called:    2
  1627 ;; This function calls:
  1628 ;;		_SendBuffCh1
  1629 ;;		_SendBuffCh2
  1630 ;;		_SendBuffCh3
  1631 ;;		_SendBuffCh4
  1632 ;;		_SendBuffCh5
  1633 ;;		_SendBuffCh6
  1634 ;;		_SendBuffCh7
  1635 ;; This function is called by:
  1636 ;;		_AppTimer30us
  1637 ;; This function uses a non-reentrant model
  1638 ;;
  1639                           
  1640                           	psect	text14
  1641  0018A4                     __ptext14:
  1642                           	opt stack 0
  1643  0018A4                     _AppTimer1ms:
  1644                           	opt stack 21
  1645                           
  1646                           ;app.c: 358: if(SendLedsCh1){ Idx0=0;
  1647                           
  1648                           ;incstack = 0
  1649  0018A4  5019               	movf	_SendLedsCh1,w,c
  1650  0018A6  B4D8               	btfsc	status,2,c
  1651  0018A8  D013               	goto	i2l675
  1652  0018AA  0E00               	movlw	0
  1653  0018AC  6E0B               	movwf	_Idx0,c
  1654                           
  1655                           ;app.c: 359: while(Idx0 < ch1_len){ SendBuffCh1(Idx0, Idx0+1, Idx0+2); Idx0+=3;}
  1656  0018AE  D00A               	goto	i2l3782
  1657  0018B0                     i2l3778:
  1658  0018B0  280B               	incf	_Idx0,w,c
  1659  0018B2  6E1A               	movwf	SendBuffCh1@idx_color2,c
  1660  0018B4  500B               	movf	_Idx0,w,c
  1661  0018B6  0F02               	addlw	2
  1662  0018B8  6E1B               	movwf	SendBuffCh1@idx_color3,c
  1663  0018BA  500B               	movf	_Idx0,w,c
  1664  0018BC  EC64  F009         	call	_SendBuffCh1
  1665  0018C0  0E03               	movlw	3
  1666  0018C2  260B               	addwf	_Idx0,f,c
  1667  0018C4                     i2l3782:
  1668  0018C4  5012               	movf	_ch1_len,w,c
  1669  0018C6  5C0B               	subwf	_Idx0,w,c
  1670  0018C8  A0D8               	btfss	status,0,c
  1671  0018CA  D7F2               	goto	i2l3778
  1672                           
  1673                           ;app.c: 360: SendLedsCh1 = 0; }
  1674  0018CC  0E00               	movlw	0
  1675  0018CE  6E19               	movwf	_SendLedsCh1,c
  1676  0018D0                     i2l675:
  1677                           
  1678                           ;app.c: 361: if(SendLedsCh2){ Idx0=0;
  1679  0018D0  5018               	movf	_SendLedsCh2,w,c
  1680  0018D2  B4D8               	btfsc	status,2,c
  1681  0018D4  D013               	goto	i2l679
  1682  0018D6  0E00               	movlw	0
  1683  0018D8  6E0B               	movwf	_Idx0,c
  1684                           
  1685                           ;app.c: 362: while(Idx0 < ch2_len){ SendBuffCh2(Idx0, Idx0+1, Idx0+2); Idx0+=3;}
  1686  0018DA  D00A               	goto	i2l3792
  1687  0018DC                     i2l3788:
  1688  0018DC  280B               	incf	_Idx0,w,c
  1689  0018DE  6E1A               	movwf	SendBuffCh2@idx_color2,c
  1690  0018E0  500B               	movf	_Idx0,w,c
  1691  0018E2  0F02               	addlw	2
  1692  0018E4  6E1B               	movwf	SendBuffCh2@idx_color3,c
  1693  0018E6  500B               	movf	_Idx0,w,c
  1694  0018E8  ECE2  F007         	call	_SendBuffCh2
  1695  0018EC  0E03               	movlw	3
  1696  0018EE  260B               	addwf	_Idx0,f,c
  1697  0018F0                     i2l3792:
  1698  0018F0  5011               	movf	_ch2_len,w,c
  1699  0018F2  5C0B               	subwf	_Idx0,w,c
  1700  0018F4  A0D8               	btfss	status,0,c
  1701  0018F6  D7F2               	goto	i2l3788
  1702                           
  1703                           ;app.c: 363: SendLedsCh2 = 0; }
  1704  0018F8  0E00               	movlw	0
  1705  0018FA  6E18               	movwf	_SendLedsCh2,c
  1706  0018FC                     i2l679:
  1707                           
  1708                           ;app.c: 364: if(SendLedsCh3){ Idx0=0;
  1709  0018FC  5017               	movf	_SendLedsCh3,w,c
  1710  0018FE  B4D8               	btfsc	status,2,c
  1711  001900  D013               	goto	i2l683
  1712  001902  0E00               	movlw	0
  1713  001904  6E0B               	movwf	_Idx0,c
  1714                           
  1715                           ;app.c: 365: while(Idx0 < ch3_len){ SendBuffCh3(Idx0, Idx0+1, Idx0+2); Idx0+=3;}
  1716  001906  D00A               	goto	i2l3802
  1717  001908                     i2l3798:
  1718  001908  280B               	incf	_Idx0,w,c
  1719  00190A  6E1A               	movwf	SendBuffCh3@idx_color2,c
  1720  00190C  500B               	movf	_Idx0,w,c
  1721  00190E  0F02               	addlw	2
  1722  001910  6E1B               	movwf	SendBuffCh3@idx_color3,c
  1723  001912  500B               	movf	_Idx0,w,c
  1724  001914  EC60  F006         	call	_SendBuffCh3
  1725  001918  0E03               	movlw	3
  1726  00191A  260B               	addwf	_Idx0,f,c
  1727  00191C                     i2l3802:
  1728  00191C  5010               	movf	_ch3_len,w,c
  1729  00191E  5C0B               	subwf	_Idx0,w,c
  1730  001920  A0D8               	btfss	status,0,c
  1731  001922  D7F2               	goto	i2l3798
  1732                           
  1733                           ;app.c: 366: SendLedsCh3 = 0; }
  1734  001924  0E00               	movlw	0
  1735  001926  6E17               	movwf	_SendLedsCh3,c
  1736  001928                     i2l683:
  1737                           
  1738                           ;app.c: 367: if(SendLedsCh4){ Idx0=0;
  1739  001928  5016               	movf	_SendLedsCh4,w,c
  1740  00192A  B4D8               	btfsc	status,2,c
  1741  00192C  D013               	goto	i2l687
  1742  00192E  0E00               	movlw	0
  1743  001930  6E0B               	movwf	_Idx0,c
  1744                           
  1745                           ;app.c: 368: while(Idx0 < ch4_len){ SendBuffCh4(Idx0, Idx0+1, Idx0+2); Idx0+=3;}
  1746  001932  D00A               	goto	i2l3812
  1747  001934                     i2l3808:
  1748  001934  280B               	incf	_Idx0,w,c
  1749  001936  6E1A               	movwf	SendBuffCh4@idx_color2,c
  1750  001938  500B               	movf	_Idx0,w,c
  1751  00193A  0F02               	addlw	2
  1752  00193C  6E1B               	movwf	SendBuffCh4@idx_color3,c
  1753  00193E  500B               	movf	_Idx0,w,c
  1754  001940  ECDE  F004         	call	_SendBuffCh4
  1755  001944  0E03               	movlw	3
  1756  001946  260B               	addwf	_Idx0,f,c
  1757  001948                     i2l3812:
  1758  001948  500F               	movf	_ch4_len,w,c
  1759  00194A  5C0B               	subwf	_Idx0,w,c
  1760  00194C  A0D8               	btfss	status,0,c
  1761  00194E  D7F2               	goto	i2l3808
  1762                           
  1763                           ;app.c: 369: SendLedsCh4 = 0; }
  1764  001950  0E00               	movlw	0
  1765  001952  6E16               	movwf	_SendLedsCh4,c
  1766  001954                     i2l687:
  1767                           
  1768                           ;app.c: 370: if(SendLedsCh5){ Idx0=0;
  1769  001954  5015               	movf	_SendLedsCh5,w,c
  1770  001956  B4D8               	btfsc	status,2,c
  1771  001958  D013               	goto	i2l691
  1772  00195A  0E00               	movlw	0
  1773  00195C  6E0B               	movwf	_Idx0,c
  1774                           
  1775                           ;app.c: 371: while(Idx0 < ch5_len){ SendBuffCh5(Idx0, Idx0+1, Idx0+2); Idx0+=3;}
  1776  00195E  D00A               	goto	i2l3822
  1777  001960                     i2l3818:
  1778  001960  280B               	incf	_Idx0,w,c
  1779  001962  6E1A               	movwf	SendBuffCh5@idx_color2,c
  1780  001964  500B               	movf	_Idx0,w,c
  1781  001966  0F02               	addlw	2
  1782  001968  6E1B               	movwf	SendBuffCh5@idx_color3,c
  1783  00196A  500B               	movf	_Idx0,w,c
  1784  00196C  EC5C  F003         	call	_SendBuffCh5
  1785  001970  0E03               	movlw	3
  1786  001972  260B               	addwf	_Idx0,f,c
  1787  001974                     i2l3822:
  1788  001974  500E               	movf	_ch5_len,w,c
  1789  001976  5C0B               	subwf	_Idx0,w,c
  1790  001978  A0D8               	btfss	status,0,c
  1791  00197A  D7F2               	goto	i2l3818
  1792                           
  1793                           ;app.c: 372: SendLedsCh5 = 0; }
  1794  00197C  0E00               	movlw	0
  1795  00197E  6E15               	movwf	_SendLedsCh5,c
  1796  001980                     i2l691:
  1797                           
  1798                           ;app.c: 373: if(SendLedsCh6){ Idx0=0;
  1799  001980  5014               	movf	_SendLedsCh6,w,c
  1800  001982  B4D8               	btfsc	status,2,c
  1801  001984  D013               	goto	i2l695
  1802  001986  0E00               	movlw	0
  1803  001988  6E0B               	movwf	_Idx0,c
  1804                           
  1805                           ;app.c: 374: while(Idx0 < ch6_len){ SendBuffCh6(Idx0, Idx0+1, Idx0+2); Idx0+=3;}
  1806  00198A  D00A               	goto	i2l3832
  1807  00198C                     i2l3828:
  1808  00198C  280B               	incf	_Idx0,w,c
  1809  00198E  6E1A               	movwf	SendBuffCh6@idx_color2,c
  1810  001990  500B               	movf	_Idx0,w,c
  1811  001992  0F02               	addlw	2
  1812  001994  6E1B               	movwf	SendBuffCh6@idx_color3,c
  1813  001996  500B               	movf	_Idx0,w,c
  1814  001998  ECDA  F001         	call	_SendBuffCh6
  1815  00199C  0E03               	movlw	3
  1816  00199E  260B               	addwf	_Idx0,f,c
  1817  0019A0                     i2l3832:
  1818  0019A0  500D               	movf	_ch6_len,w,c
  1819  0019A2  5C0B               	subwf	_Idx0,w,c
  1820  0019A4  A0D8               	btfss	status,0,c
  1821  0019A6  D7F2               	goto	i2l3828
  1822                           
  1823                           ;app.c: 375: SendLedsCh6 = 0; }
  1824  0019A8  0E00               	movlw	0
  1825  0019AA  6E14               	movwf	_SendLedsCh6,c
  1826  0019AC                     i2l695:
  1827                           
  1828                           ;app.c: 376: if(SendLedsCh7){ Idx0=0;
  1829  0019AC  5013               	movf	_SendLedsCh7,w,c
  1830  0019AE  B4D8               	btfsc	status,2,c
  1831  0019B0  0012               	return	
  1832  0019B2  0E00               	movlw	0
  1833  0019B4  6E0B               	movwf	_Idx0,c
  1834                           
  1835                           ;app.c: 377: while(Idx0 < ch7_len){ SendBuffCh7(Idx0, Idx0+1, Idx0+2); Idx0+=3;}
  1836  0019B6  D00A               	goto	i2l3842
  1837  0019B8                     i2l3838:
  1838  0019B8  280B               	incf	_Idx0,w,c
  1839  0019BA  6E1A               	movwf	SendBuffCh7@idx_color2,c
  1840  0019BC  500B               	movf	_Idx0,w,c
  1841  0019BE  0F02               	addlw	2
  1842  0019C0  6E1B               	movwf	SendBuffCh7@idx_color3,c
  1843  0019C2  500B               	movf	_Idx0,w,c
  1844  0019C4  EC58  F000         	call	_SendBuffCh7
  1845  0019C8  0E03               	movlw	3
  1846  0019CA  260B               	addwf	_Idx0,f,c
  1847  0019CC                     i2l3842:
  1848  0019CC  500C               	movf	_ch7_len,w,c
  1849  0019CE  5C0B               	subwf	_Idx0,w,c
  1850  0019D0  A0D8               	btfss	status,0,c
  1851  0019D2  D7F2               	goto	i2l3838
  1852                           
  1853                           ;app.c: 378: SendLedsCh7 = 0; }
  1854  0019D4  0E00               	movlw	0
  1855  0019D6  6E13               	movwf	_SendLedsCh7,c
  1856  0019D8  0012               	return	
  1857  0019DA                     __end_of_AppTimer1ms:
  1858                           	opt stack 0
  1859                           pclatu	equ	0xFFB
  1860                           pclath	equ	0xFFA
  1861                           tblptru	equ	0xFF8
  1862                           tblptrh	equ	0xFF7
  1863                           tblptrl	equ	0xFF6
  1864                           tablat	equ	0xFF5
  1865                           prodh	equ	0xFF4
  1866                           prodl	equ	0xFF3
  1867                           intcon	equ	0xFF2
  1868                           intcon2	equ	0xFF1
  1869                           postinc0	equ	0xFEE
  1870                           fsr0h	equ	0xFEA
  1871                           fsr0l	equ	0xFE9
  1872                           wreg	equ	0xFE8
  1873                           postdec1	equ	0xFE5
  1874                           fsr1h	equ	0xFE2
  1875                           fsr1l	equ	0xFE1
  1876                           fsr2h	equ	0xFDA
  1877                           fsr2l	equ	0xFD9
  1878                           status	equ	0xFD8
  1879                           
  1880 ;; *************** function _SendBuffCh7 *****************
  1881 ;; Defined at:
  1882 ;;		line 326 in file "mcc_generated_files/app.c"
  1883 ;; Parameters:    Size  Location     Type
  1884 ;;  idx_color1      1    wreg     unsigned char 
  1885 ;;  idx_color2      1    0[COMRAM] unsigned char 
  1886 ;;  idx_color3      1    1[COMRAM] unsigned char 
  1887 ;; Auto vars:     Size  Location     Type
  1888 ;;  idx_color1      1    2[COMRAM] unsigned char 
  1889 ;; Return value:  Size  Location     Type
  1890 ;;                  1    wreg      void 
  1891 ;; Registers used:
  1892 ;;		wreg, fsr2l, fsr2h, status,2, status,0, prodl, prodh, cstack
  1893 ;; Tracked objects:
  1894 ;;		On entry : 0/0
  1895 ;;		On exit  : 0/0
  1896 ;;		Unchanged: 0/0
  1897 ;; Data sizes:     COMRAM   BANK0   BANK1   BANK2   BANK3   BANK4   BANK5
  1898 ;;      Params:         2       0       0       0       0       0       0
  1899 ;;      Locals:         1       0       0       0       0       0       0
  1900 ;;      Temps:          0       0       0       0       0       0       0
  1901 ;;      Totals:         3       0       0       0       0       0       0
  1902 ;;Total ram usage:        3 bytes
  1903 ;; Hardware stack levels used:    1
  1904 ;; Hardware stack levels required when called:    1
  1905 ;; This function calls:
  1906 ;;		_um_7
  1907 ;;		_zero_7
  1908 ;; This function is called by:
  1909 ;;		_AppTimer1ms
  1910 ;; This function uses a non-reentrant model
  1911 ;;
  1912                           
  1913                           	psect	text15
  1914  0000B0                     __ptext15:
  1915                           	opt stack 0
  1916  0000B0                     _SendBuffCh7:
  1917                           	opt stack 21
  1918                           
  1919                           ;incstack = 0
  1920                           ;SendBuffCh7@idx_color1 stored from wreg
  1921  0000B0  6E1C               	movwf	SendBuffCh7@idx_color1,c
  1922                           
  1923                           ;app.c: 328: if( (CH7[idx_color1] & 128) > 0)um_7(); else zero_7();
  1924  0000B2  501C               	movf	SendBuffCh7@idx_color1,w,c
  1925  0000B4  0D01               	mullw	1
  1926  0000B6  0E00               	movlw	low _CH7
  1927  0000B8  24F3               	addwf	prodl,w,c
  1928  0000BA  6ED9               	movwf	fsr2l,c
  1929  0000BC  0E02               	movlw	high _CH7
  1930  0000BE  20F4               	addwfc	prodh,w,c
  1931  0000C0  6EDA               	movwf	fsr2h,c
  1932  0000C2  0102               	movlb	2	; () banked
  1933  0000C4  AEDF               	btfss	indf2,7,c
  1934  0000C6  D003               	goto	i2l3634
  1935                           
  1936                           ; BSR set to: 2
  1937  0000C8  EC76  F00D         	call	_um_7	;wreg free
  1938  0000CC  D002               	goto	i2l3636
  1939  0000CE                     i2l3634:
  1940  0000CE  ECF4  F00D         	call	_zero_7	;wreg free
  1941  0000D2                     i2l3636:
  1942                           
  1943                           ;app.c: 329: if( (CH7[idx_color1] & 64) > 0) um_7(); else zero_7();
  1944  0000D2  501C               	movf	SendBuffCh7@idx_color1,w,c
  1945  0000D4  0D01               	mullw	1
  1946  0000D6  0E00               	movlw	low _CH7
  1947  0000D8  24F3               	addwf	prodl,w,c
  1948  0000DA  6ED9               	movwf	fsr2l,c
  1949  0000DC  0E02               	movlw	high _CH7
  1950  0000DE  20F4               	addwfc	prodh,w,c
  1951  0000E0  6EDA               	movwf	fsr2h,c
  1952  0000E2  0102               	movlb	2	; () banked
  1953  0000E4  ACDF               	btfss	indf2,6,c
  1954  0000E6  D003               	goto	i2l3640
  1955                           
  1956                           ; BSR set to: 2
  1957  0000E8  EC76  F00D         	call	_um_7	;wreg free
  1958  0000EC  D002               	goto	i2l3642
  1959  0000EE                     i2l3640:
  1960  0000EE  ECF4  F00D         	call	_zero_7	;wreg free
  1961  0000F2                     i2l3642:
  1962                           
  1963                           ;app.c: 330: if( (CH7[idx_color1] & 32) > 0) um_7(); else zero_7();
  1964  0000F2  501C               	movf	SendBuffCh7@idx_color1,w,c
  1965  0000F4  0D01               	mullw	1
  1966  0000F6  0E00               	movlw	low _CH7
  1967  0000F8  24F3               	addwf	prodl,w,c
  1968  0000FA  6ED9               	movwf	fsr2l,c
  1969  0000FC  0E02               	movlw	high _CH7
  1970  0000FE  20F4               	addwfc	prodh,w,c
  1971  000100  6EDA               	movwf	fsr2h,c
  1972  000102  0102               	movlb	2	; () banked
  1973  000104  AADF               	btfss	indf2,5,c
  1974  000106  D003               	goto	i2l3646
  1975                           
  1976                           ; BSR set to: 2
  1977  000108  EC76  F00D         	call	_um_7	;wreg free
  1978  00010C  D002               	goto	i2l3648
  1979  00010E                     i2l3646:
  1980  00010E  ECF4  F00D         	call	_zero_7	;wreg free
  1981  000112                     i2l3648:
  1982                           
  1983                           ;app.c: 331: if( (CH7[idx_color1] & 16) > 0) um_7(); else zero_7();
  1984  000112  501C               	movf	SendBuffCh7@idx_color1,w,c
  1985  000114  0D01               	mullw	1
  1986  000116  0E00               	movlw	low _CH7
  1987  000118  24F3               	addwf	prodl,w,c
  1988  00011A  6ED9               	movwf	fsr2l,c
  1989  00011C  0E02               	movlw	high _CH7
  1990  00011E  20F4               	addwfc	prodh,w,c
  1991  000120  6EDA               	movwf	fsr2h,c
  1992  000122  0102               	movlb	2	; () banked
  1993  000124  A8DF               	btfss	indf2,4,c
  1994  000126  D003               	goto	i2l3652
  1995                           
  1996                           ; BSR set to: 2
  1997  000128  EC76  F00D         	call	_um_7	;wreg free
  1998  00012C  D002               	goto	i2l3654
  1999  00012E                     i2l3652:
  2000  00012E  ECF4  F00D         	call	_zero_7	;wreg free
  2001  000132                     i2l3654:
  2002                           
  2003                           ;app.c: 332: if( (CH7[idx_color1] & 8) > 0) um_7(); else zero_7();
  2004  000132  501C               	movf	SendBuffCh7@idx_color1,w,c
  2005  000134  0D01               	mullw	1
  2006  000136  0E00               	movlw	low _CH7
  2007  000138  24F3               	addwf	prodl,w,c
  2008  00013A  6ED9               	movwf	fsr2l,c
  2009  00013C  0E02               	movlw	high _CH7
  2010  00013E  20F4               	addwfc	prodh,w,c
  2011  000140  6EDA               	movwf	fsr2h,c
  2012  000142  0102               	movlb	2	; () banked
  2013  000144  A6DF               	btfss	indf2,3,c
  2014  000146  D003               	goto	i2l3658
  2015                           
  2016                           ; BSR set to: 2
  2017  000148  EC76  F00D         	call	_um_7	;wreg free
  2018  00014C  D002               	goto	i2l3660
  2019  00014E                     i2l3658:
  2020  00014E  ECF4  F00D         	call	_zero_7	;wreg free
  2021  000152                     i2l3660:
  2022                           
  2023                           ;app.c: 333: if( (CH7[idx_color1] & 4) > 0) um_7(); else zero_7();
  2024  000152  501C               	movf	SendBuffCh7@idx_color1,w,c
  2025  000154  0D01               	mullw	1
  2026  000156  0E00               	movlw	low _CH7
  2027  000158  24F3               	addwf	prodl,w,c
  2028  00015A  6ED9               	movwf	fsr2l,c
  2029  00015C  0E02               	movlw	high _CH7
  2030  00015E  20F4               	addwfc	prodh,w,c
  2031  000160  6EDA               	movwf	fsr2h,c
  2032  000162  0102               	movlb	2	; () banked
  2033  000164  A4DF               	btfss	indf2,2,c
  2034  000166  D003               	goto	i2l3664
  2035                           
  2036                           ; BSR set to: 2
  2037  000168  EC76  F00D         	call	_um_7	;wreg free
  2038  00016C  D002               	goto	i2l3666
  2039  00016E                     i2l3664:
  2040  00016E  ECF4  F00D         	call	_zero_7	;wreg free
  2041  000172                     i2l3666:
  2042                           
  2043                           ;app.c: 334: if( (CH7[idx_color1] & 2) > 0) um_7(); else zero_7();
  2044  000172  501C               	movf	SendBuffCh7@idx_color1,w,c
  2045  000174  0D01               	mullw	1
  2046  000176  0E00               	movlw	low _CH7
  2047  000178  24F3               	addwf	prodl,w,c
  2048  00017A  6ED9               	movwf	fsr2l,c
  2049  00017C  0E02               	movlw	high _CH7
  2050  00017E  20F4               	addwfc	prodh,w,c
  2051  000180  6EDA               	movwf	fsr2h,c
  2052  000182  0102               	movlb	2	; () banked
  2053  000184  A2DF               	btfss	indf2,1,c
  2054  000186  D003               	goto	i2l3670
  2055                           
  2056                           ; BSR set to: 2
  2057  000188  EC76  F00D         	call	_um_7	;wreg free
  2058  00018C  D002               	goto	i2l3672
  2059  00018E                     i2l3670:
  2060  00018E  ECF4  F00D         	call	_zero_7	;wreg free
  2061  000192                     i2l3672:
  2062                           
  2063                           ;app.c: 335: if( (CH7[idx_color1] & 1) > 0) um_7(); else zero_7();
  2064  000192  501C               	movf	SendBuffCh7@idx_color1,w,c
  2065  000194  0D01               	mullw	1
  2066  000196  0E00               	movlw	low _CH7
  2067  000198  24F3               	addwf	prodl,w,c
  2068  00019A  6ED9               	movwf	fsr2l,c
  2069  00019C  0E02               	movlw	high _CH7
  2070  00019E  20F4               	addwfc	prodh,w,c
  2071  0001A0  6EDA               	movwf	fsr2h,c
  2072  0001A2  0102               	movlb	2	; () banked
  2073  0001A4  A0DF               	btfss	indf2,0,c
  2074  0001A6  D003               	goto	i2l3676
  2075                           
  2076                           ; BSR set to: 2
  2077  0001A8  EC76  F00D         	call	_um_7	;wreg free
  2078  0001AC  D002               	goto	i2l3678
  2079  0001AE                     i2l3676:
  2080  0001AE  ECF4  F00D         	call	_zero_7	;wreg free
  2081  0001B2                     i2l3678:
  2082                           
  2083                           ;app.c: 337: if( (CH7[idx_color2] & 128) > 0)um_7(); else zero_7();
  2084  0001B2  501A               	movf	SendBuffCh7@idx_color2,w,c
  2085  0001B4  0D01               	mullw	1
  2086  0001B6  0E00               	movlw	low _CH7
  2087  0001B8  24F3               	addwf	prodl,w,c
  2088  0001BA  6ED9               	movwf	fsr2l,c
  2089  0001BC  0E02               	movlw	high _CH7
  2090  0001BE  20F4               	addwfc	prodh,w,c
  2091  0001C0  6EDA               	movwf	fsr2h,c
  2092  0001C2  0102               	movlb	2	; () banked
  2093  0001C4  AEDF               	btfss	indf2,7,c
  2094  0001C6  D003               	goto	i2l3682
  2095                           
  2096                           ; BSR set to: 2
  2097  0001C8  EC76  F00D         	call	_um_7	;wreg free
  2098  0001CC  D002               	goto	i2l3684
  2099  0001CE                     i2l3682:
  2100  0001CE  ECF4  F00D         	call	_zero_7	;wreg free
  2101  0001D2                     i2l3684:
  2102                           
  2103                           ;app.c: 338: if( (CH7[idx_color2] & 64) > 0) um_7(); else zero_7();
  2104  0001D2  501A               	movf	SendBuffCh7@idx_color2,w,c
  2105  0001D4  0D01               	mullw	1
  2106  0001D6  0E00               	movlw	low _CH7
  2107  0001D8  24F3               	addwf	prodl,w,c
  2108  0001DA  6ED9               	movwf	fsr2l,c
  2109  0001DC  0E02               	movlw	high _CH7
  2110  0001DE  20F4               	addwfc	prodh,w,c
  2111  0001E0  6EDA               	movwf	fsr2h,c
  2112  0001E2  0102               	movlb	2	; () banked
  2113  0001E4  ACDF               	btfss	indf2,6,c
  2114  0001E6  D003               	goto	i2l3688
  2115                           
  2116                           ; BSR set to: 2
  2117  0001E8  EC76  F00D         	call	_um_7	;wreg free
  2118  0001EC  D002               	goto	i2l3690
  2119  0001EE                     i2l3688:
  2120  0001EE  ECF4  F00D         	call	_zero_7	;wreg free
  2121  0001F2                     i2l3690:
  2122                           
  2123                           ;app.c: 339: if( (CH7[idx_color2] & 32) > 0) um_7(); else zero_7();
  2124  0001F2  501A               	movf	SendBuffCh7@idx_color2,w,c
  2125  0001F4  0D01               	mullw	1
  2126  0001F6  0E00               	movlw	low _CH7
  2127  0001F8  24F3               	addwf	prodl,w,c
  2128  0001FA  6ED9               	movwf	fsr2l,c
  2129  0001FC  0E02               	movlw	high _CH7
  2130  0001FE  20F4               	addwfc	prodh,w,c
  2131  000200  6EDA               	movwf	fsr2h,c
  2132  000202  0102               	movlb	2	; () banked
  2133  000204  AADF               	btfss	indf2,5,c
  2134  000206  D003               	goto	i2l3694
  2135                           
  2136                           ; BSR set to: 2
  2137  000208  EC76  F00D         	call	_um_7	;wreg free
  2138  00020C  D002               	goto	i2l3696
  2139  00020E                     i2l3694:
  2140  00020E  ECF4  F00D         	call	_zero_7	;wreg free
  2141  000212                     i2l3696:
  2142                           
  2143                           ;app.c: 340: if( (CH7[idx_color2] & 16) > 0) um_7(); else zero_7();
  2144  000212  501A               	movf	SendBuffCh7@idx_color2,w,c
  2145  000214  0D01               	mullw	1
  2146  000216  0E00               	movlw	low _CH7
  2147  000218  24F3               	addwf	prodl,w,c
  2148  00021A  6ED9               	movwf	fsr2l,c
  2149  00021C  0E02               	movlw	high _CH7
  2150  00021E  20F4               	addwfc	prodh,w,c
  2151  000220  6EDA               	movwf	fsr2h,c
  2152  000222  0102               	movlb	2	; () banked
  2153  000224  A8DF               	btfss	indf2,4,c
  2154  000226  D003               	goto	i2l3700
  2155                           
  2156                           ; BSR set to: 2
  2157  000228  EC76  F00D         	call	_um_7	;wreg free
  2158  00022C  D002               	goto	i2l3702
  2159  00022E                     i2l3700:
  2160  00022E  ECF4  F00D         	call	_zero_7	;wreg free
  2161  000232                     i2l3702:
  2162                           
  2163                           ;app.c: 341: if( (CH7[idx_color2] & 8) > 0) um_7(); else zero_7();
  2164  000232  501A               	movf	SendBuffCh7@idx_color2,w,c
  2165  000234  0D01               	mullw	1
  2166  000236  0E00               	movlw	low _CH7
  2167  000238  24F3               	addwf	prodl,w,c
  2168  00023A  6ED9               	movwf	fsr2l,c
  2169  00023C  0E02               	movlw	high _CH7
  2170  00023E  20F4               	addwfc	prodh,w,c
  2171  000240  6EDA               	movwf	fsr2h,c
  2172  000242  0102               	movlb	2	; () banked
  2173  000244  A6DF               	btfss	indf2,3,c
  2174  000246  D003               	goto	i2l3706
  2175                           
  2176                           ; BSR set to: 2
  2177  000248  EC76  F00D         	call	_um_7	;wreg free
  2178  00024C  D002               	goto	i2l3708
  2179  00024E                     i2l3706:
  2180  00024E  ECF4  F00D         	call	_zero_7	;wreg free
  2181  000252                     i2l3708:
  2182                           
  2183                           ;app.c: 342: if( (CH7[idx_color2] & 4) > 0) um_7(); else zero_7();
  2184  000252  501A               	movf	SendBuffCh7@idx_color2,w,c
  2185  000254  0D01               	mullw	1
  2186  000256  0E00               	movlw	low _CH7
  2187  000258  24F3               	addwf	prodl,w,c
  2188  00025A  6ED9               	movwf	fsr2l,c
  2189  00025C  0E02               	movlw	high _CH7
  2190  00025E  20F4               	addwfc	prodh,w,c
  2191  000260  6EDA               	movwf	fsr2h,c
  2192  000262  0102               	movlb	2	; () banked
  2193  000264  A4DF               	btfss	indf2,2,c
  2194  000266  D003               	goto	i2l3712
  2195                           
  2196                           ; BSR set to: 2
  2197  000268  EC76  F00D         	call	_um_7	;wreg free
  2198  00026C  D002               	goto	i2l3714
  2199  00026E                     i2l3712:
  2200  00026E  ECF4  F00D         	call	_zero_7	;wreg free
  2201  000272                     i2l3714:
  2202                           
  2203                           ;app.c: 343: if( (CH7[idx_color2] & 2) > 0) um_7(); else zero_7();
  2204  000272  501A               	movf	SendBuffCh7@idx_color2,w,c
  2205  000274  0D01               	mullw	1
  2206  000276  0E00               	movlw	low _CH7
  2207  000278  24F3               	addwf	prodl,w,c
  2208  00027A  6ED9               	movwf	fsr2l,c
  2209  00027C  0E02               	movlw	high _CH7
  2210  00027E  20F4               	addwfc	prodh,w,c
  2211  000280  6EDA               	movwf	fsr2h,c
  2212  000282  0102               	movlb	2	; () banked
  2213  000284  A2DF               	btfss	indf2,1,c
  2214  000286  D003               	goto	i2l3718
  2215                           
  2216                           ; BSR set to: 2
  2217  000288  EC76  F00D         	call	_um_7	;wreg free
  2218  00028C  D002               	goto	i2l3720
  2219  00028E                     i2l3718:
  2220  00028E  ECF4  F00D         	call	_zero_7	;wreg free
  2221  000292                     i2l3720:
  2222                           
  2223                           ;app.c: 344: if( (CH7[idx_color2] & 1) > 0) um_7(); else zero_7();
  2224  000292  501A               	movf	SendBuffCh7@idx_color2,w,c
  2225  000294  0D01               	mullw	1
  2226  000296  0E00               	movlw	low _CH7
  2227  000298  24F3               	addwf	prodl,w,c
  2228  00029A  6ED9               	movwf	fsr2l,c
  2229  00029C  0E02               	movlw	high _CH7
  2230  00029E  20F4               	addwfc	prodh,w,c
  2231  0002A0  6EDA               	movwf	fsr2h,c
  2232  0002A2  0102               	movlb	2	; () banked
  2233  0002A4  A0DF               	btfss	indf2,0,c
  2234  0002A6  D003               	goto	i2l3724
  2235                           
  2236                           ; BSR set to: 2
  2237  0002A8  EC76  F00D         	call	_um_7	;wreg free
  2238  0002AC  D002               	goto	i2l3726
  2239  0002AE                     i2l3724:
  2240  0002AE  ECF4  F00D         	call	_zero_7	;wreg free
  2241  0002B2                     i2l3726:
  2242                           
  2243                           ;app.c: 346: if( (CH7[idx_color3] & 128) > 0)um_7(); else zero_7();
  2244  0002B2  501B               	movf	SendBuffCh7@idx_color3,w,c
  2245  0002B4  0D01               	mullw	1
  2246  0002B6  0E00               	movlw	low _CH7
  2247  0002B8  24F3               	addwf	prodl,w,c
  2248  0002BA  6ED9               	movwf	fsr2l,c
  2249  0002BC  0E02               	movlw	high _CH7
  2250  0002BE  20F4               	addwfc	prodh,w,c
  2251  0002C0  6EDA               	movwf	fsr2h,c
  2252  0002C2  0102               	movlb	2	; () banked
  2253  0002C4  AEDF               	btfss	indf2,7,c
  2254  0002C6  D003               	goto	i2l3730
  2255                           
  2256                           ; BSR set to: 2
  2257  0002C8  EC76  F00D         	call	_um_7	;wreg free
  2258  0002CC  D002               	goto	i2l3732
  2259  0002CE                     i2l3730:
  2260  0002CE  ECF4  F00D         	call	_zero_7	;wreg free
  2261  0002D2                     i2l3732:
  2262                           
  2263                           ;app.c: 347: if( (CH7[idx_color3] & 64) > 0) um_7(); else zero_7();
  2264  0002D2  501B               	movf	SendBuffCh7@idx_color3,w,c
  2265  0002D4  0D01               	mullw	1
  2266  0002D6  0E00               	movlw	low _CH7
  2267  0002D8  24F3               	addwf	prodl,w,c
  2268  0002DA  6ED9               	movwf	fsr2l,c
  2269  0002DC  0E02               	movlw	high _CH7
  2270  0002DE  20F4               	addwfc	prodh,w,c
  2271  0002E0  6EDA               	movwf	fsr2h,c
  2272  0002E2  0102               	movlb	2	; () banked
  2273  0002E4  ACDF               	btfss	indf2,6,c
  2274  0002E6  D003               	goto	i2l3736
  2275                           
  2276                           ; BSR set to: 2
  2277  0002E8  EC76  F00D         	call	_um_7	;wreg free
  2278  0002EC  D002               	goto	i2l3738
  2279  0002EE                     i2l3736:
  2280  0002EE  ECF4  F00D         	call	_zero_7	;wreg free
  2281  0002F2                     i2l3738:
  2282                           
  2283                           ;app.c: 348: if( (CH7[idx_color3] & 32) > 0) um_7(); else zero_7();
  2284  0002F2  501B               	movf	SendBuffCh7@idx_color3,w,c
  2285  0002F4  0D01               	mullw	1
  2286  0002F6  0E00               	movlw	low _CH7
  2287  0002F8  24F3               	addwf	prodl,w,c
  2288  0002FA  6ED9               	movwf	fsr2l,c
  2289  0002FC  0E02               	movlw	high _CH7
  2290  0002FE  20F4               	addwfc	prodh,w,c
  2291  000300  6EDA               	movwf	fsr2h,c
  2292  000302  0102               	movlb	2	; () banked
  2293  000304  AADF               	btfss	indf2,5,c
  2294  000306  D003               	goto	i2l3742
  2295                           
  2296                           ; BSR set to: 2
  2297  000308  EC76  F00D         	call	_um_7	;wreg free
  2298  00030C  D002               	goto	i2l3744
  2299  00030E                     i2l3742:
  2300  00030E  ECF4  F00D         	call	_zero_7	;wreg free
  2301  000312                     i2l3744:
  2302                           
  2303                           ;app.c: 349: if( (CH7[idx_color3] & 16) > 0) um_7(); else zero_7();
  2304  000312  501B               	movf	SendBuffCh7@idx_color3,w,c
  2305  000314  0D01               	mullw	1
  2306  000316  0E00               	movlw	low _CH7
  2307  000318  24F3               	addwf	prodl,w,c
  2308  00031A  6ED9               	movwf	fsr2l,c
  2309  00031C  0E02               	movlw	high _CH7
  2310  00031E  20F4               	addwfc	prodh,w,c
  2311  000320  6EDA               	movwf	fsr2h,c
  2312  000322  0102               	movlb	2	; () banked
  2313  000324  A8DF               	btfss	indf2,4,c
  2314  000326  D003               	goto	i2l3748
  2315                           
  2316                           ; BSR set to: 2
  2317  000328  EC76  F00D         	call	_um_7	;wreg free
  2318  00032C  D002               	goto	i2l3750
  2319  00032E                     i2l3748:
  2320  00032E  ECF4  F00D         	call	_zero_7	;wreg free
  2321  000332                     i2l3750:
  2322                           
  2323                           ;app.c: 350: if( (CH7[idx_color3] & 8) > 0) um_7(); else zero_7();
  2324  000332  501B               	movf	SendBuffCh7@idx_color3,w,c
  2325  000334  0D01               	mullw	1
  2326  000336  0E00               	movlw	low _CH7
  2327  000338  24F3               	addwf	prodl,w,c
  2328  00033A  6ED9               	movwf	fsr2l,c
  2329  00033C  0E02               	movlw	high _CH7
  2330  00033E  20F4               	addwfc	prodh,w,c
  2331  000340  6EDA               	movwf	fsr2h,c
  2332  000342  0102               	movlb	2	; () banked
  2333  000344  A6DF               	btfss	indf2,3,c
  2334  000346  D003               	goto	i2l3754
  2335                           
  2336                           ; BSR set to: 2
  2337  000348  EC76  F00D         	call	_um_7	;wreg free
  2338  00034C  D002               	goto	i2l3756
  2339  00034E                     i2l3754:
  2340  00034E  ECF4  F00D         	call	_zero_7	;wreg free
  2341  000352                     i2l3756:
  2342                           
  2343                           ;app.c: 351: if( (CH7[idx_color3] & 4) > 0) um_7(); else zero_7();
  2344  000352  501B               	movf	SendBuffCh7@idx_color3,w,c
  2345  000354  0D01               	mullw	1
  2346  000356  0E00               	movlw	low _CH7
  2347  000358  24F3               	addwf	prodl,w,c
  2348  00035A  6ED9               	movwf	fsr2l,c
  2349  00035C  0E02               	movlw	high _CH7
  2350  00035E  20F4               	addwfc	prodh,w,c
  2351  000360  6EDA               	movwf	fsr2h,c
  2352  000362  0102               	movlb	2	; () banked
  2353  000364  A4DF               	btfss	indf2,2,c
  2354  000366  D003               	goto	i2l3760
  2355                           
  2356                           ; BSR set to: 2
  2357  000368  EC76  F00D         	call	_um_7	;wreg free
  2358  00036C  D002               	goto	i2l3762
  2359  00036E                     i2l3760:
  2360  00036E  ECF4  F00D         	call	_zero_7	;wreg free
  2361  000372                     i2l3762:
  2362                           
  2363                           ;app.c: 352: if( (CH7[idx_color3] & 2) > 0) um_7(); else zero_7();
  2364  000372  501B               	movf	SendBuffCh7@idx_color3,w,c
  2365  000374  0D01               	mullw	1
  2366  000376  0E00               	movlw	low _CH7
  2367  000378  24F3               	addwf	prodl,w,c
  2368  00037A  6ED9               	movwf	fsr2l,c
  2369  00037C  0E02               	movlw	high _CH7
  2370  00037E  20F4               	addwfc	prodh,w,c
  2371  000380  6EDA               	movwf	fsr2h,c
  2372  000382  0102               	movlb	2	; () banked
  2373  000384  A2DF               	btfss	indf2,1,c
  2374  000386  D003               	goto	i2l3766
  2375                           
  2376                           ; BSR set to: 2
  2377  000388  EC76  F00D         	call	_um_7	;wreg free
  2378  00038C  D002               	goto	i2l3768
  2379  00038E                     i2l3766:
  2380  00038E  ECF4  F00D         	call	_zero_7	;wreg free
  2381  000392                     i2l3768:
  2382                           
  2383                           ;app.c: 353: if( (CH7[idx_color3] & 1) > 0) um_7(); else zero_7();
  2384  000392  501B               	movf	SendBuffCh7@idx_color3,w,c
  2385  000394  0D01               	mullw	1
  2386  000396  0E00               	movlw	low _CH7
  2387  000398  24F3               	addwf	prodl,w,c
  2388  00039A  6ED9               	movwf	fsr2l,c
  2389  00039C  0E02               	movlw	high _CH7
  2390  00039E  20F4               	addwfc	prodh,w,c
  2391  0003A0  6EDA               	movwf	fsr2h,c
  2392  0003A2  0102               	movlb	2	; () banked
  2393  0003A4  A0DF               	btfss	indf2,0,c
  2394  0003A6  D003               	goto	i2l3772
  2395                           
  2396                           ; BSR set to: 2
  2397  0003A8  EC76  F00D         	call	_um_7	;wreg free
  2398  0003AC  0012               	return	
  2399  0003AE                     i2l3772:
  2400  0003AE  ECF4  F00D         	call	_zero_7	;wreg free
  2401  0003B2  0012               	return	
  2402  0003B4                     __end_of_SendBuffCh7:
  2403                           	opt stack 0
  2404                           pclatu	equ	0xFFB
  2405                           pclath	equ	0xFFA
  2406                           tblptru	equ	0xFF8
  2407                           tblptrh	equ	0xFF7
  2408                           tblptrl	equ	0xFF6
  2409                           tablat	equ	0xFF5
  2410                           prodh	equ	0xFF4
  2411                           prodl	equ	0xFF3
  2412                           intcon	equ	0xFF2
  2413                           intcon2	equ	0xFF1
  2414                           postinc0	equ	0xFEE
  2415                           fsr0h	equ	0xFEA
  2416                           fsr0l	equ	0xFE9
  2417                           wreg	equ	0xFE8
  2418                           postdec1	equ	0xFE5
  2419                           fsr1h	equ	0xFE2
  2420                           fsr1l	equ	0xFE1
  2421                           indf2	equ	0xFDF
  2422                           fsr2h	equ	0xFDA
  2423                           fsr2l	equ	0xFD9
  2424                           status	equ	0xFD8
  2425                           
  2426 ;; *************** function _zero_7 *****************
  2427 ;; Defined at:
  2428 ;;		line 145 in file "mcc_generated_files/app.c"
  2429 ;; Parameters:    Size  Location     Type
  2430 ;;		None
  2431 ;; Auto vars:     Size  Location     Type
  2432 ;;		None
  2433 ;; Return value:  Size  Location     Type
  2434 ;;                  1    wreg      void 
  2435 ;; Registers used:
  2436 ;;		None
  2437 ;; Tracked objects:
  2438 ;;		On entry : 0/0
  2439 ;;		On exit  : 0/0
  2440 ;;		Unchanged: 0/0
  2441 ;; Data sizes:     COMRAM   BANK0   BANK1   BANK2   BANK3   BANK4   BANK5
  2442 ;;      Params:         0       0       0       0       0       0       0
  2443 ;;      Locals:         0       0       0       0       0       0       0
  2444 ;;      Temps:          0       0       0       0       0       0       0
  2445 ;;      Totals:         0       0       0       0       0       0       0
  2446 ;;Total ram usage:        0 bytes
  2447 ;; Hardware stack levels used:    1
  2448 ;; This function calls:
  2449 ;;		Nothing
  2450 ;; This function is called by:
  2451 ;;		_SendBuffCh7
  2452 ;; This function uses a non-reentrant model
  2453 ;;
  2454                           
  2455                           	psect	text16
  2456  001BE8                     __ptext16:
  2457                           	opt stack 0
  2458  001BE8                     _zero_7:
  2459                           	opt stack 21
  2460                           
  2461                           ;incstack = 0
  2462  001BE8  808B               	bsf	3979,0,c	;volatile
  2463  001BEA  F000               	nop	
  2464  001BEC  F000               	nop	
  2465  001BEE  F000               	nop	
  2466  001BF0  F000               	nop	
  2467  001BF2  F000               	nop	
  2468  001BF4  F000               	nop	
  2469                           
  2470                           ;app.c: 146: LATC0 = 0; __nop();__nop();__nop();__nop();__nop();__nop(); }
  2471  001BF6  908B               	bcf	3979,0,c	;volatile
  2472  001BF8  F000               	nop	
  2473  001BFA  F000               	nop	
  2474  001BFC  F000               	nop	
  2475  001BFE  F000               	nop	
  2476  001C00  F000               	nop	
  2477  001C02  F000               	nop	
  2478  001C04  0012               	return		;funcret
  2479  001C06                     __end_of_zero_7:
  2480                           	opt stack 0
  2481                           pclatu	equ	0xFFB
  2482                           pclath	equ	0xFFA
  2483                           tblptru	equ	0xFF8
  2484                           tblptrh	equ	0xFF7
  2485                           tblptrl	equ	0xFF6
  2486                           tablat	equ	0xFF5
  2487                           prodh	equ	0xFF4
  2488                           prodl	equ	0xFF3
  2489                           intcon	equ	0xFF2
  2490                           intcon2	equ	0xFF1
  2491                           postinc0	equ	0xFEE
  2492                           fsr0h	equ	0xFEA
  2493                           fsr0l	equ	0xFE9
  2494                           wreg	equ	0xFE8
  2495                           postdec1	equ	0xFE5
  2496                           fsr1h	equ	0xFE2
  2497                           fsr1l	equ	0xFE1
  2498                           indf2	equ	0xFDF
  2499                           fsr2h	equ	0xFDA
  2500                           fsr2l	equ	0xFD9
  2501                           status	equ	0xFD8
  2502                           
  2503 ;; *************** function _um_7 *****************
  2504 ;; Defined at:
  2505 ;;		line 141 in file "mcc_generated_files/app.c"
  2506 ;; Parameters:    Size  Location     Type
  2507 ;;		None
  2508 ;; Auto vars:     Size  Location     Type
  2509 ;;		None
  2510 ;; Return value:  Size  Location     Type
  2511 ;;                  1    wreg      void 
  2512 ;; Registers used:
  2513 ;;		None
  2514 ;; Tracked objects:
  2515 ;;		On entry : 0/0
  2516 ;;		On exit  : 0/0
  2517 ;;		Unchanged: 0/0
  2518 ;; Data sizes:     COMRAM   BANK0   BANK1   BANK2   BANK3   BANK4   BANK5
  2519 ;;      Params:         0       0       0       0       0       0       0
  2520 ;;      Locals:         0       0       0       0       0       0       0
  2521 ;;      Temps:          0       0       0       0       0       0       0
  2522 ;;      Totals:         0       0       0       0       0       0       0
  2523 ;;Total ram usage:        0 bytes
  2524 ;; Hardware stack levels used:    1
  2525 ;; This function calls:
  2526 ;;		Nothing
  2527 ;; This function is called by:
  2528 ;;		_SendBuffCh7
  2529 ;; This function uses a non-reentrant model
  2530 ;;
  2531                           
  2532                           	psect	text17
  2533  001AEC                     __ptext17:
  2534                           	opt stack 0
  2535  001AEC                     _um_7:
  2536                           	opt stack 21
  2537                           
  2538                           ;incstack = 0
  2539  001AEC  808B               	bsf	3979,0,c	;volatile
  2540  001AEE  F000               	nop	
  2541  001AF0  F000               	nop	
  2542  001AF2  F000               	nop	
  2543  001AF4  F000               	nop	
  2544  001AF6  F000               	nop	
  2545  001AF8  F000               	nop	
  2546                           
  2547                           ;app.c: 142: __nop();__nop();__nop();__nop();__nop();__nop();
  2548  001AFA  F000               	nop	
  2549  001AFC  F000               	nop	
  2550  001AFE  F000               	nop	
  2551  001B00  F000               	nop	
  2552  001B02  F000               	nop	
  2553  001B04  F000               	nop	
  2554                           
  2555                           ;app.c: 143: __nop();__nop();__nop(); LATC0 = 0;
  2556  001B06  F000               	nop	
  2557  001B08  F000               	nop	
  2558  001B0A  F000               	nop	
  2559  001B0C  908B               	bcf	3979,0,c	;volatile
  2560  001B0E  0012               	return		;funcret
  2561  001B10                     __end_of_um_7:
  2562                           	opt stack 0
  2563                           pclatu	equ	0xFFB
  2564                           pclath	equ	0xFFA
  2565                           tblptru	equ	0xFF8
  2566                           tblptrh	equ	0xFF7
  2567                           tblptrl	equ	0xFF6
  2568                           tablat	equ	0xFF5
  2569                           prodh	equ	0xFF4
  2570                           prodl	equ	0xFF3
  2571                           intcon	equ	0xFF2
  2572                           intcon2	equ	0xFF1
  2573                           postinc0	equ	0xFEE
  2574                           fsr0h	equ	0xFEA
  2575                           fsr0l	equ	0xFE9
  2576                           wreg	equ	0xFE8
  2577                           postdec1	equ	0xFE5
  2578                           fsr1h	equ	0xFE2
  2579                           fsr1l	equ	0xFE1
  2580                           indf2	equ	0xFDF
  2581                           fsr2h	equ	0xFDA
  2582                           fsr2l	equ	0xFD9
  2583                           status	equ	0xFD8
  2584                           
  2585 ;; *************** function _SendBuffCh6 *****************
  2586 ;; Defined at:
  2587 ;;		line 297 in file "mcc_generated_files/app.c"
  2588 ;; Parameters:    Size  Location     Type
  2589 ;;  idx_color1      1    wreg     unsigned char 
  2590 ;;  idx_color2      1    0[COMRAM] unsigned char 
  2591 ;;  idx_color3      1    1[COMRAM] unsigned char 
  2592 ;; Auto vars:     Size  Location     Type
  2593 ;;  idx_color1      1    2[COMRAM] unsigned char 
  2594 ;; Return value:  Size  Location     Type
  2595 ;;                  1    wreg      void 
  2596 ;; Registers used:
  2597 ;;		wreg, fsr2l, fsr2h, status,2, status,0, prodl, prodh, cstack
  2598 ;; Tracked objects:
  2599 ;;		On entry : 0/0
  2600 ;;		On exit  : 0/0
  2601 ;;		Unchanged: 0/0
  2602 ;; Data sizes:     COMRAM   BANK0   BANK1   BANK2   BANK3   BANK4   BANK5
  2603 ;;      Params:         2       0       0       0       0       0       0
  2604 ;;      Locals:         1       0       0       0       0       0       0
  2605 ;;      Temps:          0       0       0       0       0       0       0
  2606 ;;      Totals:         3       0       0       0       0       0       0
  2607 ;;Total ram usage:        3 bytes
  2608 ;; Hardware stack levels used:    1
  2609 ;; Hardware stack levels required when called:    1
  2610 ;; This function calls:
  2611 ;;		_um_6
  2612 ;;		_zero_6
  2613 ;; This function is called by:
  2614 ;;		_AppTimer1ms
  2615 ;; This function uses a non-reentrant model
  2616 ;;
  2617                           
  2618                           	psect	text18
  2619  0003B4                     __ptext18:
  2620                           	opt stack 0
  2621  0003B4                     _SendBuffCh6:
  2622                           	opt stack 21
  2623                           
  2624                           ;incstack = 0
  2625                           ;SendBuffCh6@idx_color1 stored from wreg
  2626  0003B4  6E1C               	movwf	SendBuffCh6@idx_color1,c
  2627                           
  2628                           ;app.c: 299: if( (CH6[idx_color1] & 128) > 0)um_6(); else zero_6();
  2629  0003B6  501C               	movf	SendBuffCh6@idx_color1,w,c
  2630  0003B8  0D01               	mullw	1
  2631  0003BA  0E00               	movlw	low _CH6
  2632  0003BC  24F3               	addwf	prodl,w,c
  2633  0003BE  6ED9               	movwf	fsr2l,c
  2634  0003C0  0E01               	movlw	high _CH6
  2635  0003C2  20F4               	addwfc	prodh,w,c
  2636  0003C4  6EDA               	movwf	fsr2h,c
  2637  0003C6  0101               	movlb	1	; () banked
  2638  0003C8  AEDF               	btfss	indf2,7,c
  2639  0003CA  D003               	goto	i2l3490
  2640                           
  2641                           ; BSR set to: 1
  2642  0003CC  EC88  F00D         	call	_um_6	;wreg free
  2643  0003D0  D002               	goto	i2l3492
  2644  0003D2                     i2l3490:
  2645  0003D2  EC03  F00E         	call	_zero_6	;wreg free
  2646  0003D6                     i2l3492:
  2647                           
  2648                           ;app.c: 300: if( (CH6[idx_color1] & 64) > 0) um_6(); else zero_6();
  2649  0003D6  501C               	movf	SendBuffCh6@idx_color1,w,c
  2650  0003D8  0D01               	mullw	1
  2651  0003DA  0E00               	movlw	low _CH6
  2652  0003DC  24F3               	addwf	prodl,w,c
  2653  0003DE  6ED9               	movwf	fsr2l,c
  2654  0003E0  0E01               	movlw	high _CH6
  2655  0003E2  20F4               	addwfc	prodh,w,c
  2656  0003E4  6EDA               	movwf	fsr2h,c
  2657  0003E6  0101               	movlb	1	; () banked
  2658  0003E8  ACDF               	btfss	indf2,6,c
  2659  0003EA  D003               	goto	i2l3496
  2660                           
  2661                           ; BSR set to: 1
  2662  0003EC  EC88  F00D         	call	_um_6	;wreg free
  2663  0003F0  D002               	goto	i2l3498
  2664  0003F2                     i2l3496:
  2665  0003F2  EC03  F00E         	call	_zero_6	;wreg free
  2666  0003F6                     i2l3498:
  2667                           
  2668                           ;app.c: 301: if( (CH6[idx_color1] & 32) > 0) um_6(); else zero_6();
  2669  0003F6  501C               	movf	SendBuffCh6@idx_color1,w,c
  2670  0003F8  0D01               	mullw	1
  2671  0003FA  0E00               	movlw	low _CH6
  2672  0003FC  24F3               	addwf	prodl,w,c
  2673  0003FE  6ED9               	movwf	fsr2l,c
  2674  000400  0E01               	movlw	high _CH6
  2675  000402  20F4               	addwfc	prodh,w,c
  2676  000404  6EDA               	movwf	fsr2h,c
  2677  000406  0101               	movlb	1	; () banked
  2678  000408  AADF               	btfss	indf2,5,c
  2679  00040A  D003               	goto	i2l3502
  2680                           
  2681                           ; BSR set to: 1
  2682  00040C  EC88  F00D         	call	_um_6	;wreg free
  2683  000410  D002               	goto	i2l3504
  2684  000412                     i2l3502:
  2685  000412  EC03  F00E         	call	_zero_6	;wreg free
  2686  000416                     i2l3504:
  2687                           
  2688                           ;app.c: 302: if( (CH6[idx_color1] & 16) > 0) um_6(); else zero_6();
  2689  000416  501C               	movf	SendBuffCh6@idx_color1,w,c
  2690  000418  0D01               	mullw	1
  2691  00041A  0E00               	movlw	low _CH6
  2692  00041C  24F3               	addwf	prodl,w,c
  2693  00041E  6ED9               	movwf	fsr2l,c
  2694  000420  0E01               	movlw	high _CH6
  2695  000422  20F4               	addwfc	prodh,w,c
  2696  000424  6EDA               	movwf	fsr2h,c
  2697  000426  0101               	movlb	1	; () banked
  2698  000428  A8DF               	btfss	indf2,4,c
  2699  00042A  D003               	goto	i2l3508
  2700                           
  2701                           ; BSR set to: 1
  2702  00042C  EC88  F00D         	call	_um_6	;wreg free
  2703  000430  D002               	goto	i2l3510
  2704  000432                     i2l3508:
  2705  000432  EC03  F00E         	call	_zero_6	;wreg free
  2706  000436                     i2l3510:
  2707                           
  2708                           ;app.c: 303: if( (CH6[idx_color1] & 8) > 0) um_6(); else zero_6();
  2709  000436  501C               	movf	SendBuffCh6@idx_color1,w,c
  2710  000438  0D01               	mullw	1
  2711  00043A  0E00               	movlw	low _CH6
  2712  00043C  24F3               	addwf	prodl,w,c
  2713  00043E  6ED9               	movwf	fsr2l,c
  2714  000440  0E01               	movlw	high _CH6
  2715  000442  20F4               	addwfc	prodh,w,c
  2716  000444  6EDA               	movwf	fsr2h,c
  2717  000446  0101               	movlb	1	; () banked
  2718  000448  A6DF               	btfss	indf2,3,c
  2719  00044A  D003               	goto	i2l3514
  2720                           
  2721                           ; BSR set to: 1
  2722  00044C  EC88  F00D         	call	_um_6	;wreg free
  2723  000450  D002               	goto	i2l3516
  2724  000452                     i2l3514:
  2725  000452  EC03  F00E         	call	_zero_6	;wreg free
  2726  000456                     i2l3516:
  2727                           
  2728                           ;app.c: 304: if( (CH6[idx_color1] & 4) > 0) um_6(); else zero_6();
  2729  000456  501C               	movf	SendBuffCh6@idx_color1,w,c
  2730  000458  0D01               	mullw	1
  2731  00045A  0E00               	movlw	low _CH6
  2732  00045C  24F3               	addwf	prodl,w,c
  2733  00045E  6ED9               	movwf	fsr2l,c
  2734  000460  0E01               	movlw	high _CH6
  2735  000462  20F4               	addwfc	prodh,w,c
  2736  000464  6EDA               	movwf	fsr2h,c
  2737  000466  0101               	movlb	1	; () banked
  2738  000468  A4DF               	btfss	indf2,2,c
  2739  00046A  D003               	goto	i2l3520
  2740                           
  2741                           ; BSR set to: 1
  2742  00046C  EC88  F00D         	call	_um_6	;wreg free
  2743  000470  D002               	goto	i2l3522
  2744  000472                     i2l3520:
  2745  000472  EC03  F00E         	call	_zero_6	;wreg free
  2746  000476                     i2l3522:
  2747                           
  2748                           ;app.c: 305: if( (CH6[idx_color1] & 2) > 0) um_6(); else zero_6();
  2749  000476  501C               	movf	SendBuffCh6@idx_color1,w,c
  2750  000478  0D01               	mullw	1
  2751  00047A  0E00               	movlw	low _CH6
  2752  00047C  24F3               	addwf	prodl,w,c
  2753  00047E  6ED9               	movwf	fsr2l,c
  2754  000480  0E01               	movlw	high _CH6
  2755  000482  20F4               	addwfc	prodh,w,c
  2756  000484  6EDA               	movwf	fsr2h,c
  2757  000486  0101               	movlb	1	; () banked
  2758  000488  A2DF               	btfss	indf2,1,c
  2759  00048A  D003               	goto	i2l3526
  2760                           
  2761                           ; BSR set to: 1
  2762  00048C  EC88  F00D         	call	_um_6	;wreg free
  2763  000490  D002               	goto	i2l3528
  2764  000492                     i2l3526:
  2765  000492  EC03  F00E         	call	_zero_6	;wreg free
  2766  000496                     i2l3528:
  2767                           
  2768                           ;app.c: 306: if( (CH6[idx_color1] & 1) > 0) um_6(); else zero_6();
  2769  000496  501C               	movf	SendBuffCh6@idx_color1,w,c
  2770  000498  0D01               	mullw	1
  2771  00049A  0E00               	movlw	low _CH6
  2772  00049C  24F3               	addwf	prodl,w,c
  2773  00049E  6ED9               	movwf	fsr2l,c
  2774  0004A0  0E01               	movlw	high _CH6
  2775  0004A2  20F4               	addwfc	prodh,w,c
  2776  0004A4  6EDA               	movwf	fsr2h,c
  2777  0004A6  0101               	movlb	1	; () banked
  2778  0004A8  A0DF               	btfss	indf2,0,c
  2779  0004AA  D003               	goto	i2l3532
  2780                           
  2781                           ; BSR set to: 1
  2782  0004AC  EC88  F00D         	call	_um_6	;wreg free
  2783  0004B0  D002               	goto	i2l3534
  2784  0004B2                     i2l3532:
  2785  0004B2  EC03  F00E         	call	_zero_6	;wreg free
  2786  0004B6                     i2l3534:
  2787                           
  2788                           ;app.c: 308: if( (CH6[idx_color2] & 128) > 0)um_6(); else zero_6();
  2789  0004B6  501A               	movf	SendBuffCh6@idx_color2,w,c
  2790  0004B8  0D01               	mullw	1
  2791  0004BA  0E00               	movlw	low _CH6
  2792  0004BC  24F3               	addwf	prodl,w,c
  2793  0004BE  6ED9               	movwf	fsr2l,c
  2794  0004C0  0E01               	movlw	high _CH6
  2795  0004C2  20F4               	addwfc	prodh,w,c
  2796  0004C4  6EDA               	movwf	fsr2h,c
  2797  0004C6  0101               	movlb	1	; () banked
  2798  0004C8  AEDF               	btfss	indf2,7,c
  2799  0004CA  D003               	goto	i2l3538
  2800                           
  2801                           ; BSR set to: 1
  2802  0004CC  EC88  F00D         	call	_um_6	;wreg free
  2803  0004D0  D002               	goto	i2l3540
  2804  0004D2                     i2l3538:
  2805  0004D2  EC03  F00E         	call	_zero_6	;wreg free
  2806  0004D6                     i2l3540:
  2807                           
  2808                           ;app.c: 309: if( (CH6[idx_color2] & 64) > 0) um_6(); else zero_6();
  2809  0004D6  501A               	movf	SendBuffCh6@idx_color2,w,c
  2810  0004D8  0D01               	mullw	1
  2811  0004DA  0E00               	movlw	low _CH6
  2812  0004DC  24F3               	addwf	prodl,w,c
  2813  0004DE  6ED9               	movwf	fsr2l,c
  2814  0004E0  0E01               	movlw	high _CH6
  2815  0004E2  20F4               	addwfc	prodh,w,c
  2816  0004E4  6EDA               	movwf	fsr2h,c
  2817  0004E6  0101               	movlb	1	; () banked
  2818  0004E8  ACDF               	btfss	indf2,6,c
  2819  0004EA  D003               	goto	i2l3544
  2820                           
  2821                           ; BSR set to: 1
  2822  0004EC  EC88  F00D         	call	_um_6	;wreg free
  2823  0004F0  D002               	goto	i2l3546
  2824  0004F2                     i2l3544:
  2825  0004F2  EC03  F00E         	call	_zero_6	;wreg free
  2826  0004F6                     i2l3546:
  2827                           
  2828                           ;app.c: 310: if( (CH6[idx_color2] & 32) > 0) um_6(); else zero_6();
  2829  0004F6  501A               	movf	SendBuffCh6@idx_color2,w,c
  2830  0004F8  0D01               	mullw	1
  2831  0004FA  0E00               	movlw	low _CH6
  2832  0004FC  24F3               	addwf	prodl,w,c
  2833  0004FE  6ED9               	movwf	fsr2l,c
  2834  000500  0E01               	movlw	high _CH6
  2835  000502  20F4               	addwfc	prodh,w,c
  2836  000504  6EDA               	movwf	fsr2h,c
  2837  000506  0101               	movlb	1	; () banked
  2838  000508  AADF               	btfss	indf2,5,c
  2839  00050A  D003               	goto	i2l3550
  2840                           
  2841                           ; BSR set to: 1
  2842  00050C  EC88  F00D         	call	_um_6	;wreg free
  2843  000510  D002               	goto	i2l3552
  2844  000512                     i2l3550:
  2845  000512  EC03  F00E         	call	_zero_6	;wreg free
  2846  000516                     i2l3552:
  2847                           
  2848                           ;app.c: 311: if( (CH6[idx_color2] & 16) > 0) um_6(); else zero_6();
  2849  000516  501A               	movf	SendBuffCh6@idx_color2,w,c
  2850  000518  0D01               	mullw	1
  2851  00051A  0E00               	movlw	low _CH6
  2852  00051C  24F3               	addwf	prodl,w,c
  2853  00051E  6ED9               	movwf	fsr2l,c
  2854  000520  0E01               	movlw	high _CH6
  2855  000522  20F4               	addwfc	prodh,w,c
  2856  000524  6EDA               	movwf	fsr2h,c
  2857  000526  0101               	movlb	1	; () banked
  2858  000528  A8DF               	btfss	indf2,4,c
  2859  00052A  D003               	goto	i2l3556
  2860                           
  2861                           ; BSR set to: 1
  2862  00052C  EC88  F00D         	call	_um_6	;wreg free
  2863  000530  D002               	goto	i2l3558
  2864  000532                     i2l3556:
  2865  000532  EC03  F00E         	call	_zero_6	;wreg free
  2866  000536                     i2l3558:
  2867                           
  2868                           ;app.c: 312: if( (CH6[idx_color2] & 8) > 0) um_6(); else zero_6();
  2869  000536  501A               	movf	SendBuffCh6@idx_color2,w,c
  2870  000538  0D01               	mullw	1
  2871  00053A  0E00               	movlw	low _CH6
  2872  00053C  24F3               	addwf	prodl,w,c
  2873  00053E  6ED9               	movwf	fsr2l,c
  2874  000540  0E01               	movlw	high _CH6
  2875  000542  20F4               	addwfc	prodh,w,c
  2876  000544  6EDA               	movwf	fsr2h,c
  2877  000546  0101               	movlb	1	; () banked
  2878  000548  A6DF               	btfss	indf2,3,c
  2879  00054A  D003               	goto	i2l3562
  2880                           
  2881                           ; BSR set to: 1
  2882  00054C  EC88  F00D         	call	_um_6	;wreg free
  2883  000550  D002               	goto	i2l3564
  2884  000552                     i2l3562:
  2885  000552  EC03  F00E         	call	_zero_6	;wreg free
  2886  000556                     i2l3564:
  2887                           
  2888                           ;app.c: 313: if( (CH6[idx_color2] & 4) > 0) um_6(); else zero_6();
  2889  000556  501A               	movf	SendBuffCh6@idx_color2,w,c
  2890  000558  0D01               	mullw	1
  2891  00055A  0E00               	movlw	low _CH6
  2892  00055C  24F3               	addwf	prodl,w,c
  2893  00055E  6ED9               	movwf	fsr2l,c
  2894  000560  0E01               	movlw	high _CH6
  2895  000562  20F4               	addwfc	prodh,w,c
  2896  000564  6EDA               	movwf	fsr2h,c
  2897  000566  0101               	movlb	1	; () banked
  2898  000568  A4DF               	btfss	indf2,2,c
  2899  00056A  D003               	goto	i2l3568
  2900                           
  2901                           ; BSR set to: 1
  2902  00056C  EC88  F00D         	call	_um_6	;wreg free
  2903  000570  D002               	goto	i2l3570
  2904  000572                     i2l3568:
  2905  000572  EC03  F00E         	call	_zero_6	;wreg free
  2906  000576                     i2l3570:
  2907                           
  2908                           ;app.c: 314: if( (CH6[idx_color2] & 2) > 0) um_6(); else zero_6();
  2909  000576  501A               	movf	SendBuffCh6@idx_color2,w,c
  2910  000578  0D01               	mullw	1
  2911  00057A  0E00               	movlw	low _CH6
  2912  00057C  24F3               	addwf	prodl,w,c
  2913  00057E  6ED9               	movwf	fsr2l,c
  2914  000580  0E01               	movlw	high _CH6
  2915  000582  20F4               	addwfc	prodh,w,c
  2916  000584  6EDA               	movwf	fsr2h,c
  2917  000586  0101               	movlb	1	; () banked
  2918  000588  A2DF               	btfss	indf2,1,c
  2919  00058A  D003               	goto	i2l3574
  2920                           
  2921                           ; BSR set to: 1
  2922  00058C  EC88  F00D         	call	_um_6	;wreg free
  2923  000590  D002               	goto	i2l3576
  2924  000592                     i2l3574:
  2925  000592  EC03  F00E         	call	_zero_6	;wreg free
  2926  000596                     i2l3576:
  2927                           
  2928                           ;app.c: 315: if( (CH6[idx_color2] & 1) > 0) um_6(); else zero_6();
  2929  000596  501A               	movf	SendBuffCh6@idx_color2,w,c
  2930  000598  0D01               	mullw	1
  2931  00059A  0E00               	movlw	low _CH6
  2932  00059C  24F3               	addwf	prodl,w,c
  2933  00059E  6ED9               	movwf	fsr2l,c
  2934  0005A0  0E01               	movlw	high _CH6
  2935  0005A2  20F4               	addwfc	prodh,w,c
  2936  0005A4  6EDA               	movwf	fsr2h,c
  2937  0005A6  0101               	movlb	1	; () banked
  2938  0005A8  A0DF               	btfss	indf2,0,c
  2939  0005AA  D003               	goto	i2l3580
  2940                           
  2941                           ; BSR set to: 1
  2942  0005AC  EC88  F00D         	call	_um_6	;wreg free
  2943  0005B0  D002               	goto	i2l3582
  2944  0005B2                     i2l3580:
  2945  0005B2  EC03  F00E         	call	_zero_6	;wreg free
  2946  0005B6                     i2l3582:
  2947                           
  2948                           ;app.c: 317: if( (CH6[idx_color3] & 128) > 0)um_6(); else zero_6();
  2949  0005B6  501B               	movf	SendBuffCh6@idx_color3,w,c
  2950  0005B8  0D01               	mullw	1
  2951  0005BA  0E00               	movlw	low _CH6
  2952  0005BC  24F3               	addwf	prodl,w,c
  2953  0005BE  6ED9               	movwf	fsr2l,c
  2954  0005C0  0E01               	movlw	high _CH6
  2955  0005C2  20F4               	addwfc	prodh,w,c
  2956  0005C4  6EDA               	movwf	fsr2h,c
  2957  0005C6  0101               	movlb	1	; () banked
  2958  0005C8  AEDF               	btfss	indf2,7,c
  2959  0005CA  D003               	goto	i2l3586
  2960                           
  2961                           ; BSR set to: 1
  2962  0005CC  EC88  F00D         	call	_um_6	;wreg free
  2963  0005D0  D002               	goto	i2l3588
  2964  0005D2                     i2l3586:
  2965  0005D2  EC03  F00E         	call	_zero_6	;wreg free
  2966  0005D6                     i2l3588:
  2967                           
  2968                           ;app.c: 318: if( (CH6[idx_color3] & 64) > 0) um_6(); else zero_6();
  2969  0005D6  501B               	movf	SendBuffCh6@idx_color3,w,c
  2970  0005D8  0D01               	mullw	1
  2971  0005DA  0E00               	movlw	low _CH6
  2972  0005DC  24F3               	addwf	prodl,w,c
  2973  0005DE  6ED9               	movwf	fsr2l,c
  2974  0005E0  0E01               	movlw	high _CH6
  2975  0005E2  20F4               	addwfc	prodh,w,c
  2976  0005E4  6EDA               	movwf	fsr2h,c
  2977  0005E6  0101               	movlb	1	; () banked
  2978  0005E8  ACDF               	btfss	indf2,6,c
  2979  0005EA  D003               	goto	i2l3592
  2980                           
  2981                           ; BSR set to: 1
  2982  0005EC  EC88  F00D         	call	_um_6	;wreg free
  2983  0005F0  D002               	goto	i2l3594
  2984  0005F2                     i2l3592:
  2985  0005F2  EC03  F00E         	call	_zero_6	;wreg free
  2986  0005F6                     i2l3594:
  2987                           
  2988                           ;app.c: 319: if( (CH6[idx_color3] & 32) > 0) um_6(); else zero_6();
  2989  0005F6  501B               	movf	SendBuffCh6@idx_color3,w,c
  2990  0005F8  0D01               	mullw	1
  2991  0005FA  0E00               	movlw	low _CH6
  2992  0005FC  24F3               	addwf	prodl,w,c
  2993  0005FE  6ED9               	movwf	fsr2l,c
  2994  000600  0E01               	movlw	high _CH6
  2995  000602  20F4               	addwfc	prodh,w,c
  2996  000604  6EDA               	movwf	fsr2h,c
  2997  000606  0101               	movlb	1	; () banked
  2998  000608  AADF               	btfss	indf2,5,c
  2999  00060A  D003               	goto	i2l3598
  3000                           
  3001                           ; BSR set to: 1
  3002  00060C  EC88  F00D         	call	_um_6	;wreg free
  3003  000610  D002               	goto	i2l3600
  3004  000612                     i2l3598:
  3005  000612  EC03  F00E         	call	_zero_6	;wreg free
  3006  000616                     i2l3600:
  3007                           
  3008                           ;app.c: 320: if( (CH6[idx_color3] & 16) > 0) um_6(); else zero_6();
  3009  000616  501B               	movf	SendBuffCh6@idx_color3,w,c
  3010  000618  0D01               	mullw	1
  3011  00061A  0E00               	movlw	low _CH6
  3012  00061C  24F3               	addwf	prodl,w,c
  3013  00061E  6ED9               	movwf	fsr2l,c
  3014  000620  0E01               	movlw	high _CH6
  3015  000622  20F4               	addwfc	prodh,w,c
  3016  000624  6EDA               	movwf	fsr2h,c
  3017  000626  0101               	movlb	1	; () banked
  3018  000628  A8DF               	btfss	indf2,4,c
  3019  00062A  D003               	goto	i2l3604
  3020                           
  3021                           ; BSR set to: 1
  3022  00062C  EC88  F00D         	call	_um_6	;wreg free
  3023  000630  D002               	goto	i2l3606
  3024  000632                     i2l3604:
  3025  000632  EC03  F00E         	call	_zero_6	;wreg free
  3026  000636                     i2l3606:
  3027                           
  3028                           ;app.c: 321: if( (CH6[idx_color3] & 8) > 0) um_6(); else zero_6();
  3029  000636  501B               	movf	SendBuffCh6@idx_color3,w,c
  3030  000638  0D01               	mullw	1
  3031  00063A  0E00               	movlw	low _CH6
  3032  00063C  24F3               	addwf	prodl,w,c
  3033  00063E  6ED9               	movwf	fsr2l,c
  3034  000640  0E01               	movlw	high _CH6
  3035  000642  20F4               	addwfc	prodh,w,c
  3036  000644  6EDA               	movwf	fsr2h,c
  3037  000646  0101               	movlb	1	; () banked
  3038  000648  A6DF               	btfss	indf2,3,c
  3039  00064A  D003               	goto	i2l3610
  3040                           
  3041                           ; BSR set to: 1
  3042  00064C  EC88  F00D         	call	_um_6	;wreg free
  3043  000650  D002               	goto	i2l3612
  3044  000652                     i2l3610:
  3045  000652  EC03  F00E         	call	_zero_6	;wreg free
  3046  000656                     i2l3612:
  3047                           
  3048                           ;app.c: 322: if( (CH6[idx_color3] & 4) > 0) um_6(); else zero_6();
  3049  000656  501B               	movf	SendBuffCh6@idx_color3,w,c
  3050  000658  0D01               	mullw	1
  3051  00065A  0E00               	movlw	low _CH6
  3052  00065C  24F3               	addwf	prodl,w,c
  3053  00065E  6ED9               	movwf	fsr2l,c
  3054  000660  0E01               	movlw	high _CH6
  3055  000662  20F4               	addwfc	prodh,w,c
  3056  000664  6EDA               	movwf	fsr2h,c
  3057  000666  0101               	movlb	1	; () banked
  3058  000668  A4DF               	btfss	indf2,2,c
  3059  00066A  D003               	goto	i2l3616
  3060                           
  3061                           ; BSR set to: 1
  3062  00066C  EC88  F00D         	call	_um_6	;wreg free
  3063  000670  D002               	goto	i2l3618
  3064  000672                     i2l3616:
  3065  000672  EC03  F00E         	call	_zero_6	;wreg free
  3066  000676                     i2l3618:
  3067                           
  3068                           ;app.c: 323: if( (CH6[idx_color3] & 2) > 0) um_6(); else zero_6();
  3069  000676  501B               	movf	SendBuffCh6@idx_color3,w,c
  3070  000678  0D01               	mullw	1
  3071  00067A  0E00               	movlw	low _CH6
  3072  00067C  24F3               	addwf	prodl,w,c
  3073  00067E  6ED9               	movwf	fsr2l,c
  3074  000680  0E01               	movlw	high _CH6
  3075  000682  20F4               	addwfc	prodh,w,c
  3076  000684  6EDA               	movwf	fsr2h,c
  3077  000686  0101               	movlb	1	; () banked
  3078  000688  A2DF               	btfss	indf2,1,c
  3079  00068A  D003               	goto	i2l3622
  3080                           
  3081                           ; BSR set to: 1
  3082  00068C  EC88  F00D         	call	_um_6	;wreg free
  3083  000690  D002               	goto	i2l3624
  3084  000692                     i2l3622:
  3085  000692  EC03  F00E         	call	_zero_6	;wreg free
  3086  000696                     i2l3624:
  3087                           
  3088                           ;app.c: 324: if( (CH6[idx_color3] & 1) > 0) um_6(); else zero_6();
  3089  000696  501B               	movf	SendBuffCh6@idx_color3,w,c
  3090  000698  0D01               	mullw	1
  3091  00069A  0E00               	movlw	low _CH6
  3092  00069C  24F3               	addwf	prodl,w,c
  3093  00069E  6ED9               	movwf	fsr2l,c
  3094  0006A0  0E01               	movlw	high _CH6
  3095  0006A2  20F4               	addwfc	prodh,w,c
  3096  0006A4  6EDA               	movwf	fsr2h,c
  3097  0006A6  0101               	movlb	1	; () banked
  3098  0006A8  A0DF               	btfss	indf2,0,c
  3099  0006AA  D003               	goto	i2l3628
  3100                           
  3101                           ; BSR set to: 1
  3102  0006AC  EC88  F00D         	call	_um_6	;wreg free
  3103  0006B0  0012               	return	
  3104  0006B2                     i2l3628:
  3105  0006B2  EC03  F00E         	call	_zero_6	;wreg free
  3106  0006B6  0012               	return	
  3107  0006B8                     __end_of_SendBuffCh6:
  3108                           	opt stack 0
  3109                           pclatu	equ	0xFFB
  3110                           pclath	equ	0xFFA
  3111                           tblptru	equ	0xFF8
  3112                           tblptrh	equ	0xFF7
  3113                           tblptrl	equ	0xFF6
  3114                           tablat	equ	0xFF5
  3115                           prodh	equ	0xFF4
  3116                           prodl	equ	0xFF3
  3117                           intcon	equ	0xFF2
  3118                           intcon2	equ	0xFF1
  3119                           postinc0	equ	0xFEE
  3120                           fsr0h	equ	0xFEA
  3121                           fsr0l	equ	0xFE9
  3122                           wreg	equ	0xFE8
  3123                           postdec1	equ	0xFE5
  3124                           fsr1h	equ	0xFE2
  3125                           fsr1l	equ	0xFE1
  3126                           indf2	equ	0xFDF
  3127                           fsr2h	equ	0xFDA
  3128                           fsr2l	equ	0xFD9
  3129                           status	equ	0xFD8
  3130                           
  3131 ;; *************** function _zero_6 *****************
  3132 ;; Defined at:
  3133 ;;		line 138 in file "mcc_generated_files/app.c"
  3134 ;; Parameters:    Size  Location     Type
  3135 ;;		None
  3136 ;; Auto vars:     Size  Location     Type
  3137 ;;		None
  3138 ;; Return value:  Size  Location     Type
  3139 ;;                  1    wreg      void 
  3140 ;; Registers used:
  3141 ;;		None
  3142 ;; Tracked objects:
  3143 ;;		On entry : 0/0
  3144 ;;		On exit  : 0/0
  3145 ;;		Unchanged: 0/0
  3146 ;; Data sizes:     COMRAM   BANK0   BANK1   BANK2   BANK3   BANK4   BANK5
  3147 ;;      Params:         0       0       0       0       0       0       0
  3148 ;;      Locals:         0       0       0       0       0       0       0
  3149 ;;      Temps:          0       0       0       0       0       0       0
  3150 ;;      Totals:         0       0       0       0       0       0       0
  3151 ;;Total ram usage:        0 bytes
  3152 ;; Hardware stack levels used:    1
  3153 ;; This function calls:
  3154 ;;		Nothing
  3155 ;; This function is called by:
  3156 ;;		_SendBuffCh6
  3157 ;; This function uses a non-reentrant model
  3158 ;;
  3159                           
  3160                           	psect	text19
  3161  001C06                     __ptext19:
  3162                           	opt stack 0
  3163  001C06                     _zero_6:
  3164                           	opt stack 21
  3165                           
  3166                           ;incstack = 0
  3167  001C06  8A8A               	bsf	3978,5,c	;volatile
  3168  001C08  F000               	nop	
  3169  001C0A  F000               	nop	
  3170  001C0C  F000               	nop	
  3171  001C0E  F000               	nop	
  3172  001C10  F000               	nop	
  3173  001C12  F000               	nop	
  3174                           
  3175                           ;app.c: 139: LATB5 = 0; __nop();__nop();__nop();__nop();__nop();__nop(); }
  3176  001C14  9A8A               	bcf	3978,5,c	;volatile
  3177  001C16  F000               	nop	
  3178  001C18  F000               	nop	
  3179  001C1A  F000               	nop	
  3180  001C1C  F000               	nop	
  3181  001C1E  F000               	nop	
  3182  001C20  F000               	nop	
  3183  001C22  0012               	return		;funcret
  3184  001C24                     __end_of_zero_6:
  3185                           	opt stack 0
  3186                           pclatu	equ	0xFFB
  3187                           pclath	equ	0xFFA
  3188                           tblptru	equ	0xFF8
  3189                           tblptrh	equ	0xFF7
  3190                           tblptrl	equ	0xFF6
  3191                           tablat	equ	0xFF5
  3192                           prodh	equ	0xFF4
  3193                           prodl	equ	0xFF3
  3194                           intcon	equ	0xFF2
  3195                           intcon2	equ	0xFF1
  3196                           postinc0	equ	0xFEE
  3197                           fsr0h	equ	0xFEA
  3198                           fsr0l	equ	0xFE9
  3199                           wreg	equ	0xFE8
  3200                           postdec1	equ	0xFE5
  3201                           fsr1h	equ	0xFE2
  3202                           fsr1l	equ	0xFE1
  3203                           indf2	equ	0xFDF
  3204                           fsr2h	equ	0xFDA
  3205                           fsr2l	equ	0xFD9
  3206                           status	equ	0xFD8
  3207                           
  3208 ;; *************** function _um_6 *****************
  3209 ;; Defined at:
  3210 ;;		line 134 in file "mcc_generated_files/app.c"
  3211 ;; Parameters:    Size  Location     Type
  3212 ;;		None
  3213 ;; Auto vars:     Size  Location     Type
  3214 ;;		None
  3215 ;; Return value:  Size  Location     Type
  3216 ;;                  1    wreg      void 
  3217 ;; Registers used:
  3218 ;;		None
  3219 ;; Tracked objects:
  3220 ;;		On entry : 0/0
  3221 ;;		On exit  : 0/0
  3222 ;;		Unchanged: 0/0
  3223 ;; Data sizes:     COMRAM   BANK0   BANK1   BANK2   BANK3   BANK4   BANK5
  3224 ;;      Params:         0       0       0       0       0       0       0
  3225 ;;      Locals:         0       0       0       0       0       0       0
  3226 ;;      Temps:          0       0       0       0       0       0       0
  3227 ;;      Totals:         0       0       0       0       0       0       0
  3228 ;;Total ram usage:        0 bytes
  3229 ;; Hardware stack levels used:    1
  3230 ;; This function calls:
  3231 ;;		Nothing
  3232 ;; This function is called by:
  3233 ;;		_SendBuffCh6
  3234 ;; This function uses a non-reentrant model
  3235 ;;
  3236                           
  3237                           	psect	text20
  3238  001B10                     __ptext20:
  3239                           	opt stack 0
  3240  001B10                     _um_6:
  3241                           	opt stack 21
  3242                           
  3243                           ;incstack = 0
  3244  001B10  8A8A               	bsf	3978,5,c	;volatile
  3245  001B12  F000               	nop	
  3246  001B14  F000               	nop	
  3247  001B16  F000               	nop	
  3248  001B18  F000               	nop	
  3249  001B1A  F000               	nop	
  3250  001B1C  F000               	nop	
  3251                           
  3252                           ;app.c: 135: __nop();__nop();__nop();__nop();__nop();__nop();
  3253  001B1E  F000               	nop	
  3254  001B20  F000               	nop	
  3255  001B22  F000               	nop	
  3256  001B24  F000               	nop	
  3257  001B26  F000               	nop	
  3258  001B28  F000               	nop	
  3259                           
  3260                           ;app.c: 136: __nop();__nop();__nop(); LATB5 = 0;
  3261  001B2A  F000               	nop	
  3262  001B2C  F000               	nop	
  3263  001B2E  F000               	nop	
  3264  001B30  9A8A               	bcf	3978,5,c	;volatile
  3265  001B32  0012               	return		;funcret
  3266  001B34                     __end_of_um_6:
  3267                           	opt stack 0
  3268                           pclatu	equ	0xFFB
  3269                           pclath	equ	0xFFA
  3270                           tblptru	equ	0xFF8
  3271                           tblptrh	equ	0xFF7
  3272                           tblptrl	equ	0xFF6
  3273                           tablat	equ	0xFF5
  3274                           prodh	equ	0xFF4
  3275                           prodl	equ	0xFF3
  3276                           intcon	equ	0xFF2
  3277                           intcon2	equ	0xFF1
  3278                           postinc0	equ	0xFEE
  3279                           fsr0h	equ	0xFEA
  3280                           fsr0l	equ	0xFE9
  3281                           wreg	equ	0xFE8
  3282                           postdec1	equ	0xFE5
  3283                           fsr1h	equ	0xFE2
  3284                           fsr1l	equ	0xFE1
  3285                           indf2	equ	0xFDF
  3286                           fsr2h	equ	0xFDA
  3287                           fsr2l	equ	0xFD9
  3288                           status	equ	0xFD8
  3289                           
  3290 ;; *************** function _SendBuffCh5 *****************
  3291 ;; Defined at:
  3292 ;;		line 268 in file "mcc_generated_files/app.c"
  3293 ;; Parameters:    Size  Location     Type
  3294 ;;  idx_color1      1    wreg     unsigned char 
  3295 ;;  idx_color2      1    0[COMRAM] unsigned char 
  3296 ;;  idx_color3      1    1[COMRAM] unsigned char 
  3297 ;; Auto vars:     Size  Location     Type
  3298 ;;  idx_color1      1    2[COMRAM] unsigned char 
  3299 ;; Return value:  Size  Location     Type
  3300 ;;                  1    wreg      void 
  3301 ;; Registers used:
  3302 ;;		wreg, fsr2l, fsr2h, status,2, status,0, prodl, prodh, cstack
  3303 ;; Tracked objects:
  3304 ;;		On entry : 0/0
  3305 ;;		On exit  : 0/0
  3306 ;;		Unchanged: 0/0
  3307 ;; Data sizes:     COMRAM   BANK0   BANK1   BANK2   BANK3   BANK4   BANK5
  3308 ;;      Params:         2       0       0       0       0       0       0
  3309 ;;      Locals:         1       0       0       0       0       0       0
  3310 ;;      Temps:          0       0       0       0       0       0       0
  3311 ;;      Totals:         3       0       0       0       0       0       0
  3312 ;;Total ram usage:        3 bytes
  3313 ;; Hardware stack levels used:    1
  3314 ;; Hardware stack levels required when called:    1
  3315 ;; This function calls:
  3316 ;;		_um_5
  3317 ;;		_zero_5
  3318 ;; This function is called by:
  3319 ;;		_AppTimer1ms
  3320 ;; This function uses a non-reentrant model
  3321 ;;
  3322                           
  3323                           	psect	text21
  3324  0006B8                     __ptext21:
  3325                           	opt stack 0
  3326  0006B8                     _SendBuffCh5:
  3327                           	opt stack 21
  3328                           
  3329                           ;incstack = 0
  3330                           ;SendBuffCh5@idx_color1 stored from wreg
  3331  0006B8  6E1C               	movwf	SendBuffCh5@idx_color1,c
  3332                           
  3333                           ;app.c: 270: if( (CH5[idx_color1] & 128) > 0)um_5(); else zero_5();
  3334  0006BA  501C               	movf	SendBuffCh5@idx_color1,w,c
  3335  0006BC  0D01               	mullw	1
  3336  0006BE  0E40               	movlw	low _CH5
  3337  0006C0  24F3               	addwf	prodl,w,c
  3338  0006C2  6ED9               	movwf	fsr2l,c
  3339  0006C4  0E01               	movlw	high _CH5
  3340  0006C6  20F4               	addwfc	prodh,w,c
  3341  0006C8  6EDA               	movwf	fsr2h,c
  3342  0006CA  0101               	movlb	1	; () banked
  3343  0006CC  AEDF               	btfss	indf2,7,c
  3344  0006CE  D003               	goto	i2l3346
  3345                           
  3346                           ; BSR set to: 1
  3347  0006D0  EC9A  F00D         	call	_um_5	;wreg free
  3348  0006D4  D002               	goto	i2l3348
  3349  0006D6                     i2l3346:
  3350  0006D6  EC12  F00E         	call	_zero_5	;wreg free
  3351  0006DA                     i2l3348:
  3352                           
  3353                           ;app.c: 271: if( (CH5[idx_color1] & 64) > 0) um_5(); else zero_5();
  3354  0006DA  501C               	movf	SendBuffCh5@idx_color1,w,c
  3355  0006DC  0D01               	mullw	1
  3356  0006DE  0E40               	movlw	low _CH5
  3357  0006E0  24F3               	addwf	prodl,w,c
  3358  0006E2  6ED9               	movwf	fsr2l,c
  3359  0006E4  0E01               	movlw	high _CH5
  3360  0006E6  20F4               	addwfc	prodh,w,c
  3361  0006E8  6EDA               	movwf	fsr2h,c
  3362  0006EA  0101               	movlb	1	; () banked
  3363  0006EC  ACDF               	btfss	indf2,6,c
  3364  0006EE  D003               	goto	i2l3352
  3365                           
  3366                           ; BSR set to: 1
  3367  0006F0  EC9A  F00D         	call	_um_5	;wreg free
  3368  0006F4  D002               	goto	i2l3354
  3369  0006F6                     i2l3352:
  3370  0006F6  EC12  F00E         	call	_zero_5	;wreg free
  3371  0006FA                     i2l3354:
  3372                           
  3373                           ;app.c: 272: if( (CH5[idx_color1] & 32) > 0) um_5(); else zero_5();
  3374  0006FA  501C               	movf	SendBuffCh5@idx_color1,w,c
  3375  0006FC  0D01               	mullw	1
  3376  0006FE  0E40               	movlw	low _CH5
  3377  000700  24F3               	addwf	prodl,w,c
  3378  000702  6ED9               	movwf	fsr2l,c
  3379  000704  0E01               	movlw	high _CH5
  3380  000706  20F4               	addwfc	prodh,w,c
  3381  000708  6EDA               	movwf	fsr2h,c
  3382  00070A  0101               	movlb	1	; () banked
  3383  00070C  AADF               	btfss	indf2,5,c
  3384  00070E  D003               	goto	i2l3358
  3385                           
  3386                           ; BSR set to: 1
  3387  000710  EC9A  F00D         	call	_um_5	;wreg free
  3388  000714  D002               	goto	i2l3360
  3389  000716                     i2l3358:
  3390  000716  EC12  F00E         	call	_zero_5	;wreg free
  3391  00071A                     i2l3360:
  3392                           
  3393                           ;app.c: 273: if( (CH5[idx_color1] & 16) > 0) um_5(); else zero_5();
  3394  00071A  501C               	movf	SendBuffCh5@idx_color1,w,c
  3395  00071C  0D01               	mullw	1
  3396  00071E  0E40               	movlw	low _CH5
  3397  000720  24F3               	addwf	prodl,w,c
  3398  000722  6ED9               	movwf	fsr2l,c
  3399  000724  0E01               	movlw	high _CH5
  3400  000726  20F4               	addwfc	prodh,w,c
  3401  000728  6EDA               	movwf	fsr2h,c
  3402  00072A  0101               	movlb	1	; () banked
  3403  00072C  A8DF               	btfss	indf2,4,c
  3404  00072E  D003               	goto	i2l3364
  3405                           
  3406                           ; BSR set to: 1
  3407  000730  EC9A  F00D         	call	_um_5	;wreg free
  3408  000734  D002               	goto	i2l3366
  3409  000736                     i2l3364:
  3410  000736  EC12  F00E         	call	_zero_5	;wreg free
  3411  00073A                     i2l3366:
  3412                           
  3413                           ;app.c: 274: if( (CH5[idx_color1] & 8) > 0) um_5(); else zero_5();
  3414  00073A  501C               	movf	SendBuffCh5@idx_color1,w,c
  3415  00073C  0D01               	mullw	1
  3416  00073E  0E40               	movlw	low _CH5
  3417  000740  24F3               	addwf	prodl,w,c
  3418  000742  6ED9               	movwf	fsr2l,c
  3419  000744  0E01               	movlw	high _CH5
  3420  000746  20F4               	addwfc	prodh,w,c
  3421  000748  6EDA               	movwf	fsr2h,c
  3422  00074A  0101               	movlb	1	; () banked
  3423  00074C  A6DF               	btfss	indf2,3,c
  3424  00074E  D003               	goto	i2l3370
  3425                           
  3426                           ; BSR set to: 1
  3427  000750  EC9A  F00D         	call	_um_5	;wreg free
  3428  000754  D002               	goto	i2l3372
  3429  000756                     i2l3370:
  3430  000756  EC12  F00E         	call	_zero_5	;wreg free
  3431  00075A                     i2l3372:
  3432                           
  3433                           ;app.c: 275: if( (CH5[idx_color1] & 4) > 0) um_5(); else zero_5();
  3434  00075A  501C               	movf	SendBuffCh5@idx_color1,w,c
  3435  00075C  0D01               	mullw	1
  3436  00075E  0E40               	movlw	low _CH5
  3437  000760  24F3               	addwf	prodl,w,c
  3438  000762  6ED9               	movwf	fsr2l,c
  3439  000764  0E01               	movlw	high _CH5
  3440  000766  20F4               	addwfc	prodh,w,c
  3441  000768  6EDA               	movwf	fsr2h,c
  3442  00076A  0101               	movlb	1	; () banked
  3443  00076C  A4DF               	btfss	indf2,2,c
  3444  00076E  D003               	goto	i2l3376
  3445                           
  3446                           ; BSR set to: 1
  3447  000770  EC9A  F00D         	call	_um_5	;wreg free
  3448  000774  D002               	goto	i2l3378
  3449  000776                     i2l3376:
  3450  000776  EC12  F00E         	call	_zero_5	;wreg free
  3451  00077A                     i2l3378:
  3452                           
  3453                           ;app.c: 276: if( (CH5[idx_color1] & 2) > 0) um_5(); else zero_5();
  3454  00077A  501C               	movf	SendBuffCh5@idx_color1,w,c
  3455  00077C  0D01               	mullw	1
  3456  00077E  0E40               	movlw	low _CH5
  3457  000780  24F3               	addwf	prodl,w,c
  3458  000782  6ED9               	movwf	fsr2l,c
  3459  000784  0E01               	movlw	high _CH5
  3460  000786  20F4               	addwfc	prodh,w,c
  3461  000788  6EDA               	movwf	fsr2h,c
  3462  00078A  0101               	movlb	1	; () banked
  3463  00078C  A2DF               	btfss	indf2,1,c
  3464  00078E  D003               	goto	i2l3382
  3465                           
  3466                           ; BSR set to: 1
  3467  000790  EC9A  F00D         	call	_um_5	;wreg free
  3468  000794  D002               	goto	i2l3384
  3469  000796                     i2l3382:
  3470  000796  EC12  F00E         	call	_zero_5	;wreg free
  3471  00079A                     i2l3384:
  3472                           
  3473                           ;app.c: 277: if( (CH5[idx_color1] & 1) > 0) um_5(); else zero_5();
  3474  00079A  501C               	movf	SendBuffCh5@idx_color1,w,c
  3475  00079C  0D01               	mullw	1
  3476  00079E  0E40               	movlw	low _CH5
  3477  0007A0  24F3               	addwf	prodl,w,c
  3478  0007A2  6ED9               	movwf	fsr2l,c
  3479  0007A4  0E01               	movlw	high _CH5
  3480  0007A6  20F4               	addwfc	prodh,w,c
  3481  0007A8  6EDA               	movwf	fsr2h,c
  3482  0007AA  0101               	movlb	1	; () banked
  3483  0007AC  A0DF               	btfss	indf2,0,c
  3484  0007AE  D003               	goto	i2l3388
  3485                           
  3486                           ; BSR set to: 1
  3487  0007B0  EC9A  F00D         	call	_um_5	;wreg free
  3488  0007B4  D002               	goto	i2l3390
  3489  0007B6                     i2l3388:
  3490  0007B6  EC12  F00E         	call	_zero_5	;wreg free
  3491  0007BA                     i2l3390:
  3492                           
  3493                           ;app.c: 279: if( (CH5[idx_color2] & 128) > 0)um_5(); else zero_5();
  3494  0007BA  501A               	movf	SendBuffCh5@idx_color2,w,c
  3495  0007BC  0D01               	mullw	1
  3496  0007BE  0E40               	movlw	low _CH5
  3497  0007C0  24F3               	addwf	prodl,w,c
  3498  0007C2  6ED9               	movwf	fsr2l,c
  3499  0007C4  0E01               	movlw	high _CH5
  3500  0007C6  20F4               	addwfc	prodh,w,c
  3501  0007C8  6EDA               	movwf	fsr2h,c
  3502  0007CA  0101               	movlb	1	; () banked
  3503  0007CC  AEDF               	btfss	indf2,7,c
  3504  0007CE  D003               	goto	i2l3394
  3505                           
  3506                           ; BSR set to: 1
  3507  0007D0  EC9A  F00D         	call	_um_5	;wreg free
  3508  0007D4  D002               	goto	i2l3396
  3509  0007D6                     i2l3394:
  3510  0007D6  EC12  F00E         	call	_zero_5	;wreg free
  3511  0007DA                     i2l3396:
  3512                           
  3513                           ;app.c: 280: if( (CH5[idx_color2] & 64) > 0) um_5(); else zero_5();
  3514  0007DA  501A               	movf	SendBuffCh5@idx_color2,w,c
  3515  0007DC  0D01               	mullw	1
  3516  0007DE  0E40               	movlw	low _CH5
  3517  0007E0  24F3               	addwf	prodl,w,c
  3518  0007E2  6ED9               	movwf	fsr2l,c
  3519  0007E4  0E01               	movlw	high _CH5
  3520  0007E6  20F4               	addwfc	prodh,w,c
  3521  0007E8  6EDA               	movwf	fsr2h,c
  3522  0007EA  0101               	movlb	1	; () banked
  3523  0007EC  ACDF               	btfss	indf2,6,c
  3524  0007EE  D003               	goto	i2l3400
  3525                           
  3526                           ; BSR set to: 1
  3527  0007F0  EC9A  F00D         	call	_um_5	;wreg free
  3528  0007F4  D002               	goto	i2l3402
  3529  0007F6                     i2l3400:
  3530  0007F6  EC12  F00E         	call	_zero_5	;wreg free
  3531  0007FA                     i2l3402:
  3532                           
  3533                           ;app.c: 281: if( (CH5[idx_color2] & 32) > 0) um_5(); else zero_5();
  3534  0007FA  501A               	movf	SendBuffCh5@idx_color2,w,c
  3535  0007FC  0D01               	mullw	1
  3536  0007FE  0E40               	movlw	low _CH5
  3537  000800  24F3               	addwf	prodl,w,c
  3538  000802  6ED9               	movwf	fsr2l,c
  3539  000804  0E01               	movlw	high _CH5
  3540  000806  20F4               	addwfc	prodh,w,c
  3541  000808  6EDA               	movwf	fsr2h,c
  3542  00080A  0101               	movlb	1	; () banked
  3543  00080C  AADF               	btfss	indf2,5,c
  3544  00080E  D003               	goto	i2l3406
  3545                           
  3546                           ; BSR set to: 1
  3547  000810  EC9A  F00D         	call	_um_5	;wreg free
  3548  000814  D002               	goto	i2l3408
  3549  000816                     i2l3406:
  3550  000816  EC12  F00E         	call	_zero_5	;wreg free
  3551  00081A                     i2l3408:
  3552                           
  3553                           ;app.c: 282: if( (CH5[idx_color2] & 16) > 0) um_5(); else zero_5();
  3554  00081A  501A               	movf	SendBuffCh5@idx_color2,w,c
  3555  00081C  0D01               	mullw	1
  3556  00081E  0E40               	movlw	low _CH5
  3557  000820  24F3               	addwf	prodl,w,c
  3558  000822  6ED9               	movwf	fsr2l,c
  3559  000824  0E01               	movlw	high _CH5
  3560  000826  20F4               	addwfc	prodh,w,c
  3561  000828  6EDA               	movwf	fsr2h,c
  3562  00082A  0101               	movlb	1	; () banked
  3563  00082C  A8DF               	btfss	indf2,4,c
  3564  00082E  D003               	goto	i2l3412
  3565                           
  3566                           ; BSR set to: 1
  3567  000830  EC9A  F00D         	call	_um_5	;wreg free
  3568  000834  D002               	goto	i2l3414
  3569  000836                     i2l3412:
  3570  000836  EC12  F00E         	call	_zero_5	;wreg free
  3571  00083A                     i2l3414:
  3572                           
  3573                           ;app.c: 283: if( (CH5[idx_color2] & 8) > 0) um_5(); else zero_5();
  3574  00083A  501A               	movf	SendBuffCh5@idx_color2,w,c
  3575  00083C  0D01               	mullw	1
  3576  00083E  0E40               	movlw	low _CH5
  3577  000840  24F3               	addwf	prodl,w,c
  3578  000842  6ED9               	movwf	fsr2l,c
  3579  000844  0E01               	movlw	high _CH5
  3580  000846  20F4               	addwfc	prodh,w,c
  3581  000848  6EDA               	movwf	fsr2h,c
  3582  00084A  0101               	movlb	1	; () banked
  3583  00084C  A6DF               	btfss	indf2,3,c
  3584  00084E  D003               	goto	i2l3418
  3585                           
  3586                           ; BSR set to: 1
  3587  000850  EC9A  F00D         	call	_um_5	;wreg free
  3588  000854  D002               	goto	i2l3420
  3589  000856                     i2l3418:
  3590  000856  EC12  F00E         	call	_zero_5	;wreg free
  3591  00085A                     i2l3420:
  3592                           
  3593                           ;app.c: 284: if( (CH5[idx_color2] & 4) > 0) um_5(); else zero_5();
  3594  00085A  501A               	movf	SendBuffCh5@idx_color2,w,c
  3595  00085C  0D01               	mullw	1
  3596  00085E  0E40               	movlw	low _CH5
  3597  000860  24F3               	addwf	prodl,w,c
  3598  000862  6ED9               	movwf	fsr2l,c
  3599  000864  0E01               	movlw	high _CH5
  3600  000866  20F4               	addwfc	prodh,w,c
  3601  000868  6EDA               	movwf	fsr2h,c
  3602  00086A  0101               	movlb	1	; () banked
  3603  00086C  A4DF               	btfss	indf2,2,c
  3604  00086E  D003               	goto	i2l3424
  3605                           
  3606                           ; BSR set to: 1
  3607  000870  EC9A  F00D         	call	_um_5	;wreg free
  3608  000874  D002               	goto	i2l3426
  3609  000876                     i2l3424:
  3610  000876  EC12  F00E         	call	_zero_5	;wreg free
  3611  00087A                     i2l3426:
  3612                           
  3613                           ;app.c: 285: if( (CH5[idx_color2] & 2) > 0) um_5(); else zero_5();
  3614  00087A  501A               	movf	SendBuffCh5@idx_color2,w,c
  3615  00087C  0D01               	mullw	1
  3616  00087E  0E40               	movlw	low _CH5
  3617  000880  24F3               	addwf	prodl,w,c
  3618  000882  6ED9               	movwf	fsr2l,c
  3619  000884  0E01               	movlw	high _CH5
  3620  000886  20F4               	addwfc	prodh,w,c
  3621  000888  6EDA               	movwf	fsr2h,c
  3622  00088A  0101               	movlb	1	; () banked
  3623  00088C  A2DF               	btfss	indf2,1,c
  3624  00088E  D003               	goto	i2l3430
  3625                           
  3626                           ; BSR set to: 1
  3627  000890  EC9A  F00D         	call	_um_5	;wreg free
  3628  000894  D002               	goto	i2l3432
  3629  000896                     i2l3430:
  3630  000896  EC12  F00E         	call	_zero_5	;wreg free
  3631  00089A                     i2l3432:
  3632                           
  3633                           ;app.c: 286: if( (CH5[idx_color2] & 1) > 0) um_5(); else zero_5();
  3634  00089A  501A               	movf	SendBuffCh5@idx_color2,w,c
  3635  00089C  0D01               	mullw	1
  3636  00089E  0E40               	movlw	low _CH5
  3637  0008A0  24F3               	addwf	prodl,w,c
  3638  0008A2  6ED9               	movwf	fsr2l,c
  3639  0008A4  0E01               	movlw	high _CH5
  3640  0008A6  20F4               	addwfc	prodh,w,c
  3641  0008A8  6EDA               	movwf	fsr2h,c
  3642  0008AA  0101               	movlb	1	; () banked
  3643  0008AC  A0DF               	btfss	indf2,0,c
  3644  0008AE  D003               	goto	i2l3436
  3645                           
  3646                           ; BSR set to: 1
  3647  0008B0  EC9A  F00D         	call	_um_5	;wreg free
  3648  0008B4  D002               	goto	i2l3438
  3649  0008B6                     i2l3436:
  3650  0008B6  EC12  F00E         	call	_zero_5	;wreg free
  3651  0008BA                     i2l3438:
  3652                           
  3653                           ;app.c: 288: if( (CH5[idx_color3] & 128) > 0)um_5(); else zero_5();
  3654  0008BA  501B               	movf	SendBuffCh5@idx_color3,w,c
  3655  0008BC  0D01               	mullw	1
  3656  0008BE  0E40               	movlw	low _CH5
  3657  0008C0  24F3               	addwf	prodl,w,c
  3658  0008C2  6ED9               	movwf	fsr2l,c
  3659  0008C4  0E01               	movlw	high _CH5
  3660  0008C6  20F4               	addwfc	prodh,w,c
  3661  0008C8  6EDA               	movwf	fsr2h,c
  3662  0008CA  0101               	movlb	1	; () banked
  3663  0008CC  AEDF               	btfss	indf2,7,c
  3664  0008CE  D003               	goto	i2l3442
  3665                           
  3666                           ; BSR set to: 1
  3667  0008D0  EC9A  F00D         	call	_um_5	;wreg free
  3668  0008D4  D002               	goto	i2l3444
  3669  0008D6                     i2l3442:
  3670  0008D6  EC12  F00E         	call	_zero_5	;wreg free
  3671  0008DA                     i2l3444:
  3672                           
  3673                           ;app.c: 289: if( (CH5[idx_color3] & 64) > 0) um_5(); else zero_5();
  3674  0008DA  501B               	movf	SendBuffCh5@idx_color3,w,c
  3675  0008DC  0D01               	mullw	1
  3676  0008DE  0E40               	movlw	low _CH5
  3677  0008E0  24F3               	addwf	prodl,w,c
  3678  0008E2  6ED9               	movwf	fsr2l,c
  3679  0008E4  0E01               	movlw	high _CH5
  3680  0008E6  20F4               	addwfc	prodh,w,c
  3681  0008E8  6EDA               	movwf	fsr2h,c
  3682  0008EA  0101               	movlb	1	; () banked
  3683  0008EC  ACDF               	btfss	indf2,6,c
  3684  0008EE  D003               	goto	i2l3448
  3685                           
  3686                           ; BSR set to: 1
  3687  0008F0  EC9A  F00D         	call	_um_5	;wreg free
  3688  0008F4  D002               	goto	i2l3450
  3689  0008F6                     i2l3448:
  3690  0008F6  EC12  F00E         	call	_zero_5	;wreg free
  3691  0008FA                     i2l3450:
  3692                           
  3693                           ;app.c: 290: if( (CH5[idx_color3] & 32) > 0) um_5(); else zero_5();
  3694  0008FA  501B               	movf	SendBuffCh5@idx_color3,w,c
  3695  0008FC  0D01               	mullw	1
  3696  0008FE  0E40               	movlw	low _CH5
  3697  000900  24F3               	addwf	prodl,w,c
  3698  000902  6ED9               	movwf	fsr2l,c
  3699  000904  0E01               	movlw	high _CH5
  3700  000906  20F4               	addwfc	prodh,w,c
  3701  000908  6EDA               	movwf	fsr2h,c
  3702  00090A  0101               	movlb	1	; () banked
  3703  00090C  AADF               	btfss	indf2,5,c
  3704  00090E  D003               	goto	i2l3454
  3705                           
  3706                           ; BSR set to: 1
  3707  000910  EC9A  F00D         	call	_um_5	;wreg free
  3708  000914  D002               	goto	i2l3456
  3709  000916                     i2l3454:
  3710  000916  EC12  F00E         	call	_zero_5	;wreg free
  3711  00091A                     i2l3456:
  3712                           
  3713                           ;app.c: 291: if( (CH5[idx_color3] & 16) > 0) um_5(); else zero_5();
  3714  00091A  501B               	movf	SendBuffCh5@idx_color3,w,c
  3715  00091C  0D01               	mullw	1
  3716  00091E  0E40               	movlw	low _CH5
  3717  000920  24F3               	addwf	prodl,w,c
  3718  000922  6ED9               	movwf	fsr2l,c
  3719  000924  0E01               	movlw	high _CH5
  3720  000926  20F4               	addwfc	prodh,w,c
  3721  000928  6EDA               	movwf	fsr2h,c
  3722  00092A  0101               	movlb	1	; () banked
  3723  00092C  A8DF               	btfss	indf2,4,c
  3724  00092E  D003               	goto	i2l3460
  3725                           
  3726                           ; BSR set to: 1
  3727  000930  EC9A  F00D         	call	_um_5	;wreg free
  3728  000934  D002               	goto	i2l3462
  3729  000936                     i2l3460:
  3730  000936  EC12  F00E         	call	_zero_5	;wreg free
  3731  00093A                     i2l3462:
  3732                           
  3733                           ;app.c: 292: if( (CH5[idx_color3] & 8) > 0) um_5(); else zero_5();
  3734  00093A  501B               	movf	SendBuffCh5@idx_color3,w,c
  3735  00093C  0D01               	mullw	1
  3736  00093E  0E40               	movlw	low _CH5
  3737  000940  24F3               	addwf	prodl,w,c
  3738  000942  6ED9               	movwf	fsr2l,c
  3739  000944  0E01               	movlw	high _CH5
  3740  000946  20F4               	addwfc	prodh,w,c
  3741  000948  6EDA               	movwf	fsr2h,c
  3742  00094A  0101               	movlb	1	; () banked
  3743  00094C  A6DF               	btfss	indf2,3,c
  3744  00094E  D003               	goto	i2l3466
  3745                           
  3746                           ; BSR set to: 1
  3747  000950  EC9A  F00D         	call	_um_5	;wreg free
  3748  000954  D002               	goto	i2l3468
  3749  000956                     i2l3466:
  3750  000956  EC12  F00E         	call	_zero_5	;wreg free
  3751  00095A                     i2l3468:
  3752                           
  3753                           ;app.c: 293: if( (CH5[idx_color3] & 4) > 0) um_5(); else zero_5();
  3754  00095A  501B               	movf	SendBuffCh5@idx_color3,w,c
  3755  00095C  0D01               	mullw	1
  3756  00095E  0E40               	movlw	low _CH5
  3757  000960  24F3               	addwf	prodl,w,c
  3758  000962  6ED9               	movwf	fsr2l,c
  3759  000964  0E01               	movlw	high _CH5
  3760  000966  20F4               	addwfc	prodh,w,c
  3761  000968  6EDA               	movwf	fsr2h,c
  3762  00096A  0101               	movlb	1	; () banked
  3763  00096C  A4DF               	btfss	indf2,2,c
  3764  00096E  D003               	goto	i2l3472
  3765                           
  3766                           ; BSR set to: 1
  3767  000970  EC9A  F00D         	call	_um_5	;wreg free
  3768  000974  D002               	goto	i2l3474
  3769  000976                     i2l3472:
  3770  000976  EC12  F00E         	call	_zero_5	;wreg free
  3771  00097A                     i2l3474:
  3772                           
  3773                           ;app.c: 294: if( (CH5[idx_color3] & 2) > 0) um_5(); else zero_5();
  3774  00097A  501B               	movf	SendBuffCh5@idx_color3,w,c
  3775  00097C  0D01               	mullw	1
  3776  00097E  0E40               	movlw	low _CH5
  3777  000980  24F3               	addwf	prodl,w,c
  3778  000982  6ED9               	movwf	fsr2l,c
  3779  000984  0E01               	movlw	high _CH5
  3780  000986  20F4               	addwfc	prodh,w,c
  3781  000988  6EDA               	movwf	fsr2h,c
  3782  00098A  0101               	movlb	1	; () banked
  3783  00098C  A2DF               	btfss	indf2,1,c
  3784  00098E  D003               	goto	i2l3478
  3785                           
  3786                           ; BSR set to: 1
  3787  000990  EC9A  F00D         	call	_um_5	;wreg free
  3788  000994  D002               	goto	i2l3480
  3789  000996                     i2l3478:
  3790  000996  EC12  F00E         	call	_zero_5	;wreg free
  3791  00099A                     i2l3480:
  3792                           
  3793                           ;app.c: 295: if( (CH5[idx_color3] & 1) > 0) um_5(); else zero_5();
  3794  00099A  501B               	movf	SendBuffCh5@idx_color3,w,c
  3795  00099C  0D01               	mullw	1
  3796  00099E  0E40               	movlw	low _CH5
  3797  0009A0  24F3               	addwf	prodl,w,c
  3798  0009A2  6ED9               	movwf	fsr2l,c
  3799  0009A4  0E01               	movlw	high _CH5
  3800  0009A6  20F4               	addwfc	prodh,w,c
  3801  0009A8  6EDA               	movwf	fsr2h,c
  3802  0009AA  0101               	movlb	1	; () banked
  3803  0009AC  A0DF               	btfss	indf2,0,c
  3804  0009AE  D003               	goto	i2l3484
  3805                           
  3806                           ; BSR set to: 1
  3807  0009B0  EC9A  F00D         	call	_um_5	;wreg free
  3808  0009B4  0012               	return	
  3809  0009B6                     i2l3484:
  3810  0009B6  EC12  F00E         	call	_zero_5	;wreg free
  3811  0009BA  0012               	return	
  3812  0009BC                     __end_of_SendBuffCh5:
  3813                           	opt stack 0
  3814                           pclatu	equ	0xFFB
  3815                           pclath	equ	0xFFA
  3816                           tblptru	equ	0xFF8
  3817                           tblptrh	equ	0xFF7
  3818                           tblptrl	equ	0xFF6
  3819                           tablat	equ	0xFF5
  3820                           prodh	equ	0xFF4
  3821                           prodl	equ	0xFF3
  3822                           intcon	equ	0xFF2
  3823                           intcon2	equ	0xFF1
  3824                           postinc0	equ	0xFEE
  3825                           fsr0h	equ	0xFEA
  3826                           fsr0l	equ	0xFE9
  3827                           wreg	equ	0xFE8
  3828                           postdec1	equ	0xFE5
  3829                           fsr1h	equ	0xFE2
  3830                           fsr1l	equ	0xFE1
  3831                           indf2	equ	0xFDF
  3832                           fsr2h	equ	0xFDA
  3833                           fsr2l	equ	0xFD9
  3834                           status	equ	0xFD8
  3835                           
  3836 ;; *************** function _zero_5 *****************
  3837 ;; Defined at:
  3838 ;;		line 131 in file "mcc_generated_files/app.c"
  3839 ;; Parameters:    Size  Location     Type
  3840 ;;		None
  3841 ;; Auto vars:     Size  Location     Type
  3842 ;;		None
  3843 ;; Return value:  Size  Location     Type
  3844 ;;                  1    wreg      void 
  3845 ;; Registers used:
  3846 ;;		None
  3847 ;; Tracked objects:
  3848 ;;		On entry : 0/0
  3849 ;;		On exit  : 0/0
  3850 ;;		Unchanged: 0/0
  3851 ;; Data sizes:     COMRAM   BANK0   BANK1   BANK2   BANK3   BANK4   BANK5
  3852 ;;      Params:         0       0       0       0       0       0       0
  3853 ;;      Locals:         0       0       0       0       0       0       0
  3854 ;;      Temps:          0       0       0       0       0       0       0
  3855 ;;      Totals:         0       0       0       0       0       0       0
  3856 ;;Total ram usage:        0 bytes
  3857 ;; Hardware stack levels used:    1
  3858 ;; This function calls:
  3859 ;;		Nothing
  3860 ;; This function is called by:
  3861 ;;		_SendBuffCh5
  3862 ;; This function uses a non-reentrant model
  3863 ;;
  3864                           
  3865                           	psect	text22
  3866  001C24                     __ptext22:
  3867                           	opt stack 0
  3868  001C24                     _zero_5:
  3869                           	opt stack 21
  3870                           
  3871                           ;incstack = 0
  3872  001C24  888A               	bsf	3978,4,c	;volatile
  3873  001C26  F000               	nop	
  3874  001C28  F000               	nop	
  3875  001C2A  F000               	nop	
  3876  001C2C  F000               	nop	
  3877  001C2E  F000               	nop	
  3878  001C30  F000               	nop	
  3879                           
  3880                           ;app.c: 132: LATB4 = 0; __nop();__nop();__nop();__nop();__nop();__nop(); }
  3881  001C32  988A               	bcf	3978,4,c	;volatile
  3882  001C34  F000               	nop	
  3883  001C36  F000               	nop	
  3884  001C38  F000               	nop	
  3885  001C3A  F000               	nop	
  3886  001C3C  F000               	nop	
  3887  001C3E  F000               	nop	
  3888  001C40  0012               	return		;funcret
  3889  001C42                     __end_of_zero_5:
  3890                           	opt stack 0
  3891                           pclatu	equ	0xFFB
  3892                           pclath	equ	0xFFA
  3893                           tblptru	equ	0xFF8
  3894                           tblptrh	equ	0xFF7
  3895                           tblptrl	equ	0xFF6
  3896                           tablat	equ	0xFF5
  3897                           prodh	equ	0xFF4
  3898                           prodl	equ	0xFF3
  3899                           intcon	equ	0xFF2
  3900                           intcon2	equ	0xFF1
  3901                           postinc0	equ	0xFEE
  3902                           fsr0h	equ	0xFEA
  3903                           fsr0l	equ	0xFE9
  3904                           wreg	equ	0xFE8
  3905                           postdec1	equ	0xFE5
  3906                           fsr1h	equ	0xFE2
  3907                           fsr1l	equ	0xFE1
  3908                           indf2	equ	0xFDF
  3909                           fsr2h	equ	0xFDA
  3910                           fsr2l	equ	0xFD9
  3911                           status	equ	0xFD8
  3912                           
  3913 ;; *************** function _um_5 *****************
  3914 ;; Defined at:
  3915 ;;		line 127 in file "mcc_generated_files/app.c"
  3916 ;; Parameters:    Size  Location     Type
  3917 ;;		None
  3918 ;; Auto vars:     Size  Location     Type
  3919 ;;		None
  3920 ;; Return value:  Size  Location     Type
  3921 ;;                  1    wreg      void 
  3922 ;; Registers used:
  3923 ;;		None
  3924 ;; Tracked objects:
  3925 ;;		On entry : 0/0
  3926 ;;		On exit  : 0/0
  3927 ;;		Unchanged: 0/0
  3928 ;; Data sizes:     COMRAM   BANK0   BANK1   BANK2   BANK3   BANK4   BANK5
  3929 ;;      Params:         0       0       0       0       0       0       0
  3930 ;;      Locals:         0       0       0       0       0       0       0
  3931 ;;      Temps:          0       0       0       0       0       0       0
  3932 ;;      Totals:         0       0       0       0       0       0       0
  3933 ;;Total ram usage:        0 bytes
  3934 ;; Hardware stack levels used:    1
  3935 ;; This function calls:
  3936 ;;		Nothing
  3937 ;; This function is called by:
  3938 ;;		_SendBuffCh5
  3939 ;; This function uses a non-reentrant model
  3940 ;;
  3941                           
  3942                           	psect	text23
  3943  001B34                     __ptext23:
  3944                           	opt stack 0
  3945  001B34                     _um_5:
  3946                           	opt stack 21
  3947                           
  3948                           ;incstack = 0
  3949  001B34  888A               	bsf	3978,4,c	;volatile
  3950  001B36  F000               	nop	
  3951  001B38  F000               	nop	
  3952  001B3A  F000               	nop	
  3953  001B3C  F000               	nop	
  3954  001B3E  F000               	nop	
  3955  001B40  F000               	nop	
  3956                           
  3957                           ;app.c: 128: __nop();__nop();__nop();__nop();__nop();__nop();
  3958  001B42  F000               	nop	
  3959  001B44  F000               	nop	
  3960  001B46  F000               	nop	
  3961  001B48  F000               	nop	
  3962  001B4A  F000               	nop	
  3963  001B4C  F000               	nop	
  3964                           
  3965                           ;app.c: 129: __nop();__nop();__nop(); LATB4 = 0;
  3966  001B4E  F000               	nop	
  3967  001B50  F000               	nop	
  3968  001B52  F000               	nop	
  3969  001B54  988A               	bcf	3978,4,c	;volatile
  3970  001B56  0012               	return		;funcret
  3971  001B58                     __end_of_um_5:
  3972                           	opt stack 0
  3973                           pclatu	equ	0xFFB
  3974                           pclath	equ	0xFFA
  3975                           tblptru	equ	0xFF8
  3976                           tblptrh	equ	0xFF7
  3977                           tblptrl	equ	0xFF6
  3978                           tablat	equ	0xFF5
  3979                           prodh	equ	0xFF4
  3980                           prodl	equ	0xFF3
  3981                           intcon	equ	0xFF2
  3982                           intcon2	equ	0xFF1
  3983                           postinc0	equ	0xFEE
  3984                           fsr0h	equ	0xFEA
  3985                           fsr0l	equ	0xFE9
  3986                           wreg	equ	0xFE8
  3987                           postdec1	equ	0xFE5
  3988                           fsr1h	equ	0xFE2
  3989                           fsr1l	equ	0xFE1
  3990                           indf2	equ	0xFDF
  3991                           fsr2h	equ	0xFDA
  3992                           fsr2l	equ	0xFD9
  3993                           status	equ	0xFD8
  3994                           
  3995 ;; *************** function _SendBuffCh4 *****************
  3996 ;; Defined at:
  3997 ;;		line 239 in file "mcc_generated_files/app.c"
  3998 ;; Parameters:    Size  Location     Type
  3999 ;;  idx_color1      1    wreg     unsigned char 
  4000 ;;  idx_color2      1    0[COMRAM] unsigned char 
  4001 ;;  idx_color3      1    1[COMRAM] unsigned char 
  4002 ;; Auto vars:     Size  Location     Type
  4003 ;;  idx_color1      1    2[COMRAM] unsigned char 
  4004 ;; Return value:  Size  Location     Type
  4005 ;;                  1    wreg      void 
  4006 ;; Registers used:
  4007 ;;		wreg, fsr2l, fsr2h, status,2, status,0, prodl, prodh, cstack
  4008 ;; Tracked objects:
  4009 ;;		On entry : 0/0
  4010 ;;		On exit  : 0/0
  4011 ;;		Unchanged: 0/0
  4012 ;; Data sizes:     COMRAM   BANK0   BANK1   BANK2   BANK3   BANK4   BANK5
  4013 ;;      Params:         2       0       0       0       0       0       0
  4014 ;;      Locals:         1       0       0       0       0       0       0
  4015 ;;      Temps:          0       0       0       0       0       0       0
  4016 ;;      Totals:         3       0       0       0       0       0       0
  4017 ;;Total ram usage:        3 bytes
  4018 ;; Hardware stack levels used:    1
  4019 ;; Hardware stack levels required when called:    1
  4020 ;; This function calls:
  4021 ;;		_um_4
  4022 ;;		_zero_4
  4023 ;; This function is called by:
  4024 ;;		_AppTimer1ms
  4025 ;; This function uses a non-reentrant model
  4026 ;;
  4027                           
  4028                           	psect	text24
  4029  0009BC                     __ptext24:
  4030                           	opt stack 0
  4031  0009BC                     _SendBuffCh4:
  4032                           	opt stack 21
  4033                           
  4034                           ;incstack = 0
  4035                           ;SendBuffCh4@idx_color1 stored from wreg
  4036  0009BC  6E1C               	movwf	SendBuffCh4@idx_color1,c
  4037                           
  4038                           ;app.c: 241: if( (CH4[idx_color1] & 128) > 0)um_4(); else zero_4();
  4039  0009BE  501C               	movf	SendBuffCh4@idx_color1,w,c
  4040  0009C0  0D01               	mullw	1
  4041  0009C2  0E80               	movlw	low _CH4
  4042  0009C4  24F3               	addwf	prodl,w,c
  4043  0009C6  6ED9               	movwf	fsr2l,c
  4044  0009C8  0E01               	movlw	high _CH4
  4045  0009CA  20F4               	addwfc	prodh,w,c
  4046  0009CC  6EDA               	movwf	fsr2h,c
  4047  0009CE  0101               	movlb	1	; () banked
  4048  0009D0  AEDF               	btfss	indf2,7,c
  4049  0009D2  D003               	goto	i2l3202
  4050                           
  4051                           ; BSR set to: 1
  4052  0009D4  ECAC  F00D         	call	_um_4	;wreg free
  4053  0009D8  D002               	goto	i2l3204
  4054  0009DA                     i2l3202:
  4055  0009DA  EC21  F00E         	call	_zero_4	;wreg free
  4056  0009DE                     i2l3204:
  4057                           
  4058                           ;app.c: 242: if( (CH4[idx_color1] & 64) > 0) um_4(); else zero_4();
  4059  0009DE  501C               	movf	SendBuffCh4@idx_color1,w,c
  4060  0009E0  0D01               	mullw	1
  4061  0009E2  0E80               	movlw	low _CH4
  4062  0009E4  24F3               	addwf	prodl,w,c
  4063  0009E6  6ED9               	movwf	fsr2l,c
  4064  0009E8  0E01               	movlw	high _CH4
  4065  0009EA  20F4               	addwfc	prodh,w,c
  4066  0009EC  6EDA               	movwf	fsr2h,c
  4067  0009EE  0101               	movlb	1	; () banked
  4068  0009F0  ACDF               	btfss	indf2,6,c
  4069  0009F2  D003               	goto	i2l3208
  4070                           
  4071                           ; BSR set to: 1
  4072  0009F4  ECAC  F00D         	call	_um_4	;wreg free
  4073  0009F8  D002               	goto	i2l3210
  4074  0009FA                     i2l3208:
  4075  0009FA  EC21  F00E         	call	_zero_4	;wreg free
  4076  0009FE                     i2l3210:
  4077                           
  4078                           ;app.c: 243: if( (CH4[idx_color1] & 32) > 0) um_4(); else zero_4();
  4079  0009FE  501C               	movf	SendBuffCh4@idx_color1,w,c
  4080  000A00  0D01               	mullw	1
  4081  000A02  0E80               	movlw	low _CH4
  4082  000A04  24F3               	addwf	prodl,w,c
  4083  000A06  6ED9               	movwf	fsr2l,c
  4084  000A08  0E01               	movlw	high _CH4
  4085  000A0A  20F4               	addwfc	prodh,w,c
  4086  000A0C  6EDA               	movwf	fsr2h,c
  4087  000A0E  0101               	movlb	1	; () banked
  4088  000A10  AADF               	btfss	indf2,5,c
  4089  000A12  D003               	goto	i2l3214
  4090                           
  4091                           ; BSR set to: 1
  4092  000A14  ECAC  F00D         	call	_um_4	;wreg free
  4093  000A18  D002               	goto	i2l3216
  4094  000A1A                     i2l3214:
  4095  000A1A  EC21  F00E         	call	_zero_4	;wreg free
  4096  000A1E                     i2l3216:
  4097                           
  4098                           ;app.c: 244: if( (CH4[idx_color1] & 16) > 0) um_4(); else zero_4();
  4099  000A1E  501C               	movf	SendBuffCh4@idx_color1,w,c
  4100  000A20  0D01               	mullw	1
  4101  000A22  0E80               	movlw	low _CH4
  4102  000A24  24F3               	addwf	prodl,w,c
  4103  000A26  6ED9               	movwf	fsr2l,c
  4104  000A28  0E01               	movlw	high _CH4
  4105  000A2A  20F4               	addwfc	prodh,w,c
  4106  000A2C  6EDA               	movwf	fsr2h,c
  4107  000A2E  0101               	movlb	1	; () banked
  4108  000A30  A8DF               	btfss	indf2,4,c
  4109  000A32  D003               	goto	i2l3220
  4110                           
  4111                           ; BSR set to: 1
  4112  000A34  ECAC  F00D         	call	_um_4	;wreg free
  4113  000A38  D002               	goto	i2l3222
  4114  000A3A                     i2l3220:
  4115  000A3A  EC21  F00E         	call	_zero_4	;wreg free
  4116  000A3E                     i2l3222:
  4117                           
  4118                           ;app.c: 245: if( (CH4[idx_color1] & 8) > 0) um_4(); else zero_4();
  4119  000A3E  501C               	movf	SendBuffCh4@idx_color1,w,c
  4120  000A40  0D01               	mullw	1
  4121  000A42  0E80               	movlw	low _CH4
  4122  000A44  24F3               	addwf	prodl,w,c
  4123  000A46  6ED9               	movwf	fsr2l,c
  4124  000A48  0E01               	movlw	high _CH4
  4125  000A4A  20F4               	addwfc	prodh,w,c
  4126  000A4C  6EDA               	movwf	fsr2h,c
  4127  000A4E  0101               	movlb	1	; () banked
  4128  000A50  A6DF               	btfss	indf2,3,c
  4129  000A52  D003               	goto	i2l3226
  4130                           
  4131                           ; BSR set to: 1
  4132  000A54  ECAC  F00D         	call	_um_4	;wreg free
  4133  000A58  D002               	goto	i2l3228
  4134  000A5A                     i2l3226:
  4135  000A5A  EC21  F00E         	call	_zero_4	;wreg free
  4136  000A5E                     i2l3228:
  4137                           
  4138                           ;app.c: 246: if( (CH4[idx_color1] & 4) > 0) um_4(); else zero_4();
  4139  000A5E  501C               	movf	SendBuffCh4@idx_color1,w,c
  4140  000A60  0D01               	mullw	1
  4141  000A62  0E80               	movlw	low _CH4
  4142  000A64  24F3               	addwf	prodl,w,c
  4143  000A66  6ED9               	movwf	fsr2l,c
  4144  000A68  0E01               	movlw	high _CH4
  4145  000A6A  20F4               	addwfc	prodh,w,c
  4146  000A6C  6EDA               	movwf	fsr2h,c
  4147  000A6E  0101               	movlb	1	; () banked
  4148  000A70  A4DF               	btfss	indf2,2,c
  4149  000A72  D003               	goto	i2l3232
  4150                           
  4151                           ; BSR set to: 1
  4152  000A74  ECAC  F00D         	call	_um_4	;wreg free
  4153  000A78  D002               	goto	i2l3234
  4154  000A7A                     i2l3232:
  4155  000A7A  EC21  F00E         	call	_zero_4	;wreg free
  4156  000A7E                     i2l3234:
  4157                           
  4158                           ;app.c: 247: if( (CH4[idx_color1] & 2) > 0) um_4(); else zero_4();
  4159  000A7E  501C               	movf	SendBuffCh4@idx_color1,w,c
  4160  000A80  0D01               	mullw	1
  4161  000A82  0E80               	movlw	low _CH4
  4162  000A84  24F3               	addwf	prodl,w,c
  4163  000A86  6ED9               	movwf	fsr2l,c
  4164  000A88  0E01               	movlw	high _CH4
  4165  000A8A  20F4               	addwfc	prodh,w,c
  4166  000A8C  6EDA               	movwf	fsr2h,c
  4167  000A8E  0101               	movlb	1	; () banked
  4168  000A90  A2DF               	btfss	indf2,1,c
  4169  000A92  D003               	goto	i2l3238
  4170                           
  4171                           ; BSR set to: 1
  4172  000A94  ECAC  F00D         	call	_um_4	;wreg free
  4173  000A98  D002               	goto	i2l3240
  4174  000A9A                     i2l3238:
  4175  000A9A  EC21  F00E         	call	_zero_4	;wreg free
  4176  000A9E                     i2l3240:
  4177                           
  4178                           ;app.c: 248: if( (CH4[idx_color1] & 1) > 0) um_4(); else zero_4();
  4179  000A9E  501C               	movf	SendBuffCh4@idx_color1,w,c
  4180  000AA0  0D01               	mullw	1
  4181  000AA2  0E80               	movlw	low _CH4
  4182  000AA4  24F3               	addwf	prodl,w,c
  4183  000AA6  6ED9               	movwf	fsr2l,c
  4184  000AA8  0E01               	movlw	high _CH4
  4185  000AAA  20F4               	addwfc	prodh,w,c
  4186  000AAC  6EDA               	movwf	fsr2h,c
  4187  000AAE  0101               	movlb	1	; () banked
  4188  000AB0  A0DF               	btfss	indf2,0,c
  4189  000AB2  D003               	goto	i2l3244
  4190                           
  4191                           ; BSR set to: 1
  4192  000AB4  ECAC  F00D         	call	_um_4	;wreg free
  4193  000AB8  D002               	goto	i2l3246
  4194  000ABA                     i2l3244:
  4195  000ABA  EC21  F00E         	call	_zero_4	;wreg free
  4196  000ABE                     i2l3246:
  4197                           
  4198                           ;app.c: 250: if( (CH4[idx_color2] & 128) > 0)um_4(); else zero_4();
  4199  000ABE  501A               	movf	SendBuffCh4@idx_color2,w,c
  4200  000AC0  0D01               	mullw	1
  4201  000AC2  0E80               	movlw	low _CH4
  4202  000AC4  24F3               	addwf	prodl,w,c
  4203  000AC6  6ED9               	movwf	fsr2l,c
  4204  000AC8  0E01               	movlw	high _CH4
  4205  000ACA  20F4               	addwfc	prodh,w,c
  4206  000ACC  6EDA               	movwf	fsr2h,c
  4207  000ACE  0101               	movlb	1	; () banked
  4208  000AD0  AEDF               	btfss	indf2,7,c
  4209  000AD2  D003               	goto	i2l3250
  4210                           
  4211                           ; BSR set to: 1
  4212  000AD4  ECAC  F00D         	call	_um_4	;wreg free
  4213  000AD8  D002               	goto	i2l3252
  4214  000ADA                     i2l3250:
  4215  000ADA  EC21  F00E         	call	_zero_4	;wreg free
  4216  000ADE                     i2l3252:
  4217                           
  4218                           ;app.c: 251: if( (CH4[idx_color2] & 64) > 0) um_4(); else zero_4();
  4219  000ADE  501A               	movf	SendBuffCh4@idx_color2,w,c
  4220  000AE0  0D01               	mullw	1
  4221  000AE2  0E80               	movlw	low _CH4
  4222  000AE4  24F3               	addwf	prodl,w,c
  4223  000AE6  6ED9               	movwf	fsr2l,c
  4224  000AE8  0E01               	movlw	high _CH4
  4225  000AEA  20F4               	addwfc	prodh,w,c
  4226  000AEC  6EDA               	movwf	fsr2h,c
  4227  000AEE  0101               	movlb	1	; () banked
  4228  000AF0  ACDF               	btfss	indf2,6,c
  4229  000AF2  D003               	goto	i2l3256
  4230                           
  4231                           ; BSR set to: 1
  4232  000AF4  ECAC  F00D         	call	_um_4	;wreg free
  4233  000AF8  D002               	goto	i2l3258
  4234  000AFA                     i2l3256:
  4235  000AFA  EC21  F00E         	call	_zero_4	;wreg free
  4236  000AFE                     i2l3258:
  4237                           
  4238                           ;app.c: 252: if( (CH4[idx_color2] & 32) > 0) um_4(); else zero_4();
  4239  000AFE  501A               	movf	SendBuffCh4@idx_color2,w,c
  4240  000B00  0D01               	mullw	1
  4241  000B02  0E80               	movlw	low _CH4
  4242  000B04  24F3               	addwf	prodl,w,c
  4243  000B06  6ED9               	movwf	fsr2l,c
  4244  000B08  0E01               	movlw	high _CH4
  4245  000B0A  20F4               	addwfc	prodh,w,c
  4246  000B0C  6EDA               	movwf	fsr2h,c
  4247  000B0E  0101               	movlb	1	; () banked
  4248  000B10  AADF               	btfss	indf2,5,c
  4249  000B12  D003               	goto	i2l3262
  4250                           
  4251                           ; BSR set to: 1
  4252  000B14  ECAC  F00D         	call	_um_4	;wreg free
  4253  000B18  D002               	goto	i2l3264
  4254  000B1A                     i2l3262:
  4255  000B1A  EC21  F00E         	call	_zero_4	;wreg free
  4256  000B1E                     i2l3264:
  4257                           
  4258                           ;app.c: 253: if( (CH4[idx_color2] & 16) > 0) um_4(); else zero_4();
  4259  000B1E  501A               	movf	SendBuffCh4@idx_color2,w,c
  4260  000B20  0D01               	mullw	1
  4261  000B22  0E80               	movlw	low _CH4
  4262  000B24  24F3               	addwf	prodl,w,c
  4263  000B26  6ED9               	movwf	fsr2l,c
  4264  000B28  0E01               	movlw	high _CH4
  4265  000B2A  20F4               	addwfc	prodh,w,c
  4266  000B2C  6EDA               	movwf	fsr2h,c
  4267  000B2E  0101               	movlb	1	; () banked
  4268  000B30  A8DF               	btfss	indf2,4,c
  4269  000B32  D003               	goto	i2l3268
  4270                           
  4271                           ; BSR set to: 1
  4272  000B34  ECAC  F00D         	call	_um_4	;wreg free
  4273  000B38  D002               	goto	i2l3270
  4274  000B3A                     i2l3268:
  4275  000B3A  EC21  F00E         	call	_zero_4	;wreg free
  4276  000B3E                     i2l3270:
  4277                           
  4278                           ;app.c: 254: if( (CH4[idx_color2] & 8) > 0) um_4(); else zero_4();
  4279  000B3E  501A               	movf	SendBuffCh4@idx_color2,w,c
  4280  000B40  0D01               	mullw	1
  4281  000B42  0E80               	movlw	low _CH4
  4282  000B44  24F3               	addwf	prodl,w,c
  4283  000B46  6ED9               	movwf	fsr2l,c
  4284  000B48  0E01               	movlw	high _CH4
  4285  000B4A  20F4               	addwfc	prodh,w,c
  4286  000B4C  6EDA               	movwf	fsr2h,c
  4287  000B4E  0101               	movlb	1	; () banked
  4288  000B50  A6DF               	btfss	indf2,3,c
  4289  000B52  D003               	goto	i2l3274
  4290                           
  4291                           ; BSR set to: 1
  4292  000B54  ECAC  F00D         	call	_um_4	;wreg free
  4293  000B58  D002               	goto	i2l3276
  4294  000B5A                     i2l3274:
  4295  000B5A  EC21  F00E         	call	_zero_4	;wreg free
  4296  000B5E                     i2l3276:
  4297                           
  4298                           ;app.c: 255: if( (CH4[idx_color2] & 4) > 0) um_4(); else zero_4();
  4299  000B5E  501A               	movf	SendBuffCh4@idx_color2,w,c
  4300  000B60  0D01               	mullw	1
  4301  000B62  0E80               	movlw	low _CH4
  4302  000B64  24F3               	addwf	prodl,w,c
  4303  000B66  6ED9               	movwf	fsr2l,c
  4304  000B68  0E01               	movlw	high _CH4
  4305  000B6A  20F4               	addwfc	prodh,w,c
  4306  000B6C  6EDA               	movwf	fsr2h,c
  4307  000B6E  0101               	movlb	1	; () banked
  4308  000B70  A4DF               	btfss	indf2,2,c
  4309  000B72  D003               	goto	i2l3280
  4310                           
  4311                           ; BSR set to: 1
  4312  000B74  ECAC  F00D         	call	_um_4	;wreg free
  4313  000B78  D002               	goto	i2l3282
  4314  000B7A                     i2l3280:
  4315  000B7A  EC21  F00E         	call	_zero_4	;wreg free
  4316  000B7E                     i2l3282:
  4317                           
  4318                           ;app.c: 256: if( (CH4[idx_color2] & 2) > 0) um_4(); else zero_4();
  4319  000B7E  501A               	movf	SendBuffCh4@idx_color2,w,c
  4320  000B80  0D01               	mullw	1
  4321  000B82  0E80               	movlw	low _CH4
  4322  000B84  24F3               	addwf	prodl,w,c
  4323  000B86  6ED9               	movwf	fsr2l,c
  4324  000B88  0E01               	movlw	high _CH4
  4325  000B8A  20F4               	addwfc	prodh,w,c
  4326  000B8C  6EDA               	movwf	fsr2h,c
  4327  000B8E  0101               	movlb	1	; () banked
  4328  000B90  A2DF               	btfss	indf2,1,c
  4329  000B92  D003               	goto	i2l3286
  4330                           
  4331                           ; BSR set to: 1
  4332  000B94  ECAC  F00D         	call	_um_4	;wreg free
  4333  000B98  D002               	goto	i2l3288
  4334  000B9A                     i2l3286:
  4335  000B9A  EC21  F00E         	call	_zero_4	;wreg free
  4336  000B9E                     i2l3288:
  4337                           
  4338                           ;app.c: 257: if( (CH4[idx_color2] & 1) > 0) um_4(); else zero_4();
  4339  000B9E  501A               	movf	SendBuffCh4@idx_color2,w,c
  4340  000BA0  0D01               	mullw	1
  4341  000BA2  0E80               	movlw	low _CH4
  4342  000BA4  24F3               	addwf	prodl,w,c
  4343  000BA6  6ED9               	movwf	fsr2l,c
  4344  000BA8  0E01               	movlw	high _CH4
  4345  000BAA  20F4               	addwfc	prodh,w,c
  4346  000BAC  6EDA               	movwf	fsr2h,c
  4347  000BAE  0101               	movlb	1	; () banked
  4348  000BB0  A0DF               	btfss	indf2,0,c
  4349  000BB2  D003               	goto	i2l3292
  4350                           
  4351                           ; BSR set to: 1
  4352  000BB4  ECAC  F00D         	call	_um_4	;wreg free
  4353  000BB8  D002               	goto	i2l3294
  4354  000BBA                     i2l3292:
  4355  000BBA  EC21  F00E         	call	_zero_4	;wreg free
  4356  000BBE                     i2l3294:
  4357                           
  4358                           ;app.c: 259: if( (CH4[idx_color3] & 128) > 0)um_4(); else zero_4();
  4359  000BBE  501B               	movf	SendBuffCh4@idx_color3,w,c
  4360  000BC0  0D01               	mullw	1
  4361  000BC2  0E80               	movlw	low _CH4
  4362  000BC4  24F3               	addwf	prodl,w,c
  4363  000BC6  6ED9               	movwf	fsr2l,c
  4364  000BC8  0E01               	movlw	high _CH4
  4365  000BCA  20F4               	addwfc	prodh,w,c
  4366  000BCC  6EDA               	movwf	fsr2h,c
  4367  000BCE  0101               	movlb	1	; () banked
  4368  000BD0  AEDF               	btfss	indf2,7,c
  4369  000BD2  D003               	goto	i2l3298
  4370                           
  4371                           ; BSR set to: 1
  4372  000BD4  ECAC  F00D         	call	_um_4	;wreg free
  4373  000BD8  D002               	goto	i2l3300
  4374  000BDA                     i2l3298:
  4375  000BDA  EC21  F00E         	call	_zero_4	;wreg free
  4376  000BDE                     i2l3300:
  4377                           
  4378                           ;app.c: 260: if( (CH4[idx_color3] & 64) > 0) um_4(); else zero_4();
  4379  000BDE  501B               	movf	SendBuffCh4@idx_color3,w,c
  4380  000BE0  0D01               	mullw	1
  4381  000BE2  0E80               	movlw	low _CH4
  4382  000BE4  24F3               	addwf	prodl,w,c
  4383  000BE6  6ED9               	movwf	fsr2l,c
  4384  000BE8  0E01               	movlw	high _CH4
  4385  000BEA  20F4               	addwfc	prodh,w,c
  4386  000BEC  6EDA               	movwf	fsr2h,c
  4387  000BEE  0101               	movlb	1	; () banked
  4388  000BF0  ACDF               	btfss	indf2,6,c
  4389  000BF2  D003               	goto	i2l3304
  4390                           
  4391                           ; BSR set to: 1
  4392  000BF4  ECAC  F00D         	call	_um_4	;wreg free
  4393  000BF8  D002               	goto	i2l3306
  4394  000BFA                     i2l3304:
  4395  000BFA  EC21  F00E         	call	_zero_4	;wreg free
  4396  000BFE                     i2l3306:
  4397                           
  4398                           ;app.c: 261: if( (CH4[idx_color3] & 32) > 0) um_4(); else zero_4();
  4399  000BFE  501B               	movf	SendBuffCh4@idx_color3,w,c
  4400  000C00  0D01               	mullw	1
  4401  000C02  0E80               	movlw	low _CH4
  4402  000C04  24F3               	addwf	prodl,w,c
  4403  000C06  6ED9               	movwf	fsr2l,c
  4404  000C08  0E01               	movlw	high _CH4
  4405  000C0A  20F4               	addwfc	prodh,w,c
  4406  000C0C  6EDA               	movwf	fsr2h,c
  4407  000C0E  0101               	movlb	1	; () banked
  4408  000C10  AADF               	btfss	indf2,5,c
  4409  000C12  D003               	goto	i2l3310
  4410                           
  4411                           ; BSR set to: 1
  4412  000C14  ECAC  F00D         	call	_um_4	;wreg free
  4413  000C18  D002               	goto	i2l3312
  4414  000C1A                     i2l3310:
  4415  000C1A  EC21  F00E         	call	_zero_4	;wreg free
  4416  000C1E                     i2l3312:
  4417                           
  4418                           ;app.c: 262: if( (CH4[idx_color3] & 16) > 0) um_4(); else zero_4();
  4419  000C1E  501B               	movf	SendBuffCh4@idx_color3,w,c
  4420  000C20  0D01               	mullw	1
  4421  000C22  0E80               	movlw	low _CH4
  4422  000C24  24F3               	addwf	prodl,w,c
  4423  000C26  6ED9               	movwf	fsr2l,c
  4424  000C28  0E01               	movlw	high _CH4
  4425  000C2A  20F4               	addwfc	prodh,w,c
  4426  000C2C  6EDA               	movwf	fsr2h,c
  4427  000C2E  0101               	movlb	1	; () banked
  4428  000C30  A8DF               	btfss	indf2,4,c
  4429  000C32  D003               	goto	i2l3316
  4430                           
  4431                           ; BSR set to: 1
  4432  000C34  ECAC  F00D         	call	_um_4	;wreg free
  4433  000C38  D002               	goto	i2l3318
  4434  000C3A                     i2l3316:
  4435  000C3A  EC21  F00E         	call	_zero_4	;wreg free
  4436  000C3E                     i2l3318:
  4437                           
  4438                           ;app.c: 263: if( (CH4[idx_color3] & 8) > 0) um_4(); else zero_4();
  4439  000C3E  501B               	movf	SendBuffCh4@idx_color3,w,c
  4440  000C40  0D01               	mullw	1
  4441  000C42  0E80               	movlw	low _CH4
  4442  000C44  24F3               	addwf	prodl,w,c
  4443  000C46  6ED9               	movwf	fsr2l,c
  4444  000C48  0E01               	movlw	high _CH4
  4445  000C4A  20F4               	addwfc	prodh,w,c
  4446  000C4C  6EDA               	movwf	fsr2h,c
  4447  000C4E  0101               	movlb	1	; () banked
  4448  000C50  A6DF               	btfss	indf2,3,c
  4449  000C52  D003               	goto	i2l3322
  4450                           
  4451                           ; BSR set to: 1
  4452  000C54  ECAC  F00D         	call	_um_4	;wreg free
  4453  000C58  D002               	goto	i2l3324
  4454  000C5A                     i2l3322:
  4455  000C5A  EC21  F00E         	call	_zero_4	;wreg free
  4456  000C5E                     i2l3324:
  4457                           
  4458                           ;app.c: 264: if( (CH4[idx_color3] & 4) > 0) um_4(); else zero_4();
  4459  000C5E  501B               	movf	SendBuffCh4@idx_color3,w,c
  4460  000C60  0D01               	mullw	1
  4461  000C62  0E80               	movlw	low _CH4
  4462  000C64  24F3               	addwf	prodl,w,c
  4463  000C66  6ED9               	movwf	fsr2l,c
  4464  000C68  0E01               	movlw	high _CH4
  4465  000C6A  20F4               	addwfc	prodh,w,c
  4466  000C6C  6EDA               	movwf	fsr2h,c
  4467  000C6E  0101               	movlb	1	; () banked
  4468  000C70  A4DF               	btfss	indf2,2,c
  4469  000C72  D003               	goto	i2l3328
  4470                           
  4471                           ; BSR set to: 1
  4472  000C74  ECAC  F00D         	call	_um_4	;wreg free
  4473  000C78  D002               	goto	i2l3330
  4474  000C7A                     i2l3328:
  4475  000C7A  EC21  F00E         	call	_zero_4	;wreg free
  4476  000C7E                     i2l3330:
  4477                           
  4478                           ;app.c: 265: if( (CH4[idx_color3] & 2) > 0) um_4(); else zero_4();
  4479  000C7E  501B               	movf	SendBuffCh4@idx_color3,w,c
  4480  000C80  0D01               	mullw	1
  4481  000C82  0E80               	movlw	low _CH4
  4482  000C84  24F3               	addwf	prodl,w,c
  4483  000C86  6ED9               	movwf	fsr2l,c
  4484  000C88  0E01               	movlw	high _CH4
  4485  000C8A  20F4               	addwfc	prodh,w,c
  4486  000C8C  6EDA               	movwf	fsr2h,c
  4487  000C8E  0101               	movlb	1	; () banked
  4488  000C90  A2DF               	btfss	indf2,1,c
  4489  000C92  D003               	goto	i2l3334
  4490                           
  4491                           ; BSR set to: 1
  4492  000C94  ECAC  F00D         	call	_um_4	;wreg free
  4493  000C98  D002               	goto	i2l3336
  4494  000C9A                     i2l3334:
  4495  000C9A  EC21  F00E         	call	_zero_4	;wreg free
  4496  000C9E                     i2l3336:
  4497                           
  4498                           ;app.c: 266: if( (CH4[idx_color3] & 1) > 0) um_4(); else zero_4();
  4499  000C9E  501B               	movf	SendBuffCh4@idx_color3,w,c
  4500  000CA0  0D01               	mullw	1
  4501  000CA2  0E80               	movlw	low _CH4
  4502  000CA4  24F3               	addwf	prodl,w,c
  4503  000CA6  6ED9               	movwf	fsr2l,c
  4504  000CA8  0E01               	movlw	high _CH4
  4505  000CAA  20F4               	addwfc	prodh,w,c
  4506  000CAC  6EDA               	movwf	fsr2h,c
  4507  000CAE  0101               	movlb	1	; () banked
  4508  000CB0  A0DF               	btfss	indf2,0,c
  4509  000CB2  D003               	goto	i2l3340
  4510                           
  4511                           ; BSR set to: 1
  4512  000CB4  ECAC  F00D         	call	_um_4	;wreg free
  4513  000CB8  0012               	return	
  4514  000CBA                     i2l3340:
  4515  000CBA  EC21  F00E         	call	_zero_4	;wreg free
  4516  000CBE  0012               	return	
  4517  000CC0                     __end_of_SendBuffCh4:
  4518                           	opt stack 0
  4519                           pclatu	equ	0xFFB
  4520                           pclath	equ	0xFFA
  4521                           tblptru	equ	0xFF8
  4522                           tblptrh	equ	0xFF7
  4523                           tblptrl	equ	0xFF6
  4524                           tablat	equ	0xFF5
  4525                           prodh	equ	0xFF4
  4526                           prodl	equ	0xFF3
  4527                           intcon	equ	0xFF2
  4528                           intcon2	equ	0xFF1
  4529                           postinc0	equ	0xFEE
  4530                           fsr0h	equ	0xFEA
  4531                           fsr0l	equ	0xFE9
  4532                           wreg	equ	0xFE8
  4533                           postdec1	equ	0xFE5
  4534                           fsr1h	equ	0xFE2
  4535                           fsr1l	equ	0xFE1
  4536                           indf2	equ	0xFDF
  4537                           fsr2h	equ	0xFDA
  4538                           fsr2l	equ	0xFD9
  4539                           status	equ	0xFD8
  4540                           
  4541 ;; *************** function _zero_4 *****************
  4542 ;; Defined at:
  4543 ;;		line 124 in file "mcc_generated_files/app.c"
  4544 ;; Parameters:    Size  Location     Type
  4545 ;;		None
  4546 ;; Auto vars:     Size  Location     Type
  4547 ;;		None
  4548 ;; Return value:  Size  Location     Type
  4549 ;;                  1    wreg      void 
  4550 ;; Registers used:
  4551 ;;		None
  4552 ;; Tracked objects:
  4553 ;;		On entry : 0/0
  4554 ;;		On exit  : 0/0
  4555 ;;		Unchanged: 0/0
  4556 ;; Data sizes:     COMRAM   BANK0   BANK1   BANK2   BANK3   BANK4   BANK5
  4557 ;;      Params:         0       0       0       0       0       0       0
  4558 ;;      Locals:         0       0       0       0       0       0       0
  4559 ;;      Temps:          0       0       0       0       0       0       0
  4560 ;;      Totals:         0       0       0       0       0       0       0
  4561 ;;Total ram usage:        0 bytes
  4562 ;; Hardware stack levels used:    1
  4563 ;; This function calls:
  4564 ;;		Nothing
  4565 ;; This function is called by:
  4566 ;;		_SendBuffCh4
  4567 ;; This function uses a non-reentrant model
  4568 ;;
  4569                           
  4570                           	psect	text25
  4571  001C42                     __ptext25:
  4572                           	opt stack 0
  4573  001C42                     _zero_4:
  4574                           	opt stack 21
  4575                           
  4576                           ;incstack = 0
  4577  001C42  868A               	bsf	3978,3,c	;volatile
  4578  001C44  F000               	nop	
  4579  001C46  F000               	nop	
  4580  001C48  F000               	nop	
  4581  001C4A  F000               	nop	
  4582  001C4C  F000               	nop	
  4583  001C4E  F000               	nop	
  4584                           
  4585                           ;app.c: 125: LATB3 = 0; __nop();__nop();__nop();__nop();__nop();__nop(); }
  4586  001C50  968A               	bcf	3978,3,c	;volatile
  4587  001C52  F000               	nop	
  4588  001C54  F000               	nop	
  4589  001C56  F000               	nop	
  4590  001C58  F000               	nop	
  4591  001C5A  F000               	nop	
  4592  001C5C  F000               	nop	
  4593  001C5E  0012               	return		;funcret
  4594  001C60                     __end_of_zero_4:
  4595                           	opt stack 0
  4596                           pclatu	equ	0xFFB
  4597                           pclath	equ	0xFFA
  4598                           tblptru	equ	0xFF8
  4599                           tblptrh	equ	0xFF7
  4600                           tblptrl	equ	0xFF6
  4601                           tablat	equ	0xFF5
  4602                           prodh	equ	0xFF4
  4603                           prodl	equ	0xFF3
  4604                           intcon	equ	0xFF2
  4605                           intcon2	equ	0xFF1
  4606                           postinc0	equ	0xFEE
  4607                           fsr0h	equ	0xFEA
  4608                           fsr0l	equ	0xFE9
  4609                           wreg	equ	0xFE8
  4610                           postdec1	equ	0xFE5
  4611                           fsr1h	equ	0xFE2
  4612                           fsr1l	equ	0xFE1
  4613                           indf2	equ	0xFDF
  4614                           fsr2h	equ	0xFDA
  4615                           fsr2l	equ	0xFD9
  4616                           status	equ	0xFD8
  4617                           
  4618 ;; *************** function _um_4 *****************
  4619 ;; Defined at:
  4620 ;;		line 120 in file "mcc_generated_files/app.c"
  4621 ;; Parameters:    Size  Location     Type
  4622 ;;		None
  4623 ;; Auto vars:     Size  Location     Type
  4624 ;;		None
  4625 ;; Return value:  Size  Location     Type
  4626 ;;                  1    wreg      void 
  4627 ;; Registers used:
  4628 ;;		None
  4629 ;; Tracked objects:
  4630 ;;		On entry : 0/0
  4631 ;;		On exit  : 0/0
  4632 ;;		Unchanged: 0/0
  4633 ;; Data sizes:     COMRAM   BANK0   BANK1   BANK2   BANK3   BANK4   BANK5
  4634 ;;      Params:         0       0       0       0       0       0       0
  4635 ;;      Locals:         0       0       0       0       0       0       0
  4636 ;;      Temps:          0       0       0       0       0       0       0
  4637 ;;      Totals:         0       0       0       0       0       0       0
  4638 ;;Total ram usage:        0 bytes
  4639 ;; Hardware stack levels used:    1
  4640 ;; This function calls:
  4641 ;;		Nothing
  4642 ;; This function is called by:
  4643 ;;		_SendBuffCh4
  4644 ;; This function uses a non-reentrant model
  4645 ;;
  4646                           
  4647                           	psect	text26
  4648  001B58                     __ptext26:
  4649                           	opt stack 0
  4650  001B58                     _um_4:
  4651                           	opt stack 21
  4652                           
  4653                           ;incstack = 0
  4654  001B58  868A               	bsf	3978,3,c	;volatile
  4655  001B5A  F000               	nop	
  4656  001B5C  F000               	nop	
  4657  001B5E  F000               	nop	
  4658  001B60  F000               	nop	
  4659  001B62  F000               	nop	
  4660  001B64  F000               	nop	
  4661                           
  4662                           ;app.c: 121: __nop();__nop();__nop();__nop();__nop();__nop();
  4663  001B66  F000               	nop	
  4664  001B68  F000               	nop	
  4665  001B6A  F000               	nop	
  4666  001B6C  F000               	nop	
  4667  001B6E  F000               	nop	
  4668  001B70  F000               	nop	
  4669                           
  4670                           ;app.c: 122: __nop();__nop();__nop(); LATB3 = 0;
  4671  001B72  F000               	nop	
  4672  001B74  F000               	nop	
  4673  001B76  F000               	nop	
  4674  001B78  968A               	bcf	3978,3,c	;volatile
  4675  001B7A  0012               	return		;funcret
  4676  001B7C                     __end_of_um_4:
  4677                           	opt stack 0
  4678                           pclatu	equ	0xFFB
  4679                           pclath	equ	0xFFA
  4680                           tblptru	equ	0xFF8
  4681                           tblptrh	equ	0xFF7
  4682                           tblptrl	equ	0xFF6
  4683                           tablat	equ	0xFF5
  4684                           prodh	equ	0xFF4
  4685                           prodl	equ	0xFF3
  4686                           intcon	equ	0xFF2
  4687                           intcon2	equ	0xFF1
  4688                           postinc0	equ	0xFEE
  4689                           fsr0h	equ	0xFEA
  4690                           fsr0l	equ	0xFE9
  4691                           wreg	equ	0xFE8
  4692                           postdec1	equ	0xFE5
  4693                           fsr1h	equ	0xFE2
  4694                           fsr1l	equ	0xFE1
  4695                           indf2	equ	0xFDF
  4696                           fsr2h	equ	0xFDA
  4697                           fsr2l	equ	0xFD9
  4698                           status	equ	0xFD8
  4699                           
  4700 ;; *************** function _SendBuffCh3 *****************
  4701 ;; Defined at:
  4702 ;;		line 210 in file "mcc_generated_files/app.c"
  4703 ;; Parameters:    Size  Location     Type
  4704 ;;  idx_color1      1    wreg     unsigned char 
  4705 ;;  idx_color2      1    0[COMRAM] unsigned char 
  4706 ;;  idx_color3      1    1[COMRAM] unsigned char 
  4707 ;; Auto vars:     Size  Location     Type
  4708 ;;  idx_color1      1    2[COMRAM] unsigned char 
  4709 ;; Return value:  Size  Location     Type
  4710 ;;                  1    wreg      void 
  4711 ;; Registers used:
  4712 ;;		wreg, fsr2l, fsr2h, status,2, status,0, prodl, prodh, cstack
  4713 ;; Tracked objects:
  4714 ;;		On entry : 0/0
  4715 ;;		On exit  : 0/0
  4716 ;;		Unchanged: 0/0
  4717 ;; Data sizes:     COMRAM   BANK0   BANK1   BANK2   BANK3   BANK4   BANK5
  4718 ;;      Params:         2       0       0       0       0       0       0
  4719 ;;      Locals:         1       0       0       0       0       0       0
  4720 ;;      Temps:          0       0       0       0       0       0       0
  4721 ;;      Totals:         3       0       0       0       0       0       0
  4722 ;;Total ram usage:        3 bytes
  4723 ;; Hardware stack levels used:    1
  4724 ;; Hardware stack levels required when called:    1
  4725 ;; This function calls:
  4726 ;;		_um_3
  4727 ;;		_zero_3
  4728 ;; This function is called by:
  4729 ;;		_AppTimer1ms
  4730 ;; This function uses a non-reentrant model
  4731 ;;
  4732                           
  4733                           	psect	text27
  4734  000CC0                     __ptext27:
  4735                           	opt stack 0
  4736  000CC0                     _SendBuffCh3:
  4737                           	opt stack 21
  4738                           
  4739                           ;incstack = 0
  4740                           ;SendBuffCh3@idx_color1 stored from wreg
  4741  000CC0  6E1C               	movwf	SendBuffCh3@idx_color1,c
  4742                           
  4743                           ;app.c: 212: if( (CH3[idx_color1] & 128) > 0)um_3(); else zero_3();
  4744  000CC2  501C               	movf	SendBuffCh3@idx_color1,w,c
  4745  000CC4  0D01               	mullw	1
  4746  000CC6  0EC0               	movlw	low _CH3
  4747  000CC8  24F3               	addwf	prodl,w,c
  4748  000CCA  6ED9               	movwf	fsr2l,c
  4749  000CCC  0E01               	movlw	high _CH3
  4750  000CCE  20F4               	addwfc	prodh,w,c
  4751  000CD0  6EDA               	movwf	fsr2h,c
  4752  000CD2  0101               	movlb	1	; () banked
  4753  000CD4  AEDF               	btfss	indf2,7,c
  4754  000CD6  D003               	goto	i2l3058
  4755                           
  4756                           ; BSR set to: 1
  4757  000CD8  ECBE  F00D         	call	_um_3	;wreg free
  4758  000CDC  D002               	goto	i2l3060
  4759  000CDE                     i2l3058:
  4760  000CDE  EC30  F00E         	call	_zero_3	;wreg free
  4761  000CE2                     i2l3060:
  4762                           
  4763                           ;app.c: 213: if( (CH3[idx_color1] & 64) > 0) um_3(); else zero_3();
  4764  000CE2  501C               	movf	SendBuffCh3@idx_color1,w,c
  4765  000CE4  0D01               	mullw	1
  4766  000CE6  0EC0               	movlw	low _CH3
  4767  000CE8  24F3               	addwf	prodl,w,c
  4768  000CEA  6ED9               	movwf	fsr2l,c
  4769  000CEC  0E01               	movlw	high _CH3
  4770  000CEE  20F4               	addwfc	prodh,w,c
  4771  000CF0  6EDA               	movwf	fsr2h,c
  4772  000CF2  0101               	movlb	1	; () banked
  4773  000CF4  ACDF               	btfss	indf2,6,c
  4774  000CF6  D003               	goto	i2l3064
  4775                           
  4776                           ; BSR set to: 1
  4777  000CF8  ECBE  F00D         	call	_um_3	;wreg free
  4778  000CFC  D002               	goto	i2l3066
  4779  000CFE                     i2l3064:
  4780  000CFE  EC30  F00E         	call	_zero_3	;wreg free
  4781  000D02                     i2l3066:
  4782                           
  4783                           ;app.c: 214: if( (CH3[idx_color1] & 32) > 0) um_3(); else zero_3();
  4784  000D02  501C               	movf	SendBuffCh3@idx_color1,w,c
  4785  000D04  0D01               	mullw	1
  4786  000D06  0EC0               	movlw	low _CH3
  4787  000D08  24F3               	addwf	prodl,w,c
  4788  000D0A  6ED9               	movwf	fsr2l,c
  4789  000D0C  0E01               	movlw	high _CH3
  4790  000D0E  20F4               	addwfc	prodh,w,c
  4791  000D10  6EDA               	movwf	fsr2h,c
  4792  000D12  0101               	movlb	1	; () banked
  4793  000D14  AADF               	btfss	indf2,5,c
  4794  000D16  D003               	goto	i2l3070
  4795                           
  4796                           ; BSR set to: 1
  4797  000D18  ECBE  F00D         	call	_um_3	;wreg free
  4798  000D1C  D002               	goto	i2l3072
  4799  000D1E                     i2l3070:
  4800  000D1E  EC30  F00E         	call	_zero_3	;wreg free
  4801  000D22                     i2l3072:
  4802                           
  4803                           ;app.c: 215: if( (CH3[idx_color1] & 16) > 0) um_3(); else zero_3();
  4804  000D22  501C               	movf	SendBuffCh3@idx_color1,w,c
  4805  000D24  0D01               	mullw	1
  4806  000D26  0EC0               	movlw	low _CH3
  4807  000D28  24F3               	addwf	prodl,w,c
  4808  000D2A  6ED9               	movwf	fsr2l,c
  4809  000D2C  0E01               	movlw	high _CH3
  4810  000D2E  20F4               	addwfc	prodh,w,c
  4811  000D30  6EDA               	movwf	fsr2h,c
  4812  000D32  0101               	movlb	1	; () banked
  4813  000D34  A8DF               	btfss	indf2,4,c
  4814  000D36  D003               	goto	i2l3076
  4815                           
  4816                           ; BSR set to: 1
  4817  000D38  ECBE  F00D         	call	_um_3	;wreg free
  4818  000D3C  D002               	goto	i2l3078
  4819  000D3E                     i2l3076:
  4820  000D3E  EC30  F00E         	call	_zero_3	;wreg free
  4821  000D42                     i2l3078:
  4822                           
  4823                           ;app.c: 216: if( (CH3[idx_color1] & 8) > 0) um_3(); else zero_3();
  4824  000D42  501C               	movf	SendBuffCh3@idx_color1,w,c
  4825  000D44  0D01               	mullw	1
  4826  000D46  0EC0               	movlw	low _CH3
  4827  000D48  24F3               	addwf	prodl,w,c
  4828  000D4A  6ED9               	movwf	fsr2l,c
  4829  000D4C  0E01               	movlw	high _CH3
  4830  000D4E  20F4               	addwfc	prodh,w,c
  4831  000D50  6EDA               	movwf	fsr2h,c
  4832  000D52  0101               	movlb	1	; () banked
  4833  000D54  A6DF               	btfss	indf2,3,c
  4834  000D56  D003               	goto	i2l3082
  4835                           
  4836                           ; BSR set to: 1
  4837  000D58  ECBE  F00D         	call	_um_3	;wreg free
  4838  000D5C  D002               	goto	i2l3084
  4839  000D5E                     i2l3082:
  4840  000D5E  EC30  F00E         	call	_zero_3	;wreg free
  4841  000D62                     i2l3084:
  4842                           
  4843                           ;app.c: 217: if( (CH3[idx_color1] & 4) > 0) um_3(); else zero_3();
  4844  000D62  501C               	movf	SendBuffCh3@idx_color1,w,c
  4845  000D64  0D01               	mullw	1
  4846  000D66  0EC0               	movlw	low _CH3
  4847  000D68  24F3               	addwf	prodl,w,c
  4848  000D6A  6ED9               	movwf	fsr2l,c
  4849  000D6C  0E01               	movlw	high _CH3
  4850  000D6E  20F4               	addwfc	prodh,w,c
  4851  000D70  6EDA               	movwf	fsr2h,c
  4852  000D72  0101               	movlb	1	; () banked
  4853  000D74  A4DF               	btfss	indf2,2,c
  4854  000D76  D003               	goto	i2l3088
  4855                           
  4856                           ; BSR set to: 1
  4857  000D78  ECBE  F00D         	call	_um_3	;wreg free
  4858  000D7C  D002               	goto	i2l3090
  4859  000D7E                     i2l3088:
  4860  000D7E  EC30  F00E         	call	_zero_3	;wreg free
  4861  000D82                     i2l3090:
  4862                           
  4863                           ;app.c: 218: if( (CH3[idx_color1] & 2) > 0) um_3(); else zero_3();
  4864  000D82  501C               	movf	SendBuffCh3@idx_color1,w,c
  4865  000D84  0D01               	mullw	1
  4866  000D86  0EC0               	movlw	low _CH3
  4867  000D88  24F3               	addwf	prodl,w,c
  4868  000D8A  6ED9               	movwf	fsr2l,c
  4869  000D8C  0E01               	movlw	high _CH3
  4870  000D8E  20F4               	addwfc	prodh,w,c
  4871  000D90  6EDA               	movwf	fsr2h,c
  4872  000D92  0101               	movlb	1	; () banked
  4873  000D94  A2DF               	btfss	indf2,1,c
  4874  000D96  D003               	goto	i2l3094
  4875                           
  4876                           ; BSR set to: 1
  4877  000D98  ECBE  F00D         	call	_um_3	;wreg free
  4878  000D9C  D002               	goto	i2l3096
  4879  000D9E                     i2l3094:
  4880  000D9E  EC30  F00E         	call	_zero_3	;wreg free
  4881  000DA2                     i2l3096:
  4882                           
  4883                           ;app.c: 219: if( (CH3[idx_color1] & 1) > 0) um_3(); else zero_3();
  4884  000DA2  501C               	movf	SendBuffCh3@idx_color1,w,c
  4885  000DA4  0D01               	mullw	1
  4886  000DA6  0EC0               	movlw	low _CH3
  4887  000DA8  24F3               	addwf	prodl,w,c
  4888  000DAA  6ED9               	movwf	fsr2l,c
  4889  000DAC  0E01               	movlw	high _CH3
  4890  000DAE  20F4               	addwfc	prodh,w,c
  4891  000DB0  6EDA               	movwf	fsr2h,c
  4892  000DB2  0101               	movlb	1	; () banked
  4893  000DB4  A0DF               	btfss	indf2,0,c
  4894  000DB6  D003               	goto	i2l3100
  4895                           
  4896                           ; BSR set to: 1
  4897  000DB8  ECBE  F00D         	call	_um_3	;wreg free
  4898  000DBC  D002               	goto	i2l3102
  4899  000DBE                     i2l3100:
  4900  000DBE  EC30  F00E         	call	_zero_3	;wreg free
  4901  000DC2                     i2l3102:
  4902                           
  4903                           ;app.c: 221: if( (CH3[idx_color2] & 128) > 0)um_3(); else zero_3();
  4904  000DC2  501A               	movf	SendBuffCh3@idx_color2,w,c
  4905  000DC4  0D01               	mullw	1
  4906  000DC6  0EC0               	movlw	low _CH3
  4907  000DC8  24F3               	addwf	prodl,w,c
  4908  000DCA  6ED9               	movwf	fsr2l,c
  4909  000DCC  0E01               	movlw	high _CH3
  4910  000DCE  20F4               	addwfc	prodh,w,c
  4911  000DD0  6EDA               	movwf	fsr2h,c
  4912  000DD2  0101               	movlb	1	; () banked
  4913  000DD4  AEDF               	btfss	indf2,7,c
  4914  000DD6  D003               	goto	i2l3106
  4915                           
  4916                           ; BSR set to: 1
  4917  000DD8  ECBE  F00D         	call	_um_3	;wreg free
  4918  000DDC  D002               	goto	i2l3108
  4919  000DDE                     i2l3106:
  4920  000DDE  EC30  F00E         	call	_zero_3	;wreg free
  4921  000DE2                     i2l3108:
  4922                           
  4923                           ;app.c: 222: if( (CH3[idx_color2] & 64) > 0) um_3(); else zero_3();
  4924  000DE2  501A               	movf	SendBuffCh3@idx_color2,w,c
  4925  000DE4  0D01               	mullw	1
  4926  000DE6  0EC0               	movlw	low _CH3
  4927  000DE8  24F3               	addwf	prodl,w,c
  4928  000DEA  6ED9               	movwf	fsr2l,c
  4929  000DEC  0E01               	movlw	high _CH3
  4930  000DEE  20F4               	addwfc	prodh,w,c
  4931  000DF0  6EDA               	movwf	fsr2h,c
  4932  000DF2  0101               	movlb	1	; () banked
  4933  000DF4  ACDF               	btfss	indf2,6,c
  4934  000DF6  D003               	goto	i2l3112
  4935                           
  4936                           ; BSR set to: 1
  4937  000DF8  ECBE  F00D         	call	_um_3	;wreg free
  4938  000DFC  D002               	goto	i2l3114
  4939  000DFE                     i2l3112:
  4940  000DFE  EC30  F00E         	call	_zero_3	;wreg free
  4941  000E02                     i2l3114:
  4942                           
  4943                           ;app.c: 223: if( (CH3[idx_color2] & 32) > 0) um_3(); else zero_3();
  4944  000E02  501A               	movf	SendBuffCh3@idx_color2,w,c
  4945  000E04  0D01               	mullw	1
  4946  000E06  0EC0               	movlw	low _CH3
  4947  000E08  24F3               	addwf	prodl,w,c
  4948  000E0A  6ED9               	movwf	fsr2l,c
  4949  000E0C  0E01               	movlw	high _CH3
  4950  000E0E  20F4               	addwfc	prodh,w,c
  4951  000E10  6EDA               	movwf	fsr2h,c
  4952  000E12  0101               	movlb	1	; () banked
  4953  000E14  AADF               	btfss	indf2,5,c
  4954  000E16  D003               	goto	i2l3118
  4955                           
  4956                           ; BSR set to: 1
  4957  000E18  ECBE  F00D         	call	_um_3	;wreg free
  4958  000E1C  D002               	goto	i2l3120
  4959  000E1E                     i2l3118:
  4960  000E1E  EC30  F00E         	call	_zero_3	;wreg free
  4961  000E22                     i2l3120:
  4962                           
  4963                           ;app.c: 224: if( (CH3[idx_color2] & 16) > 0) um_3(); else zero_3();
  4964  000E22  501A               	movf	SendBuffCh3@idx_color2,w,c
  4965  000E24  0D01               	mullw	1
  4966  000E26  0EC0               	movlw	low _CH3
  4967  000E28  24F3               	addwf	prodl,w,c
  4968  000E2A  6ED9               	movwf	fsr2l,c
  4969  000E2C  0E01               	movlw	high _CH3
  4970  000E2E  20F4               	addwfc	prodh,w,c
  4971  000E30  6EDA               	movwf	fsr2h,c
  4972  000E32  0101               	movlb	1	; () banked
  4973  000E34  A8DF               	btfss	indf2,4,c
  4974  000E36  D003               	goto	i2l3124
  4975                           
  4976                           ; BSR set to: 1
  4977  000E38  ECBE  F00D         	call	_um_3	;wreg free
  4978  000E3C  D002               	goto	i2l3126
  4979  000E3E                     i2l3124:
  4980  000E3E  EC30  F00E         	call	_zero_3	;wreg free
  4981  000E42                     i2l3126:
  4982                           
  4983                           ;app.c: 225: if( (CH3[idx_color2] & 8) > 0) um_3(); else zero_3();
  4984  000E42  501A               	movf	SendBuffCh3@idx_color2,w,c
  4985  000E44  0D01               	mullw	1
  4986  000E46  0EC0               	movlw	low _CH3
  4987  000E48  24F3               	addwf	prodl,w,c
  4988  000E4A  6ED9               	movwf	fsr2l,c
  4989  000E4C  0E01               	movlw	high _CH3
  4990  000E4E  20F4               	addwfc	prodh,w,c
  4991  000E50  6EDA               	movwf	fsr2h,c
  4992  000E52  0101               	movlb	1	; () banked
  4993  000E54  A6DF               	btfss	indf2,3,c
  4994  000E56  D003               	goto	i2l3130
  4995                           
  4996                           ; BSR set to: 1
  4997  000E58  ECBE  F00D         	call	_um_3	;wreg free
  4998  000E5C  D002               	goto	i2l3132
  4999  000E5E                     i2l3130:
  5000  000E5E  EC30  F00E         	call	_zero_3	;wreg free
  5001  000E62                     i2l3132:
  5002                           
  5003                           ;app.c: 226: if( (CH3[idx_color2] & 4) > 0) um_3(); else zero_3();
  5004  000E62  501A               	movf	SendBuffCh3@idx_color2,w,c
  5005  000E64  0D01               	mullw	1
  5006  000E66  0EC0               	movlw	low _CH3
  5007  000E68  24F3               	addwf	prodl,w,c
  5008  000E6A  6ED9               	movwf	fsr2l,c
  5009  000E6C  0E01               	movlw	high _CH3
  5010  000E6E  20F4               	addwfc	prodh,w,c
  5011  000E70  6EDA               	movwf	fsr2h,c
  5012  000E72  0101               	movlb	1	; () banked
  5013  000E74  A4DF               	btfss	indf2,2,c
  5014  000E76  D003               	goto	i2l3136
  5015                           
  5016                           ; BSR set to: 1
  5017  000E78  ECBE  F00D         	call	_um_3	;wreg free
  5018  000E7C  D002               	goto	i2l3138
  5019  000E7E                     i2l3136:
  5020  000E7E  EC30  F00E         	call	_zero_3	;wreg free
  5021  000E82                     i2l3138:
  5022                           
  5023                           ;app.c: 227: if( (CH3[idx_color2] & 2) > 0) um_3(); else zero_3();
  5024  000E82  501A               	movf	SendBuffCh3@idx_color2,w,c
  5025  000E84  0D01               	mullw	1
  5026  000E86  0EC0               	movlw	low _CH3
  5027  000E88  24F3               	addwf	prodl,w,c
  5028  000E8A  6ED9               	movwf	fsr2l,c
  5029  000E8C  0E01               	movlw	high _CH3
  5030  000E8E  20F4               	addwfc	prodh,w,c
  5031  000E90  6EDA               	movwf	fsr2h,c
  5032  000E92  0101               	movlb	1	; () banked
  5033  000E94  A2DF               	btfss	indf2,1,c
  5034  000E96  D003               	goto	i2l3142
  5035                           
  5036                           ; BSR set to: 1
  5037  000E98  ECBE  F00D         	call	_um_3	;wreg free
  5038  000E9C  D002               	goto	i2l3144
  5039  000E9E                     i2l3142:
  5040  000E9E  EC30  F00E         	call	_zero_3	;wreg free
  5041  000EA2                     i2l3144:
  5042                           
  5043                           ;app.c: 228: if( (CH3[idx_color2] & 1) > 0) um_3(); else zero_3();
  5044  000EA2  501A               	movf	SendBuffCh3@idx_color2,w,c
  5045  000EA4  0D01               	mullw	1
  5046  000EA6  0EC0               	movlw	low _CH3
  5047  000EA8  24F3               	addwf	prodl,w,c
  5048  000EAA  6ED9               	movwf	fsr2l,c
  5049  000EAC  0E01               	movlw	high _CH3
  5050  000EAE  20F4               	addwfc	prodh,w,c
  5051  000EB0  6EDA               	movwf	fsr2h,c
  5052  000EB2  0101               	movlb	1	; () banked
  5053  000EB4  A0DF               	btfss	indf2,0,c
  5054  000EB6  D003               	goto	i2l3148
  5055                           
  5056                           ; BSR set to: 1
  5057  000EB8  ECBE  F00D         	call	_um_3	;wreg free
  5058  000EBC  D002               	goto	i2l3150
  5059  000EBE                     i2l3148:
  5060  000EBE  EC30  F00E         	call	_zero_3	;wreg free
  5061  000EC2                     i2l3150:
  5062                           
  5063                           ;app.c: 230: if( (CH3[idx_color3] & 128) > 0)um_3(); else zero_3();
  5064  000EC2  501B               	movf	SendBuffCh3@idx_color3,w,c
  5065  000EC4  0D01               	mullw	1
  5066  000EC6  0EC0               	movlw	low _CH3
  5067  000EC8  24F3               	addwf	prodl,w,c
  5068  000ECA  6ED9               	movwf	fsr2l,c
  5069  000ECC  0E01               	movlw	high _CH3
  5070  000ECE  20F4               	addwfc	prodh,w,c
  5071  000ED0  6EDA               	movwf	fsr2h,c
  5072  000ED2  0101               	movlb	1	; () banked
  5073  000ED4  AEDF               	btfss	indf2,7,c
  5074  000ED6  D003               	goto	i2l3154
  5075                           
  5076                           ; BSR set to: 1
  5077  000ED8  ECBE  F00D         	call	_um_3	;wreg free
  5078  000EDC  D002               	goto	i2l3156
  5079  000EDE                     i2l3154:
  5080  000EDE  EC30  F00E         	call	_zero_3	;wreg free
  5081  000EE2                     i2l3156:
  5082                           
  5083                           ;app.c: 231: if( (CH3[idx_color3] & 64) > 0) um_3(); else zero_3();
  5084  000EE2  501B               	movf	SendBuffCh3@idx_color3,w,c
  5085  000EE4  0D01               	mullw	1
  5086  000EE6  0EC0               	movlw	low _CH3
  5087  000EE8  24F3               	addwf	prodl,w,c
  5088  000EEA  6ED9               	movwf	fsr2l,c
  5089  000EEC  0E01               	movlw	high _CH3
  5090  000EEE  20F4               	addwfc	prodh,w,c
  5091  000EF0  6EDA               	movwf	fsr2h,c
  5092  000EF2  0101               	movlb	1	; () banked
  5093  000EF4  ACDF               	btfss	indf2,6,c
  5094  000EF6  D003               	goto	i2l3160
  5095                           
  5096                           ; BSR set to: 1
  5097  000EF8  ECBE  F00D         	call	_um_3	;wreg free
  5098  000EFC  D002               	goto	i2l3162
  5099  000EFE                     i2l3160:
  5100  000EFE  EC30  F00E         	call	_zero_3	;wreg free
  5101  000F02                     i2l3162:
  5102                           
  5103                           ;app.c: 232: if( (CH3[idx_color3] & 32) > 0) um_3(); else zero_3();
  5104  000F02  501B               	movf	SendBuffCh3@idx_color3,w,c
  5105  000F04  0D01               	mullw	1
  5106  000F06  0EC0               	movlw	low _CH3
  5107  000F08  24F3               	addwf	prodl,w,c
  5108  000F0A  6ED9               	movwf	fsr2l,c
  5109  000F0C  0E01               	movlw	high _CH3
  5110  000F0E  20F4               	addwfc	prodh,w,c
  5111  000F10  6EDA               	movwf	fsr2h,c
  5112  000F12  0101               	movlb	1	; () banked
  5113  000F14  AADF               	btfss	indf2,5,c
  5114  000F16  D003               	goto	i2l3166
  5115                           
  5116                           ; BSR set to: 1
  5117  000F18  ECBE  F00D         	call	_um_3	;wreg free
  5118  000F1C  D002               	goto	i2l3168
  5119  000F1E                     i2l3166:
  5120  000F1E  EC30  F00E         	call	_zero_3	;wreg free
  5121  000F22                     i2l3168:
  5122                           
  5123                           ;app.c: 233: if( (CH3[idx_color3] & 16) > 0) um_3(); else zero_3();
  5124  000F22  501B               	movf	SendBuffCh3@idx_color3,w,c
  5125  000F24  0D01               	mullw	1
  5126  000F26  0EC0               	movlw	low _CH3
  5127  000F28  24F3               	addwf	prodl,w,c
  5128  000F2A  6ED9               	movwf	fsr2l,c
  5129  000F2C  0E01               	movlw	high _CH3
  5130  000F2E  20F4               	addwfc	prodh,w,c
  5131  000F30  6EDA               	movwf	fsr2h,c
  5132  000F32  0101               	movlb	1	; () banked
  5133  000F34  A8DF               	btfss	indf2,4,c
  5134  000F36  D003               	goto	i2l3172
  5135                           
  5136                           ; BSR set to: 1
  5137  000F38  ECBE  F00D         	call	_um_3	;wreg free
  5138  000F3C  D002               	goto	i2l3174
  5139  000F3E                     i2l3172:
  5140  000F3E  EC30  F00E         	call	_zero_3	;wreg free
  5141  000F42                     i2l3174:
  5142                           
  5143                           ;app.c: 234: if( (CH3[idx_color3] & 8) > 0) um_3(); else zero_3();
  5144  000F42  501B               	movf	SendBuffCh3@idx_color3,w,c
  5145  000F44  0D01               	mullw	1
  5146  000F46  0EC0               	movlw	low _CH3
  5147  000F48  24F3               	addwf	prodl,w,c
  5148  000F4A  6ED9               	movwf	fsr2l,c
  5149  000F4C  0E01               	movlw	high _CH3
  5150  000F4E  20F4               	addwfc	prodh,w,c
  5151  000F50  6EDA               	movwf	fsr2h,c
  5152  000F52  0101               	movlb	1	; () banked
  5153  000F54  A6DF               	btfss	indf2,3,c
  5154  000F56  D003               	goto	i2l3178
  5155                           
  5156                           ; BSR set to: 1
  5157  000F58  ECBE  F00D         	call	_um_3	;wreg free
  5158  000F5C  D002               	goto	i2l3180
  5159  000F5E                     i2l3178:
  5160  000F5E  EC30  F00E         	call	_zero_3	;wreg free
  5161  000F62                     i2l3180:
  5162                           
  5163                           ;app.c: 235: if( (CH3[idx_color3] & 4) > 0) um_3(); else zero_3();
  5164  000F62  501B               	movf	SendBuffCh3@idx_color3,w,c
  5165  000F64  0D01               	mullw	1
  5166  000F66  0EC0               	movlw	low _CH3
  5167  000F68  24F3               	addwf	prodl,w,c
  5168  000F6A  6ED9               	movwf	fsr2l,c
  5169  000F6C  0E01               	movlw	high _CH3
  5170  000F6E  20F4               	addwfc	prodh,w,c
  5171  000F70  6EDA               	movwf	fsr2h,c
  5172  000F72  0101               	movlb	1	; () banked
  5173  000F74  A4DF               	btfss	indf2,2,c
  5174  000F76  D003               	goto	i2l3184
  5175                           
  5176                           ; BSR set to: 1
  5177  000F78  ECBE  F00D         	call	_um_3	;wreg free
  5178  000F7C  D002               	goto	i2l3186
  5179  000F7E                     i2l3184:
  5180  000F7E  EC30  F00E         	call	_zero_3	;wreg free
  5181  000F82                     i2l3186:
  5182                           
  5183                           ;app.c: 236: if( (CH3[idx_color3] & 2) > 0) um_3(); else zero_3();
  5184  000F82  501B               	movf	SendBuffCh3@idx_color3,w,c
  5185  000F84  0D01               	mullw	1
  5186  000F86  0EC0               	movlw	low _CH3
  5187  000F88  24F3               	addwf	prodl,w,c
  5188  000F8A  6ED9               	movwf	fsr2l,c
  5189  000F8C  0E01               	movlw	high _CH3
  5190  000F8E  20F4               	addwfc	prodh,w,c
  5191  000F90  6EDA               	movwf	fsr2h,c
  5192  000F92  0101               	movlb	1	; () banked
  5193  000F94  A2DF               	btfss	indf2,1,c
  5194  000F96  D003               	goto	i2l3190
  5195                           
  5196                           ; BSR set to: 1
  5197  000F98  ECBE  F00D         	call	_um_3	;wreg free
  5198  000F9C  D002               	goto	i2l3192
  5199  000F9E                     i2l3190:
  5200  000F9E  EC30  F00E         	call	_zero_3	;wreg free
  5201  000FA2                     i2l3192:
  5202                           
  5203                           ;app.c: 237: if( (CH3[idx_color3] & 1) > 0) um_3(); else zero_3();
  5204  000FA2  501B               	movf	SendBuffCh3@idx_color3,w,c
  5205  000FA4  0D01               	mullw	1
  5206  000FA6  0EC0               	movlw	low _CH3
  5207  000FA8  24F3               	addwf	prodl,w,c
  5208  000FAA  6ED9               	movwf	fsr2l,c
  5209  000FAC  0E01               	movlw	high _CH3
  5210  000FAE  20F4               	addwfc	prodh,w,c
  5211  000FB0  6EDA               	movwf	fsr2h,c
  5212  000FB2  0101               	movlb	1	; () banked
  5213  000FB4  A0DF               	btfss	indf2,0,c
  5214  000FB6  D003               	goto	i2l3196
  5215                           
  5216                           ; BSR set to: 1
  5217  000FB8  ECBE  F00D         	call	_um_3	;wreg free
  5218  000FBC  0012               	return	
  5219  000FBE                     i2l3196:
  5220  000FBE  EC30  F00E         	call	_zero_3	;wreg free
  5221  000FC2  0012               	return	
  5222  000FC4                     __end_of_SendBuffCh3:
  5223                           	opt stack 0
  5224                           pclatu	equ	0xFFB
  5225                           pclath	equ	0xFFA
  5226                           tblptru	equ	0xFF8
  5227                           tblptrh	equ	0xFF7
  5228                           tblptrl	equ	0xFF6
  5229                           tablat	equ	0xFF5
  5230                           prodh	equ	0xFF4
  5231                           prodl	equ	0xFF3
  5232                           intcon	equ	0xFF2
  5233                           intcon2	equ	0xFF1
  5234                           postinc0	equ	0xFEE
  5235                           fsr0h	equ	0xFEA
  5236                           fsr0l	equ	0xFE9
  5237                           wreg	equ	0xFE8
  5238                           postdec1	equ	0xFE5
  5239                           fsr1h	equ	0xFE2
  5240                           fsr1l	equ	0xFE1
  5241                           indf2	equ	0xFDF
  5242                           fsr2h	equ	0xFDA
  5243                           fsr2l	equ	0xFD9
  5244                           status	equ	0xFD8
  5245                           
  5246 ;; *************** function _zero_3 *****************
  5247 ;; Defined at:
  5248 ;;		line 117 in file "mcc_generated_files/app.c"
  5249 ;; Parameters:    Size  Location     Type
  5250 ;;		None
  5251 ;; Auto vars:     Size  Location     Type
  5252 ;;		None
  5253 ;; Return value:  Size  Location     Type
  5254 ;;                  1    wreg      void 
  5255 ;; Registers used:
  5256 ;;		None
  5257 ;; Tracked objects:
  5258 ;;		On entry : 0/0
  5259 ;;		On exit  : 0/0
  5260 ;;		Unchanged: 0/0
  5261 ;; Data sizes:     COMRAM   BANK0   BANK1   BANK2   BANK3   BANK4   BANK5
  5262 ;;      Params:         0       0       0       0       0       0       0
  5263 ;;      Locals:         0       0       0       0       0       0       0
  5264 ;;      Temps:          0       0       0       0       0       0       0
  5265 ;;      Totals:         0       0       0       0       0       0       0
  5266 ;;Total ram usage:        0 bytes
  5267 ;; Hardware stack levels used:    1
  5268 ;; This function calls:
  5269 ;;		Nothing
  5270 ;; This function is called by:
  5271 ;;		_SendBuffCh3
  5272 ;; This function uses a non-reentrant model
  5273 ;;
  5274                           
  5275                           	psect	text28
  5276  001C60                     __ptext28:
  5277                           	opt stack 0
  5278  001C60                     _zero_3:
  5279                           	opt stack 21
  5280                           
  5281                           ;incstack = 0
  5282  001C60  848A               	bsf	3978,2,c	;volatile
  5283  001C62  F000               	nop	
  5284  001C64  F000               	nop	
  5285  001C66  F000               	nop	
  5286  001C68  F000               	nop	
  5287  001C6A  F000               	nop	
  5288  001C6C  F000               	nop	
  5289                           
  5290                           ;app.c: 118: LATB2 = 0; __nop();__nop();__nop();__nop();__nop();__nop(); }
  5291  001C6E  948A               	bcf	3978,2,c	;volatile
  5292  001C70  F000               	nop	
  5293  001C72  F000               	nop	
  5294  001C74  F000               	nop	
  5295  001C76  F000               	nop	
  5296  001C78  F000               	nop	
  5297  001C7A  F000               	nop	
  5298  001C7C  0012               	return		;funcret
  5299  001C7E                     __end_of_zero_3:
  5300                           	opt stack 0
  5301                           pclatu	equ	0xFFB
  5302                           pclath	equ	0xFFA
  5303                           tblptru	equ	0xFF8
  5304                           tblptrh	equ	0xFF7
  5305                           tblptrl	equ	0xFF6
  5306                           tablat	equ	0xFF5
  5307                           prodh	equ	0xFF4
  5308                           prodl	equ	0xFF3
  5309                           intcon	equ	0xFF2
  5310                           intcon2	equ	0xFF1
  5311                           postinc0	equ	0xFEE
  5312                           fsr0h	equ	0xFEA
  5313                           fsr0l	equ	0xFE9
  5314                           wreg	equ	0xFE8
  5315                           postdec1	equ	0xFE5
  5316                           fsr1h	equ	0xFE2
  5317                           fsr1l	equ	0xFE1
  5318                           indf2	equ	0xFDF
  5319                           fsr2h	equ	0xFDA
  5320                           fsr2l	equ	0xFD9
  5321                           status	equ	0xFD8
  5322                           
  5323 ;; *************** function _um_3 *****************
  5324 ;; Defined at:
  5325 ;;		line 113 in file "mcc_generated_files/app.c"
  5326 ;; Parameters:    Size  Location     Type
  5327 ;;		None
  5328 ;; Auto vars:     Size  Location     Type
  5329 ;;		None
  5330 ;; Return value:  Size  Location     Type
  5331 ;;                  1    wreg      void 
  5332 ;; Registers used:
  5333 ;;		None
  5334 ;; Tracked objects:
  5335 ;;		On entry : 0/0
  5336 ;;		On exit  : 0/0
  5337 ;;		Unchanged: 0/0
  5338 ;; Data sizes:     COMRAM   BANK0   BANK1   BANK2   BANK3   BANK4   BANK5
  5339 ;;      Params:         0       0       0       0       0       0       0
  5340 ;;      Locals:         0       0       0       0       0       0       0
  5341 ;;      Temps:          0       0       0       0       0       0       0
  5342 ;;      Totals:         0       0       0       0       0       0       0
  5343 ;;Total ram usage:        0 bytes
  5344 ;; Hardware stack levels used:    1
  5345 ;; This function calls:
  5346 ;;		Nothing
  5347 ;; This function is called by:
  5348 ;;		_SendBuffCh3
  5349 ;; This function uses a non-reentrant model
  5350 ;;
  5351                           
  5352                           	psect	text29
  5353  001B7C                     __ptext29:
  5354                           	opt stack 0
  5355  001B7C                     _um_3:
  5356                           	opt stack 21
  5357                           
  5358                           ;incstack = 0
  5359  001B7C  848A               	bsf	3978,2,c	;volatile
  5360  001B7E  F000               	nop	
  5361  001B80  F000               	nop	
  5362  001B82  F000               	nop	
  5363  001B84  F000               	nop	
  5364  001B86  F000               	nop	
  5365  001B88  F000               	nop	
  5366                           
  5367                           ;app.c: 114: __nop();__nop();__nop();__nop();__nop();__nop();
  5368  001B8A  F000               	nop	
  5369  001B8C  F000               	nop	
  5370  001B8E  F000               	nop	
  5371  001B90  F000               	nop	
  5372  001B92  F000               	nop	
  5373  001B94  F000               	nop	
  5374                           
  5375                           ;app.c: 115: __nop();__nop();__nop(); LATB2 = 0;
  5376  001B96  F000               	nop	
  5377  001B98  F000               	nop	
  5378  001B9A  F000               	nop	
  5379  001B9C  948A               	bcf	3978,2,c	;volatile
  5380  001B9E  0012               	return		;funcret
  5381  001BA0                     __end_of_um_3:
  5382                           	opt stack 0
  5383                           pclatu	equ	0xFFB
  5384                           pclath	equ	0xFFA
  5385                           tblptru	equ	0xFF8
  5386                           tblptrh	equ	0xFF7
  5387                           tblptrl	equ	0xFF6
  5388                           tablat	equ	0xFF5
  5389                           prodh	equ	0xFF4
  5390                           prodl	equ	0xFF3
  5391                           intcon	equ	0xFF2
  5392                           intcon2	equ	0xFF1
  5393                           postinc0	equ	0xFEE
  5394                           fsr0h	equ	0xFEA
  5395                           fsr0l	equ	0xFE9
  5396                           wreg	equ	0xFE8
  5397                           postdec1	equ	0xFE5
  5398                           fsr1h	equ	0xFE2
  5399                           fsr1l	equ	0xFE1
  5400                           indf2	equ	0xFDF
  5401                           fsr2h	equ	0xFDA
  5402                           fsr2l	equ	0xFD9
  5403                           status	equ	0xFD8
  5404                           
  5405 ;; *************** function _SendBuffCh2 *****************
  5406 ;; Defined at:
  5407 ;;		line 179 in file "mcc_generated_files/app.c"
  5408 ;; Parameters:    Size  Location     Type
  5409 ;;  idx_color1      1    wreg     unsigned char 
  5410 ;;  idx_color2      1    0[COMRAM] unsigned char 
  5411 ;;  idx_color3      1    1[COMRAM] unsigned char 
  5412 ;; Auto vars:     Size  Location     Type
  5413 ;;  idx_color1      1    2[COMRAM] unsigned char 
  5414 ;; Return value:  Size  Location     Type
  5415 ;;                  1    wreg      void 
  5416 ;; Registers used:
  5417 ;;		wreg, fsr2l, fsr2h, status,2, status,0, prodl, prodh, cstack
  5418 ;; Tracked objects:
  5419 ;;		On entry : 0/0
  5420 ;;		On exit  : 0/0
  5421 ;;		Unchanged: 0/0
  5422 ;; Data sizes:     COMRAM   BANK0   BANK1   BANK2   BANK3   BANK4   BANK5
  5423 ;;      Params:         2       0       0       0       0       0       0
  5424 ;;      Locals:         1       0       0       0       0       0       0
  5425 ;;      Temps:          0       0       0       0       0       0       0
  5426 ;;      Totals:         3       0       0       0       0       0       0
  5427 ;;Total ram usage:        3 bytes
  5428 ;; Hardware stack levels used:    1
  5429 ;; Hardware stack levels required when called:    1
  5430 ;; This function calls:
  5431 ;;		_um_2
  5432 ;;		_zero_2
  5433 ;; This function is called by:
  5434 ;;		_AppTimer1ms
  5435 ;; This function uses a non-reentrant model
  5436 ;;
  5437                           
  5438                           	psect	text30
  5439  000FC4                     __ptext30:
  5440                           	opt stack 0
  5441  000FC4                     _SendBuffCh2:
  5442                           	opt stack 21
  5443                           
  5444                           ;incstack = 0
  5445                           ;SendBuffCh2@idx_color1 stored from wreg
  5446  000FC4  6E1C               	movwf	SendBuffCh2@idx_color1,c
  5447                           
  5448                           ;app.c: 181: if( (CH2[idx_color1] & 128) > 0)um_2(); else zero_2();
  5449  000FC6  501C               	movf	SendBuffCh2@idx_color1,w,c
  5450  000FC8  0D01               	mullw	1
  5451  000FCA  0E60               	movlw	low _CH2
  5452  000FCC  24F3               	addwf	prodl,w,c
  5453  000FCE  6ED9               	movwf	fsr2l,c
  5454  000FD0  0E00               	movlw	high _CH2
  5455  000FD2  20F4               	addwfc	prodh,w,c
  5456  000FD4  6EDA               	movwf	fsr2h,c
  5457  000FD6  0100               	movlb	0	; () banked
  5458  000FD8  AEDF               	btfss	indf2,7,c
  5459  000FDA  D003               	goto	i2l2914
  5460                           
  5461                           ; BSR set to: 0
  5462  000FDC  ECD0  F00D         	call	_um_2	;wreg free
  5463  000FE0  D002               	goto	i2l2916
  5464  000FE2                     i2l2914:
  5465  000FE2  EC3F  F00E         	call	_zero_2	;wreg free
  5466  000FE6                     i2l2916:
  5467                           
  5468                           ;app.c: 182: if( (CH2[idx_color1] & 64) > 0) um_2(); else zero_2();
  5469  000FE6  501C               	movf	SendBuffCh2@idx_color1,w,c
  5470  000FE8  0D01               	mullw	1
  5471  000FEA  0E60               	movlw	low _CH2
  5472  000FEC  24F3               	addwf	prodl,w,c
  5473  000FEE  6ED9               	movwf	fsr2l,c
  5474  000FF0  0E00               	movlw	high _CH2
  5475  000FF2  20F4               	addwfc	prodh,w,c
  5476  000FF4  6EDA               	movwf	fsr2h,c
  5477  000FF6  0100               	movlb	0	; () banked
  5478  000FF8  ACDF               	btfss	indf2,6,c
  5479  000FFA  D003               	goto	i2l2920
  5480                           
  5481                           ; BSR set to: 0
  5482  000FFC  ECD0  F00D         	call	_um_2	;wreg free
  5483  001000  D002               	goto	i2l2922
  5484  001002                     i2l2920:
  5485  001002  EC3F  F00E         	call	_zero_2	;wreg free
  5486  001006                     i2l2922:
  5487                           
  5488                           ;app.c: 183: if( (CH2[idx_color1] & 32) > 0) um_2(); else zero_2();
  5489  001006  501C               	movf	SendBuffCh2@idx_color1,w,c
  5490  001008  0D01               	mullw	1
  5491  00100A  0E60               	movlw	low _CH2
  5492  00100C  24F3               	addwf	prodl,w,c
  5493  00100E  6ED9               	movwf	fsr2l,c
  5494  001010  0E00               	movlw	high _CH2
  5495  001012  20F4               	addwfc	prodh,w,c
  5496  001014  6EDA               	movwf	fsr2h,c
  5497  001016  0100               	movlb	0	; () banked
  5498  001018  AADF               	btfss	indf2,5,c
  5499  00101A  D003               	goto	i2l2926
  5500                           
  5501                           ; BSR set to: 0
  5502  00101C  ECD0  F00D         	call	_um_2	;wreg free
  5503  001020  D002               	goto	i2l2928
  5504  001022                     i2l2926:
  5505  001022  EC3F  F00E         	call	_zero_2	;wreg free
  5506  001026                     i2l2928:
  5507                           
  5508                           ;app.c: 184: if( (CH2[idx_color1] & 16) > 0) um_2(); else zero_2();
  5509  001026  501C               	movf	SendBuffCh2@idx_color1,w,c
  5510  001028  0D01               	mullw	1
  5511  00102A  0E60               	movlw	low _CH2
  5512  00102C  24F3               	addwf	prodl,w,c
  5513  00102E  6ED9               	movwf	fsr2l,c
  5514  001030  0E00               	movlw	high _CH2
  5515  001032  20F4               	addwfc	prodh,w,c
  5516  001034  6EDA               	movwf	fsr2h,c
  5517  001036  0100               	movlb	0	; () banked
  5518  001038  A8DF               	btfss	indf2,4,c
  5519  00103A  D003               	goto	i2l2932
  5520                           
  5521                           ; BSR set to: 0
  5522  00103C  ECD0  F00D         	call	_um_2	;wreg free
  5523  001040  D002               	goto	i2l2934
  5524  001042                     i2l2932:
  5525  001042  EC3F  F00E         	call	_zero_2	;wreg free
  5526  001046                     i2l2934:
  5527                           
  5528                           ;app.c: 185: if( (CH2[idx_color1] & 8) > 0) um_2(); else zero_2();
  5529  001046  501C               	movf	SendBuffCh2@idx_color1,w,c
  5530  001048  0D01               	mullw	1
  5531  00104A  0E60               	movlw	low _CH2
  5532  00104C  24F3               	addwf	prodl,w,c
  5533  00104E  6ED9               	movwf	fsr2l,c
  5534  001050  0E00               	movlw	high _CH2
  5535  001052  20F4               	addwfc	prodh,w,c
  5536  001054  6EDA               	movwf	fsr2h,c
  5537  001056  0100               	movlb	0	; () banked
  5538  001058  A6DF               	btfss	indf2,3,c
  5539  00105A  D003               	goto	i2l2938
  5540                           
  5541                           ; BSR set to: 0
  5542  00105C  ECD0  F00D         	call	_um_2	;wreg free
  5543  001060  D002               	goto	i2l2940
  5544  001062                     i2l2938:
  5545  001062  EC3F  F00E         	call	_zero_2	;wreg free
  5546  001066                     i2l2940:
  5547                           
  5548                           ;app.c: 186: if( (CH2[idx_color1] & 4) > 0) um_2(); else zero_2();
  5549  001066  501C               	movf	SendBuffCh2@idx_color1,w,c
  5550  001068  0D01               	mullw	1
  5551  00106A  0E60               	movlw	low _CH2
  5552  00106C  24F3               	addwf	prodl,w,c
  5553  00106E  6ED9               	movwf	fsr2l,c
  5554  001070  0E00               	movlw	high _CH2
  5555  001072  20F4               	addwfc	prodh,w,c
  5556  001074  6EDA               	movwf	fsr2h,c
  5557  001076  0100               	movlb	0	; () banked
  5558  001078  A4DF               	btfss	indf2,2,c
  5559  00107A  D003               	goto	i2l2944
  5560                           
  5561                           ; BSR set to: 0
  5562  00107C  ECD0  F00D         	call	_um_2	;wreg free
  5563  001080  D002               	goto	i2l2946
  5564  001082                     i2l2944:
  5565  001082  EC3F  F00E         	call	_zero_2	;wreg free
  5566  001086                     i2l2946:
  5567                           
  5568                           ;app.c: 187: if( (CH2[idx_color1] & 2) > 0) um_2(); else zero_2();
  5569  001086  501C               	movf	SendBuffCh2@idx_color1,w,c
  5570  001088  0D01               	mullw	1
  5571  00108A  0E60               	movlw	low _CH2
  5572  00108C  24F3               	addwf	prodl,w,c
  5573  00108E  6ED9               	movwf	fsr2l,c
  5574  001090  0E00               	movlw	high _CH2
  5575  001092  20F4               	addwfc	prodh,w,c
  5576  001094  6EDA               	movwf	fsr2h,c
  5577  001096  0100               	movlb	0	; () banked
  5578  001098  A2DF               	btfss	indf2,1,c
  5579  00109A  D003               	goto	i2l2950
  5580                           
  5581                           ; BSR set to: 0
  5582  00109C  ECD0  F00D         	call	_um_2	;wreg free
  5583  0010A0  D002               	goto	i2l2952
  5584  0010A2                     i2l2950:
  5585  0010A2  EC3F  F00E         	call	_zero_2	;wreg free
  5586  0010A6                     i2l2952:
  5587                           
  5588                           ;app.c: 188: if( (CH2[idx_color1] & 1) > 0) um_2(); else zero_2();
  5589  0010A6  501C               	movf	SendBuffCh2@idx_color1,w,c
  5590  0010A8  0D01               	mullw	1
  5591  0010AA  0E60               	movlw	low _CH2
  5592  0010AC  24F3               	addwf	prodl,w,c
  5593  0010AE  6ED9               	movwf	fsr2l,c
  5594  0010B0  0E00               	movlw	high _CH2
  5595  0010B2  20F4               	addwfc	prodh,w,c
  5596  0010B4  6EDA               	movwf	fsr2h,c
  5597  0010B6  0100               	movlb	0	; () banked
  5598  0010B8  A0DF               	btfss	indf2,0,c
  5599  0010BA  D003               	goto	i2l2956
  5600                           
  5601                           ; BSR set to: 0
  5602  0010BC  ECD0  F00D         	call	_um_2	;wreg free
  5603  0010C0  D002               	goto	i2l2958
  5604  0010C2                     i2l2956:
  5605  0010C2  EC3F  F00E         	call	_zero_2	;wreg free
  5606  0010C6                     i2l2958:
  5607                           
  5608                           ;app.c: 190: if( (CH2[idx_color2] & 128) > 0)um_2(); else zero_2();
  5609  0010C6  501A               	movf	SendBuffCh2@idx_color2,w,c
  5610  0010C8  0D01               	mullw	1
  5611  0010CA  0E60               	movlw	low _CH2
  5612  0010CC  24F3               	addwf	prodl,w,c
  5613  0010CE  6ED9               	movwf	fsr2l,c
  5614  0010D0  0E00               	movlw	high _CH2
  5615  0010D2  20F4               	addwfc	prodh,w,c
  5616  0010D4  6EDA               	movwf	fsr2h,c
  5617  0010D6  0100               	movlb	0	; () banked
  5618  0010D8  AEDF               	btfss	indf2,7,c
  5619  0010DA  D003               	goto	i2l2962
  5620                           
  5621                           ; BSR set to: 0
  5622  0010DC  ECD0  F00D         	call	_um_2	;wreg free
  5623  0010E0  D002               	goto	i2l2964
  5624  0010E2                     i2l2962:
  5625  0010E2  EC3F  F00E         	call	_zero_2	;wreg free
  5626  0010E6                     i2l2964:
  5627                           
  5628                           ;app.c: 191: if( (CH2[idx_color2] & 64) > 0) um_2(); else zero_2();
  5629  0010E6  501A               	movf	SendBuffCh2@idx_color2,w,c
  5630  0010E8  0D01               	mullw	1
  5631  0010EA  0E60               	movlw	low _CH2
  5632  0010EC  24F3               	addwf	prodl,w,c
  5633  0010EE  6ED9               	movwf	fsr2l,c
  5634  0010F0  0E00               	movlw	high _CH2
  5635  0010F2  20F4               	addwfc	prodh,w,c
  5636  0010F4  6EDA               	movwf	fsr2h,c
  5637  0010F6  0100               	movlb	0	; () banked
  5638  0010F8  ACDF               	btfss	indf2,6,c
  5639  0010FA  D003               	goto	i2l2968
  5640                           
  5641                           ; BSR set to: 0
  5642  0010FC  ECD0  F00D         	call	_um_2	;wreg free
  5643  001100  D002               	goto	i2l2970
  5644  001102                     i2l2968:
  5645  001102  EC3F  F00E         	call	_zero_2	;wreg free
  5646  001106                     i2l2970:
  5647                           
  5648                           ;app.c: 192: if( (CH2[idx_color2] & 32) > 0) um_2(); else zero_2();
  5649  001106  501A               	movf	SendBuffCh2@idx_color2,w,c
  5650  001108  0D01               	mullw	1
  5651  00110A  0E60               	movlw	low _CH2
  5652  00110C  24F3               	addwf	prodl,w,c
  5653  00110E  6ED9               	movwf	fsr2l,c
  5654  001110  0E00               	movlw	high _CH2
  5655  001112  20F4               	addwfc	prodh,w,c
  5656  001114  6EDA               	movwf	fsr2h,c
  5657  001116  0100               	movlb	0	; () banked
  5658  001118  AADF               	btfss	indf2,5,c
  5659  00111A  D003               	goto	i2l2974
  5660                           
  5661                           ; BSR set to: 0
  5662  00111C  ECD0  F00D         	call	_um_2	;wreg free
  5663  001120  D002               	goto	i2l2976
  5664  001122                     i2l2974:
  5665  001122  EC3F  F00E         	call	_zero_2	;wreg free
  5666  001126                     i2l2976:
  5667                           
  5668                           ;app.c: 193: if( (CH2[idx_color2] & 16) > 0) um_2(); else zero_2();
  5669  001126  501A               	movf	SendBuffCh2@idx_color2,w,c
  5670  001128  0D01               	mullw	1
  5671  00112A  0E60               	movlw	low _CH2
  5672  00112C  24F3               	addwf	prodl,w,c
  5673  00112E  6ED9               	movwf	fsr2l,c
  5674  001130  0E00               	movlw	high _CH2
  5675  001132  20F4               	addwfc	prodh,w,c
  5676  001134  6EDA               	movwf	fsr2h,c
  5677  001136  0100               	movlb	0	; () banked
  5678  001138  A8DF               	btfss	indf2,4,c
  5679  00113A  D003               	goto	i2l2980
  5680                           
  5681                           ; BSR set to: 0
  5682  00113C  ECD0  F00D         	call	_um_2	;wreg free
  5683  001140  D002               	goto	i2l2982
  5684  001142                     i2l2980:
  5685  001142  EC3F  F00E         	call	_zero_2	;wreg free
  5686  001146                     i2l2982:
  5687                           
  5688                           ;app.c: 194: if( (CH2[idx_color2] & 8) > 0) um_2(); else zero_2();
  5689  001146  501A               	movf	SendBuffCh2@idx_color2,w,c
  5690  001148  0D01               	mullw	1
  5691  00114A  0E60               	movlw	low _CH2
  5692  00114C  24F3               	addwf	prodl,w,c
  5693  00114E  6ED9               	movwf	fsr2l,c
  5694  001150  0E00               	movlw	high _CH2
  5695  001152  20F4               	addwfc	prodh,w,c
  5696  001154  6EDA               	movwf	fsr2h,c
  5697  001156  0100               	movlb	0	; () banked
  5698  001158  A6DF               	btfss	indf2,3,c
  5699  00115A  D003               	goto	i2l2986
  5700                           
  5701                           ; BSR set to: 0
  5702  00115C  ECD0  F00D         	call	_um_2	;wreg free
  5703  001160  D002               	goto	i2l2988
  5704  001162                     i2l2986:
  5705  001162  EC3F  F00E         	call	_zero_2	;wreg free
  5706  001166                     i2l2988:
  5707                           
  5708                           ;app.c: 195: if( (CH2[idx_color2] & 4) > 0) um_2(); else zero_2();
  5709  001166  501A               	movf	SendBuffCh2@idx_color2,w,c
  5710  001168  0D01               	mullw	1
  5711  00116A  0E60               	movlw	low _CH2
  5712  00116C  24F3               	addwf	prodl,w,c
  5713  00116E  6ED9               	movwf	fsr2l,c
  5714  001170  0E00               	movlw	high _CH2
  5715  001172  20F4               	addwfc	prodh,w,c
  5716  001174  6EDA               	movwf	fsr2h,c
  5717  001176  0100               	movlb	0	; () banked
  5718  001178  A4DF               	btfss	indf2,2,c
  5719  00117A  D003               	goto	i2l2992
  5720                           
  5721                           ; BSR set to: 0
  5722  00117C  ECD0  F00D         	call	_um_2	;wreg free
  5723  001180  D002               	goto	i2l2994
  5724  001182                     i2l2992:
  5725  001182  EC3F  F00E         	call	_zero_2	;wreg free
  5726  001186                     i2l2994:
  5727                           
  5728                           ;app.c: 196: if( (CH2[idx_color2] & 2) > 0) um_2(); else zero_2();
  5729  001186  501A               	movf	SendBuffCh2@idx_color2,w,c
  5730  001188  0D01               	mullw	1
  5731  00118A  0E60               	movlw	low _CH2
  5732  00118C  24F3               	addwf	prodl,w,c
  5733  00118E  6ED9               	movwf	fsr2l,c
  5734  001190  0E00               	movlw	high _CH2
  5735  001192  20F4               	addwfc	prodh,w,c
  5736  001194  6EDA               	movwf	fsr2h,c
  5737  001196  0100               	movlb	0	; () banked
  5738  001198  A2DF               	btfss	indf2,1,c
  5739  00119A  D003               	goto	i2l2998
  5740                           
  5741                           ; BSR set to: 0
  5742  00119C  ECD0  F00D         	call	_um_2	;wreg free
  5743  0011A0  D002               	goto	i2l3000
  5744  0011A2                     i2l2998:
  5745  0011A2  EC3F  F00E         	call	_zero_2	;wreg free
  5746  0011A6                     i2l3000:
  5747                           
  5748                           ;app.c: 197: if( (CH2[idx_color2] & 1) > 0) um_2(); else zero_2();
  5749  0011A6  501A               	movf	SendBuffCh2@idx_color2,w,c
  5750  0011A8  0D01               	mullw	1
  5751  0011AA  0E60               	movlw	low _CH2
  5752  0011AC  24F3               	addwf	prodl,w,c
  5753  0011AE  6ED9               	movwf	fsr2l,c
  5754  0011B0  0E00               	movlw	high _CH2
  5755  0011B2  20F4               	addwfc	prodh,w,c
  5756  0011B4  6EDA               	movwf	fsr2h,c
  5757  0011B6  0100               	movlb	0	; () banked
  5758  0011B8  A0DF               	btfss	indf2,0,c
  5759  0011BA  D003               	goto	i2l3004
  5760                           
  5761                           ; BSR set to: 0
  5762  0011BC  ECD0  F00D         	call	_um_2	;wreg free
  5763  0011C0  D002               	goto	i2l3006
  5764  0011C2                     i2l3004:
  5765  0011C2  EC3F  F00E         	call	_zero_2	;wreg free
  5766  0011C6                     i2l3006:
  5767                           
  5768                           ;app.c: 199: if( (CH2[idx_color3] & 128) > 0)um_2(); else zero_2();
  5769  0011C6  501B               	movf	SendBuffCh2@idx_color3,w,c
  5770  0011C8  0D01               	mullw	1
  5771  0011CA  0E60               	movlw	low _CH2
  5772  0011CC  24F3               	addwf	prodl,w,c
  5773  0011CE  6ED9               	movwf	fsr2l,c
  5774  0011D0  0E00               	movlw	high _CH2
  5775  0011D2  20F4               	addwfc	prodh,w,c
  5776  0011D4  6EDA               	movwf	fsr2h,c
  5777  0011D6  0100               	movlb	0	; () banked
  5778  0011D8  AEDF               	btfss	indf2,7,c
  5779  0011DA  D003               	goto	i2l3010
  5780                           
  5781                           ; BSR set to: 0
  5782  0011DC  ECD0  F00D         	call	_um_2	;wreg free
  5783  0011E0  D002               	goto	i2l3012
  5784  0011E2                     i2l3010:
  5785  0011E2  EC3F  F00E         	call	_zero_2	;wreg free
  5786  0011E6                     i2l3012:
  5787                           
  5788                           ;app.c: 200: if( (CH2[idx_color3] & 64) > 0) um_2(); else zero_2();
  5789  0011E6  501B               	movf	SendBuffCh2@idx_color3,w,c
  5790  0011E8  0D01               	mullw	1
  5791  0011EA  0E60               	movlw	low _CH2
  5792  0011EC  24F3               	addwf	prodl,w,c
  5793  0011EE  6ED9               	movwf	fsr2l,c
  5794  0011F0  0E00               	movlw	high _CH2
  5795  0011F2  20F4               	addwfc	prodh,w,c
  5796  0011F4  6EDA               	movwf	fsr2h,c
  5797  0011F6  0100               	movlb	0	; () banked
  5798  0011F8  ACDF               	btfss	indf2,6,c
  5799  0011FA  D003               	goto	i2l3016
  5800                           
  5801                           ; BSR set to: 0
  5802  0011FC  ECD0  F00D         	call	_um_2	;wreg free
  5803  001200  D002               	goto	i2l3018
  5804  001202                     i2l3016:
  5805  001202  EC3F  F00E         	call	_zero_2	;wreg free
  5806  001206                     i2l3018:
  5807                           
  5808                           ;app.c: 201: if( (CH2[idx_color3] & 32) > 0) um_2(); else zero_2();
  5809  001206  501B               	movf	SendBuffCh2@idx_color3,w,c
  5810  001208  0D01               	mullw	1
  5811  00120A  0E60               	movlw	low _CH2
  5812  00120C  24F3               	addwf	prodl,w,c
  5813  00120E  6ED9               	movwf	fsr2l,c
  5814  001210  0E00               	movlw	high _CH2
  5815  001212  20F4               	addwfc	prodh,w,c
  5816  001214  6EDA               	movwf	fsr2h,c
  5817  001216  0100               	movlb	0	; () banked
  5818  001218  AADF               	btfss	indf2,5,c
  5819  00121A  D003               	goto	i2l3022
  5820                           
  5821                           ; BSR set to: 0
  5822  00121C  ECD0  F00D         	call	_um_2	;wreg free
  5823  001220  D002               	goto	i2l3024
  5824  001222                     i2l3022:
  5825  001222  EC3F  F00E         	call	_zero_2	;wreg free
  5826  001226                     i2l3024:
  5827                           
  5828                           ;app.c: 202: if( (CH2[idx_color3] & 16) > 0) um_2(); else zero_2();
  5829  001226  501B               	movf	SendBuffCh2@idx_color3,w,c
  5830  001228  0D01               	mullw	1
  5831  00122A  0E60               	movlw	low _CH2
  5832  00122C  24F3               	addwf	prodl,w,c
  5833  00122E  6ED9               	movwf	fsr2l,c
  5834  001230  0E00               	movlw	high _CH2
  5835  001232  20F4               	addwfc	prodh,w,c
  5836  001234  6EDA               	movwf	fsr2h,c
  5837  001236  0100               	movlb	0	; () banked
  5838  001238  A8DF               	btfss	indf2,4,c
  5839  00123A  D003               	goto	i2l3028
  5840                           
  5841                           ; BSR set to: 0
  5842  00123C  ECD0  F00D         	call	_um_2	;wreg free
  5843  001240  D002               	goto	i2l3030
  5844  001242                     i2l3028:
  5845  001242  EC3F  F00E         	call	_zero_2	;wreg free
  5846  001246                     i2l3030:
  5847                           
  5848                           ;app.c: 203: if( (CH2[idx_color3] & 8) > 0) um_2(); else zero_2();
  5849  001246  501B               	movf	SendBuffCh2@idx_color3,w,c
  5850  001248  0D01               	mullw	1
  5851  00124A  0E60               	movlw	low _CH2
  5852  00124C  24F3               	addwf	prodl,w,c
  5853  00124E  6ED9               	movwf	fsr2l,c
  5854  001250  0E00               	movlw	high _CH2
  5855  001252  20F4               	addwfc	prodh,w,c
  5856  001254  6EDA               	movwf	fsr2h,c
  5857  001256  0100               	movlb	0	; () banked
  5858  001258  A6DF               	btfss	indf2,3,c
  5859  00125A  D003               	goto	i2l3034
  5860                           
  5861                           ; BSR set to: 0
  5862  00125C  ECD0  F00D         	call	_um_2	;wreg free
  5863  001260  D002               	goto	i2l3036
  5864  001262                     i2l3034:
  5865  001262  EC3F  F00E         	call	_zero_2	;wreg free
  5866  001266                     i2l3036:
  5867                           
  5868                           ;app.c: 204: if( (CH2[idx_color3] & 4) > 0) um_2(); else zero_2();
  5869  001266  501B               	movf	SendBuffCh2@idx_color3,w,c
  5870  001268  0D01               	mullw	1
  5871  00126A  0E60               	movlw	low _CH2
  5872  00126C  24F3               	addwf	prodl,w,c
  5873  00126E  6ED9               	movwf	fsr2l,c
  5874  001270  0E00               	movlw	high _CH2
  5875  001272  20F4               	addwfc	prodh,w,c
  5876  001274  6EDA               	movwf	fsr2h,c
  5877  001276  0100               	movlb	0	; () banked
  5878  001278  A4DF               	btfss	indf2,2,c
  5879  00127A  D003               	goto	i2l3040
  5880                           
  5881                           ; BSR set to: 0
  5882  00127C  ECD0  F00D         	call	_um_2	;wreg free
  5883  001280  D002               	goto	i2l3042
  5884  001282                     i2l3040:
  5885  001282  EC3F  F00E         	call	_zero_2	;wreg free
  5886  001286                     i2l3042:
  5887                           
  5888                           ;app.c: 205: if( (CH2[idx_color3] & 2) > 0) um_2(); else zero_2();
  5889  001286  501B               	movf	SendBuffCh2@idx_color3,w,c
  5890  001288  0D01               	mullw	1
  5891  00128A  0E60               	movlw	low _CH2
  5892  00128C  24F3               	addwf	prodl,w,c
  5893  00128E  6ED9               	movwf	fsr2l,c
  5894  001290  0E00               	movlw	high _CH2
  5895  001292  20F4               	addwfc	prodh,w,c
  5896  001294  6EDA               	movwf	fsr2h,c
  5897  001296  0100               	movlb	0	; () banked
  5898  001298  A2DF               	btfss	indf2,1,c
  5899  00129A  D003               	goto	i2l3046
  5900                           
  5901                           ; BSR set to: 0
  5902  00129C  ECD0  F00D         	call	_um_2	;wreg free
  5903  0012A0  D002               	goto	i2l3048
  5904  0012A2                     i2l3046:
  5905  0012A2  EC3F  F00E         	call	_zero_2	;wreg free
  5906  0012A6                     i2l3048:
  5907                           
  5908                           ;app.c: 206: if( (CH2[idx_color3] & 1) > 0) um_2(); else zero_2();
  5909  0012A6  501B               	movf	SendBuffCh2@idx_color3,w,c
  5910  0012A8  0D01               	mullw	1
  5911  0012AA  0E60               	movlw	low _CH2
  5912  0012AC  24F3               	addwf	prodl,w,c
  5913  0012AE  6ED9               	movwf	fsr2l,c
  5914  0012B0  0E00               	movlw	high _CH2
  5915  0012B2  20F4               	addwfc	prodh,w,c
  5916  0012B4  6EDA               	movwf	fsr2h,c
  5917  0012B6  0100               	movlb	0	; () banked
  5918  0012B8  A0DF               	btfss	indf2,0,c
  5919  0012BA  D003               	goto	i2l3052
  5920                           
  5921                           ; BSR set to: 0
  5922  0012BC  ECD0  F00D         	call	_um_2	;wreg free
  5923  0012C0  0012               	return	
  5924  0012C2                     i2l3052:
  5925  0012C2  EC3F  F00E         	call	_zero_2	;wreg free
  5926  0012C6  0012               	return	
  5927  0012C8                     __end_of_SendBuffCh2:
  5928                           	opt stack 0
  5929                           pclatu	equ	0xFFB
  5930                           pclath	equ	0xFFA
  5931                           tblptru	equ	0xFF8
  5932                           tblptrh	equ	0xFF7
  5933                           tblptrl	equ	0xFF6
  5934                           tablat	equ	0xFF5
  5935                           prodh	equ	0xFF4
  5936                           prodl	equ	0xFF3
  5937                           intcon	equ	0xFF2
  5938                           intcon2	equ	0xFF1
  5939                           postinc0	equ	0xFEE
  5940                           fsr0h	equ	0xFEA
  5941                           fsr0l	equ	0xFE9
  5942                           wreg	equ	0xFE8
  5943                           postdec1	equ	0xFE5
  5944                           fsr1h	equ	0xFE2
  5945                           fsr1l	equ	0xFE1
  5946                           indf2	equ	0xFDF
  5947                           fsr2h	equ	0xFDA
  5948                           fsr2l	equ	0xFD9
  5949                           status	equ	0xFD8
  5950                           
  5951 ;; *************** function _zero_2 *****************
  5952 ;; Defined at:
  5953 ;;		line 110 in file "mcc_generated_files/app.c"
  5954 ;; Parameters:    Size  Location     Type
  5955 ;;		None
  5956 ;; Auto vars:     Size  Location     Type
  5957 ;;		None
  5958 ;; Return value:  Size  Location     Type
  5959 ;;                  1    wreg      void 
  5960 ;; Registers used:
  5961 ;;		None
  5962 ;; Tracked objects:
  5963 ;;		On entry : 0/0
  5964 ;;		On exit  : 0/0
  5965 ;;		Unchanged: 0/0
  5966 ;; Data sizes:     COMRAM   BANK0   BANK1   BANK2   BANK3   BANK4   BANK5
  5967 ;;      Params:         0       0       0       0       0       0       0
  5968 ;;      Locals:         0       0       0       0       0       0       0
  5969 ;;      Temps:          0       0       0       0       0       0       0
  5970 ;;      Totals:         0       0       0       0       0       0       0
  5971 ;;Total ram usage:        0 bytes
  5972 ;; Hardware stack levels used:    1
  5973 ;; This function calls:
  5974 ;;		Nothing
  5975 ;; This function is called by:
  5976 ;;		_SendBuffCh2
  5977 ;; This function uses a non-reentrant model
  5978 ;;
  5979                           
  5980                           	psect	text31
  5981  001C7E                     __ptext31:
  5982                           	opt stack 0
  5983  001C7E                     _zero_2:
  5984                           	opt stack 21
  5985                           
  5986                           ;incstack = 0
  5987  001C7E  828A               	bsf	3978,1,c	;volatile
  5988  001C80  F000               	nop	
  5989  001C82  F000               	nop	
  5990  001C84  F000               	nop	
  5991  001C86  F000               	nop	
  5992  001C88  F000               	nop	
  5993  001C8A  F000               	nop	
  5994                           
  5995                           ;app.c: 111: LATB1 = 0; __nop();__nop();__nop();__nop();__nop();__nop(); }
  5996  001C8C  928A               	bcf	3978,1,c	;volatile
  5997  001C8E  F000               	nop	
  5998  001C90  F000               	nop	
  5999  001C92  F000               	nop	
  6000  001C94  F000               	nop	
  6001  001C96  F000               	nop	
  6002  001C98  F000               	nop	
  6003  001C9A  0012               	return		;funcret
  6004  001C9C                     __end_of_zero_2:
  6005                           	opt stack 0
  6006                           pclatu	equ	0xFFB
  6007                           pclath	equ	0xFFA
  6008                           tblptru	equ	0xFF8
  6009                           tblptrh	equ	0xFF7
  6010                           tblptrl	equ	0xFF6
  6011                           tablat	equ	0xFF5
  6012                           prodh	equ	0xFF4
  6013                           prodl	equ	0xFF3
  6014                           intcon	equ	0xFF2
  6015                           intcon2	equ	0xFF1
  6016                           postinc0	equ	0xFEE
  6017                           fsr0h	equ	0xFEA
  6018                           fsr0l	equ	0xFE9
  6019                           wreg	equ	0xFE8
  6020                           postdec1	equ	0xFE5
  6021                           fsr1h	equ	0xFE2
  6022                           fsr1l	equ	0xFE1
  6023                           indf2	equ	0xFDF
  6024                           fsr2h	equ	0xFDA
  6025                           fsr2l	equ	0xFD9
  6026                           status	equ	0xFD8
  6027                           
  6028 ;; *************** function _um_2 *****************
  6029 ;; Defined at:
  6030 ;;		line 106 in file "mcc_generated_files/app.c"
  6031 ;; Parameters:    Size  Location     Type
  6032 ;;		None
  6033 ;; Auto vars:     Size  Location     Type
  6034 ;;		None
  6035 ;; Return value:  Size  Location     Type
  6036 ;;                  1    wreg      void 
  6037 ;; Registers used:
  6038 ;;		None
  6039 ;; Tracked objects:
  6040 ;;		On entry : 0/0
  6041 ;;		On exit  : 0/0
  6042 ;;		Unchanged: 0/0
  6043 ;; Data sizes:     COMRAM   BANK0   BANK1   BANK2   BANK3   BANK4   BANK5
  6044 ;;      Params:         0       0       0       0       0       0       0
  6045 ;;      Locals:         0       0       0       0       0       0       0
  6046 ;;      Temps:          0       0       0       0       0       0       0
  6047 ;;      Totals:         0       0       0       0       0       0       0
  6048 ;;Total ram usage:        0 bytes
  6049 ;; Hardware stack levels used:    1
  6050 ;; This function calls:
  6051 ;;		Nothing
  6052 ;; This function is called by:
  6053 ;;		_SendBuffCh2
  6054 ;; This function uses a non-reentrant model
  6055 ;;
  6056                           
  6057                           	psect	text32
  6058  001BA0                     __ptext32:
  6059                           	opt stack 0
  6060  001BA0                     _um_2:
  6061                           	opt stack 21
  6062                           
  6063                           ;incstack = 0
  6064  001BA0  828A               	bsf	3978,1,c	;volatile
  6065  001BA2  F000               	nop	
  6066  001BA4  F000               	nop	
  6067  001BA6  F000               	nop	
  6068  001BA8  F000               	nop	
  6069  001BAA  F000               	nop	
  6070  001BAC  F000               	nop	
  6071                           
  6072                           ;app.c: 107: __nop();__nop();__nop();__nop();__nop();__nop();
  6073  001BAE  F000               	nop	
  6074  001BB0  F000               	nop	
  6075  001BB2  F000               	nop	
  6076  001BB4  F000               	nop	
  6077  001BB6  F000               	nop	
  6078  001BB8  F000               	nop	
  6079                           
  6080                           ;app.c: 108: __nop();__nop();__nop(); LATB1 = 0;
  6081  001BBA  F000               	nop	
  6082  001BBC  F000               	nop	
  6083  001BBE  F000               	nop	
  6084  001BC0  928A               	bcf	3978,1,c	;volatile
  6085  001BC2  0012               	return		;funcret
  6086  001BC4                     __end_of_um_2:
  6087                           	opt stack 0
  6088                           pclatu	equ	0xFFB
  6089                           pclath	equ	0xFFA
  6090                           tblptru	equ	0xFF8
  6091                           tblptrh	equ	0xFF7
  6092                           tblptrl	equ	0xFF6
  6093                           tablat	equ	0xFF5
  6094                           prodh	equ	0xFF4
  6095                           prodl	equ	0xFF3
  6096                           intcon	equ	0xFF2
  6097                           intcon2	equ	0xFF1
  6098                           postinc0	equ	0xFEE
  6099                           fsr0h	equ	0xFEA
  6100                           fsr0l	equ	0xFE9
  6101                           wreg	equ	0xFE8
  6102                           postdec1	equ	0xFE5
  6103                           fsr1h	equ	0xFE2
  6104                           fsr1l	equ	0xFE1
  6105                           indf2	equ	0xFDF
  6106                           fsr2h	equ	0xFDA
  6107                           fsr2l	equ	0xFD9
  6108                           status	equ	0xFD8
  6109                           
  6110 ;; *************** function _SendBuffCh1 *****************
  6111 ;; Defined at:
  6112 ;;		line 149 in file "mcc_generated_files/app.c"
  6113 ;; Parameters:    Size  Location     Type
  6114 ;;  idx_color1      1    wreg     unsigned char 
  6115 ;;  idx_color2      1    0[COMRAM] unsigned char 
  6116 ;;  idx_color3      1    1[COMRAM] unsigned char 
  6117 ;; Auto vars:     Size  Location     Type
  6118 ;;  idx_color1      1    2[COMRAM] unsigned char 
  6119 ;; Return value:  Size  Location     Type
  6120 ;;                  1    wreg      void 
  6121 ;; Registers used:
  6122 ;;		wreg, fsr2l, fsr2h, status,2, status,0, prodl, prodh, cstack
  6123 ;; Tracked objects:
  6124 ;;		On entry : 0/0
  6125 ;;		On exit  : 0/0
  6126 ;;		Unchanged: 0/0
  6127 ;; Data sizes:     COMRAM   BANK0   BANK1   BANK2   BANK3   BANK4   BANK5
  6128 ;;      Params:         2       0       0       0       0       0       0
  6129 ;;      Locals:         1       0       0       0       0       0       0
  6130 ;;      Temps:          0       0       0       0       0       0       0
  6131 ;;      Totals:         3       0       0       0       0       0       0
  6132 ;;Total ram usage:        3 bytes
  6133 ;; Hardware stack levels used:    1
  6134 ;; Hardware stack levels required when called:    1
  6135 ;; This function calls:
  6136 ;;		_um_1
  6137 ;;		_zero_1
  6138 ;; This function is called by:
  6139 ;;		_AppTimer1ms
  6140 ;; This function uses a non-reentrant model
  6141 ;;
  6142                           
  6143                           	psect	text33
  6144  0012C8                     __ptext33:
  6145                           	opt stack 0
  6146  0012C8                     _SendBuffCh1:
  6147                           	opt stack 21
  6148                           
  6149                           ;incstack = 0
  6150                           ;SendBuffCh1@idx_color1 stored from wreg
  6151  0012C8  6E1C               	movwf	SendBuffCh1@idx_color1,c
  6152                           
  6153                           ;app.c: 151: if( (CH1[idx_color1] & 128) > 0)um_1(); else zero_1();
  6154  0012CA  501C               	movf	SendBuffCh1@idx_color1,w,c
  6155  0012CC  0D01               	mullw	1
  6156  0012CE  0EA0               	movlw	low _CH1
  6157  0012D0  24F3               	addwf	prodl,w,c
  6158  0012D2  6ED9               	movwf	fsr2l,c
  6159  0012D4  0E00               	movlw	high _CH1
  6160  0012D6  20F4               	addwfc	prodh,w,c
  6161  0012D8  6EDA               	movwf	fsr2h,c
  6162  0012DA  0100               	movlb	0	; () banked
  6163  0012DC  AEDF               	btfss	indf2,7,c
  6164  0012DE  D003               	goto	i2l2770
  6165                           
  6166                           ; BSR set to: 0
  6167  0012E0  ECE2  F00D         	call	_um_1	;wreg free
  6168  0012E4  D002               	goto	i2l2772
  6169  0012E6                     i2l2770:
  6170  0012E6  EC4E  F00E         	call	_zero_1	;wreg free
  6171  0012EA                     i2l2772:
  6172                           
  6173                           ;app.c: 152: if( (CH1[idx_color1] & 64) > 0) um_1(); else zero_1();
  6174  0012EA  501C               	movf	SendBuffCh1@idx_color1,w,c
  6175  0012EC  0D01               	mullw	1
  6176  0012EE  0EA0               	movlw	low _CH1
  6177  0012F0  24F3               	addwf	prodl,w,c
  6178  0012F2  6ED9               	movwf	fsr2l,c
  6179  0012F4  0E00               	movlw	high _CH1
  6180  0012F6  20F4               	addwfc	prodh,w,c
  6181  0012F8  6EDA               	movwf	fsr2h,c
  6182  0012FA  0100               	movlb	0	; () banked
  6183  0012FC  ACDF               	btfss	indf2,6,c
  6184  0012FE  D003               	goto	i2l2776
  6185                           
  6186                           ; BSR set to: 0
  6187  001300  ECE2  F00D         	call	_um_1	;wreg free
  6188  001304  D002               	goto	i2l2778
  6189  001306                     i2l2776:
  6190  001306  EC4E  F00E         	call	_zero_1	;wreg free
  6191  00130A                     i2l2778:
  6192                           
  6193                           ;app.c: 153: if( (CH1[idx_color1] & 32) > 0) um_1(); else zero_1();
  6194  00130A  501C               	movf	SendBuffCh1@idx_color1,w,c
  6195  00130C  0D01               	mullw	1
  6196  00130E  0EA0               	movlw	low _CH1
  6197  001310  24F3               	addwf	prodl,w,c
  6198  001312  6ED9               	movwf	fsr2l,c
  6199  001314  0E00               	movlw	high _CH1
  6200  001316  20F4               	addwfc	prodh,w,c
  6201  001318  6EDA               	movwf	fsr2h,c
  6202  00131A  0100               	movlb	0	; () banked
  6203  00131C  AADF               	btfss	indf2,5,c
  6204  00131E  D003               	goto	i2l2782
  6205                           
  6206                           ; BSR set to: 0
  6207  001320  ECE2  F00D         	call	_um_1	;wreg free
  6208  001324  D002               	goto	i2l2784
  6209  001326                     i2l2782:
  6210  001326  EC4E  F00E         	call	_zero_1	;wreg free
  6211  00132A                     i2l2784:
  6212                           
  6213                           ;app.c: 154: if( (CH1[idx_color1] & 16) > 0) um_1(); else zero_1();
  6214  00132A  501C               	movf	SendBuffCh1@idx_color1,w,c
  6215  00132C  0D01               	mullw	1
  6216  00132E  0EA0               	movlw	low _CH1
  6217  001330  24F3               	addwf	prodl,w,c
  6218  001332  6ED9               	movwf	fsr2l,c
  6219  001334  0E00               	movlw	high _CH1
  6220  001336  20F4               	addwfc	prodh,w,c
  6221  001338  6EDA               	movwf	fsr2h,c
  6222  00133A  0100               	movlb	0	; () banked
  6223  00133C  A8DF               	btfss	indf2,4,c
  6224  00133E  D003               	goto	i2l2788
  6225                           
  6226                           ; BSR set to: 0
  6227  001340  ECE2  F00D         	call	_um_1	;wreg free
  6228  001344  D002               	goto	i2l2790
  6229  001346                     i2l2788:
  6230  001346  EC4E  F00E         	call	_zero_1	;wreg free
  6231  00134A                     i2l2790:
  6232                           
  6233                           ;app.c: 155: if( (CH1[idx_color1] & 8) > 0) um_1(); else zero_1();
  6234  00134A  501C               	movf	SendBuffCh1@idx_color1,w,c
  6235  00134C  0D01               	mullw	1
  6236  00134E  0EA0               	movlw	low _CH1
  6237  001350  24F3               	addwf	prodl,w,c
  6238  001352  6ED9               	movwf	fsr2l,c
  6239  001354  0E00               	movlw	high _CH1
  6240  001356  20F4               	addwfc	prodh,w,c
  6241  001358  6EDA               	movwf	fsr2h,c
  6242  00135A  0100               	movlb	0	; () banked
  6243  00135C  A6DF               	btfss	indf2,3,c
  6244  00135E  D003               	goto	i2l2794
  6245                           
  6246                           ; BSR set to: 0
  6247  001360  ECE2  F00D         	call	_um_1	;wreg free
  6248  001364  D002               	goto	i2l2796
  6249  001366                     i2l2794:
  6250  001366  EC4E  F00E         	call	_zero_1	;wreg free
  6251  00136A                     i2l2796:
  6252                           
  6253                           ;app.c: 156: if( (CH1[idx_color1] & 4) > 0) um_1(); else zero_1();
  6254  00136A  501C               	movf	SendBuffCh1@idx_color1,w,c
  6255  00136C  0D01               	mullw	1
  6256  00136E  0EA0               	movlw	low _CH1
  6257  001370  24F3               	addwf	prodl,w,c
  6258  001372  6ED9               	movwf	fsr2l,c
  6259  001374  0E00               	movlw	high _CH1
  6260  001376  20F4               	addwfc	prodh,w,c
  6261  001378  6EDA               	movwf	fsr2h,c
  6262  00137A  0100               	movlb	0	; () banked
  6263  00137C  A4DF               	btfss	indf2,2,c
  6264  00137E  D003               	goto	i2l2800
  6265                           
  6266                           ; BSR set to: 0
  6267  001380  ECE2  F00D         	call	_um_1	;wreg free
  6268  001384  D002               	goto	i2l2802
  6269  001386                     i2l2800:
  6270  001386  EC4E  F00E         	call	_zero_1	;wreg free
  6271  00138A                     i2l2802:
  6272                           
  6273                           ;app.c: 157: if( (CH1[idx_color1] & 2) > 0) um_1(); else zero_1();
  6274  00138A  501C               	movf	SendBuffCh1@idx_color1,w,c
  6275  00138C  0D01               	mullw	1
  6276  00138E  0EA0               	movlw	low _CH1
  6277  001390  24F3               	addwf	prodl,w,c
  6278  001392  6ED9               	movwf	fsr2l,c
  6279  001394  0E00               	movlw	high _CH1
  6280  001396  20F4               	addwfc	prodh,w,c
  6281  001398  6EDA               	movwf	fsr2h,c
  6282  00139A  0100               	movlb	0	; () banked
  6283  00139C  A2DF               	btfss	indf2,1,c
  6284  00139E  D003               	goto	i2l2806
  6285                           
  6286                           ; BSR set to: 0
  6287  0013A0  ECE2  F00D         	call	_um_1	;wreg free
  6288  0013A4  D002               	goto	i2l2808
  6289  0013A6                     i2l2806:
  6290  0013A6  EC4E  F00E         	call	_zero_1	;wreg free
  6291  0013AA                     i2l2808:
  6292                           
  6293                           ;app.c: 158: if( (CH1[idx_color1] & 1) > 0) um_1(); else zero_1();
  6294  0013AA  501C               	movf	SendBuffCh1@idx_color1,w,c
  6295  0013AC  0D01               	mullw	1
  6296  0013AE  0EA0               	movlw	low _CH1
  6297  0013B0  24F3               	addwf	prodl,w,c
  6298  0013B2  6ED9               	movwf	fsr2l,c
  6299  0013B4  0E00               	movlw	high _CH1
  6300  0013B6  20F4               	addwfc	prodh,w,c
  6301  0013B8  6EDA               	movwf	fsr2h,c
  6302  0013BA  0100               	movlb	0	; () banked
  6303  0013BC  A0DF               	btfss	indf2,0,c
  6304  0013BE  D003               	goto	i2l2812
  6305                           
  6306                           ; BSR set to: 0
  6307  0013C0  ECE2  F00D         	call	_um_1	;wreg free
  6308  0013C4  D002               	goto	i2l2814
  6309  0013C6                     i2l2812:
  6310  0013C6  EC4E  F00E         	call	_zero_1	;wreg free
  6311  0013CA                     i2l2814:
  6312                           
  6313                           ;app.c: 160: if( (CH1[idx_color2] & 128) > 0)um_1(); else zero_1();
  6314  0013CA  501A               	movf	SendBuffCh1@idx_color2,w,c
  6315  0013CC  0D01               	mullw	1
  6316  0013CE  0EA0               	movlw	low _CH1
  6317  0013D0  24F3               	addwf	prodl,w,c
  6318  0013D2  6ED9               	movwf	fsr2l,c
  6319  0013D4  0E00               	movlw	high _CH1
  6320  0013D6  20F4               	addwfc	prodh,w,c
  6321  0013D8  6EDA               	movwf	fsr2h,c
  6322  0013DA  0100               	movlb	0	; () banked
  6323  0013DC  AEDF               	btfss	indf2,7,c
  6324  0013DE  D003               	goto	i2l2818
  6325                           
  6326                           ; BSR set to: 0
  6327  0013E0  ECE2  F00D         	call	_um_1	;wreg free
  6328  0013E4  D002               	goto	i2l2820
  6329  0013E6                     i2l2818:
  6330  0013E6  EC4E  F00E         	call	_zero_1	;wreg free
  6331  0013EA                     i2l2820:
  6332                           
  6333                           ;app.c: 161: if( (CH1[idx_color2] & 64) > 0) um_1(); else zero_1();
  6334  0013EA  501A               	movf	SendBuffCh1@idx_color2,w,c
  6335  0013EC  0D01               	mullw	1
  6336  0013EE  0EA0               	movlw	low _CH1
  6337  0013F0  24F3               	addwf	prodl,w,c
  6338  0013F2  6ED9               	movwf	fsr2l,c
  6339  0013F4  0E00               	movlw	high _CH1
  6340  0013F6  20F4               	addwfc	prodh,w,c
  6341  0013F8  6EDA               	movwf	fsr2h,c
  6342  0013FA  0100               	movlb	0	; () banked
  6343  0013FC  ACDF               	btfss	indf2,6,c
  6344  0013FE  D003               	goto	i2l2824
  6345                           
  6346                           ; BSR set to: 0
  6347  001400  ECE2  F00D         	call	_um_1	;wreg free
  6348  001404  D002               	goto	i2l2826
  6349  001406                     i2l2824:
  6350  001406  EC4E  F00E         	call	_zero_1	;wreg free
  6351  00140A                     i2l2826:
  6352                           
  6353                           ;app.c: 162: if( (CH1[idx_color2] & 32) > 0) um_1(); else zero_1();
  6354  00140A  501A               	movf	SendBuffCh1@idx_color2,w,c
  6355  00140C  0D01               	mullw	1
  6356  00140E  0EA0               	movlw	low _CH1
  6357  001410  24F3               	addwf	prodl,w,c
  6358  001412  6ED9               	movwf	fsr2l,c
  6359  001414  0E00               	movlw	high _CH1
  6360  001416  20F4               	addwfc	prodh,w,c
  6361  001418  6EDA               	movwf	fsr2h,c
  6362  00141A  0100               	movlb	0	; () banked
  6363  00141C  AADF               	btfss	indf2,5,c
  6364  00141E  D003               	goto	i2l2830
  6365                           
  6366                           ; BSR set to: 0
  6367  001420  ECE2  F00D         	call	_um_1	;wreg free
  6368  001424  D002               	goto	i2l2832
  6369  001426                     i2l2830:
  6370  001426  EC4E  F00E         	call	_zero_1	;wreg free
  6371  00142A                     i2l2832:
  6372                           
  6373                           ;app.c: 163: if( (CH1[idx_color2] & 16) > 0) um_1(); else zero_1();
  6374  00142A  501A               	movf	SendBuffCh1@idx_color2,w,c
  6375  00142C  0D01               	mullw	1
  6376  00142E  0EA0               	movlw	low _CH1
  6377  001430  24F3               	addwf	prodl,w,c
  6378  001432  6ED9               	movwf	fsr2l,c
  6379  001434  0E00               	movlw	high _CH1
  6380  001436  20F4               	addwfc	prodh,w,c
  6381  001438  6EDA               	movwf	fsr2h,c
  6382  00143A  0100               	movlb	0	; () banked
  6383  00143C  A8DF               	btfss	indf2,4,c
  6384  00143E  D003               	goto	i2l2836
  6385                           
  6386                           ; BSR set to: 0
  6387  001440  ECE2  F00D         	call	_um_1	;wreg free
  6388  001444  D002               	goto	i2l2838
  6389  001446                     i2l2836:
  6390  001446  EC4E  F00E         	call	_zero_1	;wreg free
  6391  00144A                     i2l2838:
  6392                           
  6393                           ;app.c: 164: if( (CH1[idx_color2] & 8) > 0) um_1(); else zero_1();
  6394  00144A  501A               	movf	SendBuffCh1@idx_color2,w,c
  6395  00144C  0D01               	mullw	1
  6396  00144E  0EA0               	movlw	low _CH1
  6397  001450  24F3               	addwf	prodl,w,c
  6398  001452  6ED9               	movwf	fsr2l,c
  6399  001454  0E00               	movlw	high _CH1
  6400  001456  20F4               	addwfc	prodh,w,c
  6401  001458  6EDA               	movwf	fsr2h,c
  6402  00145A  0100               	movlb	0	; () banked
  6403  00145C  A6DF               	btfss	indf2,3,c
  6404  00145E  D003               	goto	i2l2842
  6405                           
  6406                           ; BSR set to: 0
  6407  001460  ECE2  F00D         	call	_um_1	;wreg free
  6408  001464  D002               	goto	i2l2844
  6409  001466                     i2l2842:
  6410  001466  EC4E  F00E         	call	_zero_1	;wreg free
  6411  00146A                     i2l2844:
  6412                           
  6413                           ;app.c: 165: if( (CH1[idx_color2] & 4) > 0) um_1(); else zero_1();
  6414  00146A  501A               	movf	SendBuffCh1@idx_color2,w,c
  6415  00146C  0D01               	mullw	1
  6416  00146E  0EA0               	movlw	low _CH1
  6417  001470  24F3               	addwf	prodl,w,c
  6418  001472  6ED9               	movwf	fsr2l,c
  6419  001474  0E00               	movlw	high _CH1
  6420  001476  20F4               	addwfc	prodh,w,c
  6421  001478  6EDA               	movwf	fsr2h,c
  6422  00147A  0100               	movlb	0	; () banked
  6423  00147C  A4DF               	btfss	indf2,2,c
  6424  00147E  D003               	goto	i2l2848
  6425                           
  6426                           ; BSR set to: 0
  6427  001480  ECE2  F00D         	call	_um_1	;wreg free
  6428  001484  D002               	goto	i2l2850
  6429  001486                     i2l2848:
  6430  001486  EC4E  F00E         	call	_zero_1	;wreg free
  6431  00148A                     i2l2850:
  6432                           
  6433                           ;app.c: 166: if( (CH1[idx_color2] & 2) > 0) um_1(); else zero_1();
  6434  00148A  501A               	movf	SendBuffCh1@idx_color2,w,c
  6435  00148C  0D01               	mullw	1
  6436  00148E  0EA0               	movlw	low _CH1
  6437  001490  24F3               	addwf	prodl,w,c
  6438  001492  6ED9               	movwf	fsr2l,c
  6439  001494  0E00               	movlw	high _CH1
  6440  001496  20F4               	addwfc	prodh,w,c
  6441  001498  6EDA               	movwf	fsr2h,c
  6442  00149A  0100               	movlb	0	; () banked
  6443  00149C  A2DF               	btfss	indf2,1,c
  6444  00149E  D003               	goto	i2l2854
  6445                           
  6446                           ; BSR set to: 0
  6447  0014A0  ECE2  F00D         	call	_um_1	;wreg free
  6448  0014A4  D002               	goto	i2l2856
  6449  0014A6                     i2l2854:
  6450  0014A6  EC4E  F00E         	call	_zero_1	;wreg free
  6451  0014AA                     i2l2856:
  6452                           
  6453                           ;app.c: 167: if( (CH1[idx_color2] & 1) > 0) um_1(); else zero_1();
  6454  0014AA  501A               	movf	SendBuffCh1@idx_color2,w,c
  6455  0014AC  0D01               	mullw	1
  6456  0014AE  0EA0               	movlw	low _CH1
  6457  0014B0  24F3               	addwf	prodl,w,c
  6458  0014B2  6ED9               	movwf	fsr2l,c
  6459  0014B4  0E00               	movlw	high _CH1
  6460  0014B6  20F4               	addwfc	prodh,w,c
  6461  0014B8  6EDA               	movwf	fsr2h,c
  6462  0014BA  0100               	movlb	0	; () banked
  6463  0014BC  A0DF               	btfss	indf2,0,c
  6464  0014BE  D003               	goto	i2l2860
  6465                           
  6466                           ; BSR set to: 0
  6467  0014C0  ECE2  F00D         	call	_um_1	;wreg free
  6468  0014C4  D002               	goto	i2l2862
  6469  0014C6                     i2l2860:
  6470  0014C6  EC4E  F00E         	call	_zero_1	;wreg free
  6471  0014CA                     i2l2862:
  6472                           
  6473                           ;app.c: 169: if( (CH1[idx_color3] & 128) > 0)um_1(); else zero_1();
  6474  0014CA  501B               	movf	SendBuffCh1@idx_color3,w,c
  6475  0014CC  0D01               	mullw	1
  6476  0014CE  0EA0               	movlw	low _CH1
  6477  0014D0  24F3               	addwf	prodl,w,c
  6478  0014D2  6ED9               	movwf	fsr2l,c
  6479  0014D4  0E00               	movlw	high _CH1
  6480  0014D6  20F4               	addwfc	prodh,w,c
  6481  0014D8  6EDA               	movwf	fsr2h,c
  6482  0014DA  0100               	movlb	0	; () banked
  6483  0014DC  AEDF               	btfss	indf2,7,c
  6484  0014DE  D003               	goto	i2l2866
  6485                           
  6486                           ; BSR set to: 0
  6487  0014E0  ECE2  F00D         	call	_um_1	;wreg free
  6488  0014E4  D002               	goto	i2l2868
  6489  0014E6                     i2l2866:
  6490  0014E6  EC4E  F00E         	call	_zero_1	;wreg free
  6491  0014EA                     i2l2868:
  6492                           
  6493                           ;app.c: 170: if( (CH1[idx_color3] & 64) > 0) um_1(); else zero_1();
  6494  0014EA  501B               	movf	SendBuffCh1@idx_color3,w,c
  6495  0014EC  0D01               	mullw	1
  6496  0014EE  0EA0               	movlw	low _CH1
  6497  0014F0  24F3               	addwf	prodl,w,c
  6498  0014F2  6ED9               	movwf	fsr2l,c
  6499  0014F4  0E00               	movlw	high _CH1
  6500  0014F6  20F4               	addwfc	prodh,w,c
  6501  0014F8  6EDA               	movwf	fsr2h,c
  6502  0014FA  0100               	movlb	0	; () banked
  6503  0014FC  ACDF               	btfss	indf2,6,c
  6504  0014FE  D003               	goto	i2l2872
  6505                           
  6506                           ; BSR set to: 0
  6507  001500  ECE2  F00D         	call	_um_1	;wreg free
  6508  001504  D002               	goto	i2l2874
  6509  001506                     i2l2872:
  6510  001506  EC4E  F00E         	call	_zero_1	;wreg free
  6511  00150A                     i2l2874:
  6512                           
  6513                           ;app.c: 171: if( (CH1[idx_color3] & 32) > 0) um_1(); else zero_1();
  6514  00150A  501B               	movf	SendBuffCh1@idx_color3,w,c
  6515  00150C  0D01               	mullw	1
  6516  00150E  0EA0               	movlw	low _CH1
  6517  001510  24F3               	addwf	prodl,w,c
  6518  001512  6ED9               	movwf	fsr2l,c
  6519  001514  0E00               	movlw	high _CH1
  6520  001516  20F4               	addwfc	prodh,w,c
  6521  001518  6EDA               	movwf	fsr2h,c
  6522  00151A  0100               	movlb	0	; () banked
  6523  00151C  AADF               	btfss	indf2,5,c
  6524  00151E  D003               	goto	i2l2878
  6525                           
  6526                           ; BSR set to: 0
  6527  001520  ECE2  F00D         	call	_um_1	;wreg free
  6528  001524  D002               	goto	i2l2880
  6529  001526                     i2l2878:
  6530  001526  EC4E  F00E         	call	_zero_1	;wreg free
  6531  00152A                     i2l2880:
  6532                           
  6533                           ;app.c: 172: if( (CH1[idx_color3] & 16) > 0) um_1(); else zero_1();
  6534  00152A  501B               	movf	SendBuffCh1@idx_color3,w,c
  6535  00152C  0D01               	mullw	1
  6536  00152E  0EA0               	movlw	low _CH1
  6537  001530  24F3               	addwf	prodl,w,c
  6538  001532  6ED9               	movwf	fsr2l,c
  6539  001534  0E00               	movlw	high _CH1
  6540  001536  20F4               	addwfc	prodh,w,c
  6541  001538  6EDA               	movwf	fsr2h,c
  6542  00153A  0100               	movlb	0	; () banked
  6543  00153C  A8DF               	btfss	indf2,4,c
  6544  00153E  D003               	goto	i2l2884
  6545                           
  6546                           ; BSR set to: 0
  6547  001540  ECE2  F00D         	call	_um_1	;wreg free
  6548  001544  D002               	goto	i2l2886
  6549  001546                     i2l2884:
  6550  001546  EC4E  F00E         	call	_zero_1	;wreg free
  6551  00154A                     i2l2886:
  6552                           
  6553                           ;app.c: 173: if( (CH1[idx_color3] & 8) > 0) um_1(); else zero_1();
  6554  00154A  501B               	movf	SendBuffCh1@idx_color3,w,c
  6555  00154C  0D01               	mullw	1
  6556  00154E  0EA0               	movlw	low _CH1
  6557  001550  24F3               	addwf	prodl,w,c
  6558  001552  6ED9               	movwf	fsr2l,c
  6559  001554  0E00               	movlw	high _CH1
  6560  001556  20F4               	addwfc	prodh,w,c
  6561  001558  6EDA               	movwf	fsr2h,c
  6562  00155A  0100               	movlb	0	; () banked
  6563  00155C  A6DF               	btfss	indf2,3,c
  6564  00155E  D003               	goto	i2l2890
  6565                           
  6566                           ; BSR set to: 0
  6567  001560  ECE2  F00D         	call	_um_1	;wreg free
  6568  001564  D002               	goto	i2l2892
  6569  001566                     i2l2890:
  6570  001566  EC4E  F00E         	call	_zero_1	;wreg free
  6571  00156A                     i2l2892:
  6572                           
  6573                           ;app.c: 174: if( (CH1[idx_color3] & 4) > 0) um_1(); else zero_1();
  6574  00156A  501B               	movf	SendBuffCh1@idx_color3,w,c
  6575  00156C  0D01               	mullw	1
  6576  00156E  0EA0               	movlw	low _CH1
  6577  001570  24F3               	addwf	prodl,w,c
  6578  001572  6ED9               	movwf	fsr2l,c
  6579  001574  0E00               	movlw	high _CH1
  6580  001576  20F4               	addwfc	prodh,w,c
  6581  001578  6EDA               	movwf	fsr2h,c
  6582  00157A  0100               	movlb	0	; () banked
  6583  00157C  A4DF               	btfss	indf2,2,c
  6584  00157E  D003               	goto	i2l2896
  6585                           
  6586                           ; BSR set to: 0
  6587  001580  ECE2  F00D         	call	_um_1	;wreg free
  6588  001584  D002               	goto	i2l2898
  6589  001586                     i2l2896:
  6590  001586  EC4E  F00E         	call	_zero_1	;wreg free
  6591  00158A                     i2l2898:
  6592                           
  6593                           ;app.c: 175: if( (CH1[idx_color3] & 2) > 0) um_1(); else zero_1();
  6594  00158A  501B               	movf	SendBuffCh1@idx_color3,w,c
  6595  00158C  0D01               	mullw	1
  6596  00158E  0EA0               	movlw	low _CH1
  6597  001590  24F3               	addwf	prodl,w,c
  6598  001592  6ED9               	movwf	fsr2l,c
  6599  001594  0E00               	movlw	high _CH1
  6600  001596  20F4               	addwfc	prodh,w,c
  6601  001598  6EDA               	movwf	fsr2h,c
  6602  00159A  0100               	movlb	0	; () banked
  6603  00159C  A2DF               	btfss	indf2,1,c
  6604  00159E  D003               	goto	i2l2902
  6605                           
  6606                           ; BSR set to: 0
  6607  0015A0  ECE2  F00D         	call	_um_1	;wreg free
  6608  0015A4  D002               	goto	i2l2904
  6609  0015A6                     i2l2902:
  6610  0015A6  EC4E  F00E         	call	_zero_1	;wreg free
  6611  0015AA                     i2l2904:
  6612                           
  6613                           ;app.c: 176: if( (CH1[idx_color3] & 1) > 0) um_1(); else zero_1();
  6614  0015AA  501B               	movf	SendBuffCh1@idx_color3,w,c
  6615  0015AC  0D01               	mullw	1
  6616  0015AE  0EA0               	movlw	low _CH1
  6617  0015B0  24F3               	addwf	prodl,w,c
  6618  0015B2  6ED9               	movwf	fsr2l,c
  6619  0015B4  0E00               	movlw	high _CH1
  6620  0015B6  20F4               	addwfc	prodh,w,c
  6621  0015B8  6EDA               	movwf	fsr2h,c
  6622  0015BA  0100               	movlb	0	; () banked
  6623  0015BC  A0DF               	btfss	indf2,0,c
  6624  0015BE  D003               	goto	i2l2908
  6625                           
  6626                           ; BSR set to: 0
  6627  0015C0  ECE2  F00D         	call	_um_1	;wreg free
  6628  0015C4  0012               	return	
  6629  0015C6                     i2l2908:
  6630  0015C6  EC4E  F00E         	call	_zero_1	;wreg free
  6631  0015CA  0012               	return	
  6632  0015CC                     __end_of_SendBuffCh1:
  6633                           	opt stack 0
  6634                           pclatu	equ	0xFFB
  6635                           pclath	equ	0xFFA
  6636                           tblptru	equ	0xFF8
  6637                           tblptrh	equ	0xFF7
  6638                           tblptrl	equ	0xFF6
  6639                           tablat	equ	0xFF5
  6640                           prodh	equ	0xFF4
  6641                           prodl	equ	0xFF3
  6642                           intcon	equ	0xFF2
  6643                           intcon2	equ	0xFF1
  6644                           postinc0	equ	0xFEE
  6645                           fsr0h	equ	0xFEA
  6646                           fsr0l	equ	0xFE9
  6647                           wreg	equ	0xFE8
  6648                           postdec1	equ	0xFE5
  6649                           fsr1h	equ	0xFE2
  6650                           fsr1l	equ	0xFE1
  6651                           indf2	equ	0xFDF
  6652                           fsr2h	equ	0xFDA
  6653                           fsr2l	equ	0xFD9
  6654                           status	equ	0xFD8
  6655                           
  6656 ;; *************** function _zero_1 *****************
  6657 ;; Defined at:
  6658 ;;		line 103 in file "mcc_generated_files/app.c"
  6659 ;; Parameters:    Size  Location     Type
  6660 ;;		None
  6661 ;; Auto vars:     Size  Location     Type
  6662 ;;		None
  6663 ;; Return value:  Size  Location     Type
  6664 ;;                  1    wreg      void 
  6665 ;; Registers used:
  6666 ;;		None
  6667 ;; Tracked objects:
  6668 ;;		On entry : 0/0
  6669 ;;		On exit  : 0/0
  6670 ;;		Unchanged: 0/0
  6671 ;; Data sizes:     COMRAM   BANK0   BANK1   BANK2   BANK3   BANK4   BANK5
  6672 ;;      Params:         0       0       0       0       0       0       0
  6673 ;;      Locals:         0       0       0       0       0       0       0
  6674 ;;      Temps:          0       0       0       0       0       0       0
  6675 ;;      Totals:         0       0       0       0       0       0       0
  6676 ;;Total ram usage:        0 bytes
  6677 ;; Hardware stack levels used:    1
  6678 ;; This function calls:
  6679 ;;		Nothing
  6680 ;; This function is called by:
  6681 ;;		_SendBuffCh1
  6682 ;; This function uses a non-reentrant model
  6683 ;;
  6684                           
  6685                           	psect	text34
  6686  001C9C                     __ptext34:
  6687                           	opt stack 0
  6688  001C9C                     _zero_1:
  6689                           	opt stack 21
  6690                           
  6691                           ;incstack = 0
  6692  001C9C  808A               	bsf	3978,0,c	;volatile
  6693  001C9E  F000               	nop	
  6694  001CA0  F000               	nop	
  6695  001CA2  F000               	nop	
  6696  001CA4  F000               	nop	
  6697  001CA6  F000               	nop	
  6698  001CA8  F000               	nop	
  6699                           
  6700                           ;app.c: 104: LATB0 = 0; __nop();__nop();__nop();__nop();__nop();__nop(); }
  6701  001CAA  908A               	bcf	3978,0,c	;volatile
  6702  001CAC  F000               	nop	
  6703  001CAE  F000               	nop	
  6704  001CB0  F000               	nop	
  6705  001CB2  F000               	nop	
  6706  001CB4  F000               	nop	
  6707  001CB6  F000               	nop	
  6708  001CB8  0012               	return		;funcret
  6709  001CBA                     __end_of_zero_1:
  6710                           	opt stack 0
  6711                           pclatu	equ	0xFFB
  6712                           pclath	equ	0xFFA
  6713                           tblptru	equ	0xFF8
  6714                           tblptrh	equ	0xFF7
  6715                           tblptrl	equ	0xFF6
  6716                           tablat	equ	0xFF5
  6717                           prodh	equ	0xFF4
  6718                           prodl	equ	0xFF3
  6719                           intcon	equ	0xFF2
  6720                           intcon2	equ	0xFF1
  6721                           postinc0	equ	0xFEE
  6722                           fsr0h	equ	0xFEA
  6723                           fsr0l	equ	0xFE9
  6724                           wreg	equ	0xFE8
  6725                           postdec1	equ	0xFE5
  6726                           fsr1h	equ	0xFE2
  6727                           fsr1l	equ	0xFE1
  6728                           indf2	equ	0xFDF
  6729                           fsr2h	equ	0xFDA
  6730                           fsr2l	equ	0xFD9
  6731                           status	equ	0xFD8
  6732                           
  6733 ;; *************** function _um_1 *****************
  6734 ;; Defined at:
  6735 ;;		line 99 in file "mcc_generated_files/app.c"
  6736 ;; Parameters:    Size  Location     Type
  6737 ;;		None
  6738 ;; Auto vars:     Size  Location     Type
  6739 ;;		None
  6740 ;; Return value:  Size  Location     Type
  6741 ;;                  1    wreg      void 
  6742 ;; Registers used:
  6743 ;;		None
  6744 ;; Tracked objects:
  6745 ;;		On entry : 0/0
  6746 ;;		On exit  : 0/0
  6747 ;;		Unchanged: 0/0
  6748 ;; Data sizes:     COMRAM   BANK0   BANK1   BANK2   BANK3   BANK4   BANK5
  6749 ;;      Params:         0       0       0       0       0       0       0
  6750 ;;      Locals:         0       0       0       0       0       0       0
  6751 ;;      Temps:          0       0       0       0       0       0       0
  6752 ;;      Totals:         0       0       0       0       0       0       0
  6753 ;;Total ram usage:        0 bytes
  6754 ;; Hardware stack levels used:    1
  6755 ;; This function calls:
  6756 ;;		Nothing
  6757 ;; This function is called by:
  6758 ;;		_SendBuffCh1
  6759 ;; This function uses a non-reentrant model
  6760 ;;
  6761                           
  6762                           	psect	text35
  6763  001BC4                     __ptext35:
  6764                           	opt stack 0
  6765  001BC4                     _um_1:
  6766                           	opt stack 21
  6767                           
  6768                           ;incstack = 0
  6769  001BC4  808A               	bsf	3978,0,c	;volatile
  6770  001BC6  F000               	nop	
  6771  001BC8  F000               	nop	
  6772  001BCA  F000               	nop	
  6773  001BCC  F000               	nop	
  6774  001BCE  F000               	nop	
  6775  001BD0  F000               	nop	
  6776                           
  6777                           ;app.c: 100: __nop();__nop();__nop();__nop();__nop();__nop();__nop();__nop();__nop();
  6778  001BD2  F000               	nop	
  6779  001BD4  F000               	nop	
  6780  001BD6  F000               	nop	
  6781  001BD8  F000               	nop	
  6782  001BDA  F000               	nop	
  6783  001BDC  F000               	nop	
  6784  001BDE  F000               	nop	
  6785  001BE0  F000               	nop	
  6786  001BE2  F000               	nop	
  6787                           
  6788                           ;app.c: 101: LATB0 = 0;
  6789  001BE4  908A               	bcf	3978,0,c	;volatile
  6790  001BE6  0012               	return		;funcret
  6791  001BE8                     __end_of_um_1:
  6792                           	opt stack 0
  6793                           pclatu	equ	0xFFB
  6794                           pclath	equ	0xFFA
  6795                           tblptru	equ	0xFF8
  6796                           tblptrh	equ	0xFF7
  6797                           tblptrl	equ	0xFF6
  6798                           tablat	equ	0xFF5
  6799                           prodh	equ	0xFF4
  6800                           prodl	equ	0xFF3
  6801                           intcon	equ	0xFF2
  6802                           intcon2	equ	0xFF1
  6803                           postinc0	equ	0xFEE
  6804                           fsr0h	equ	0xFEA
  6805                           fsr0l	equ	0xFE9
  6806                           wreg	equ	0xFE8
  6807                           postdec1	equ	0xFE5
  6808                           fsr1h	equ	0xFE2
  6809                           fsr1l	equ	0xFE1
  6810                           indf2	equ	0xFDF
  6811                           fsr2h	equ	0xFDA
  6812                           fsr2l	equ	0xFD9
  6813                           status	equ	0xFD8
  6814                           
  6815 ;; *************** function _EUSART1_Transmit_ISR *****************
  6816 ;; Defined at:
  6817 ;;		line 98 in file "mcc_generated_files/eusart1.c"
  6818 ;; Parameters:    Size  Location     Type
  6819 ;;		None
  6820 ;; Auto vars:     Size  Location     Type
  6821 ;;		None
  6822 ;; Return value:  Size  Location     Type
  6823 ;;                  1    wreg      void 
  6824 ;; Registers used:
  6825 ;;		None
  6826 ;; Tracked objects:
  6827 ;;		On entry : 0/0
  6828 ;;		On exit  : 0/0
  6829 ;;		Unchanged: 0/0
  6830 ;; Data sizes:     COMRAM   BANK0   BANK1   BANK2   BANK3   BANK4   BANK5
  6831 ;;      Params:         0       0       0       0       0       0       0
  6832 ;;      Locals:         0       0       0       0       0       0       0
  6833 ;;      Temps:          0       0       0       0       0       0       0
  6834 ;;      Totals:         0       0       0       0       0       0       0
  6835 ;;Total ram usage:        0 bytes
  6836 ;; Hardware stack levels used:    1
  6837 ;; This function calls:
  6838 ;;		Nothing
  6839 ;; This function is called by:
  6840 ;;		_INTERRUPT_InterruptManager
  6841 ;; This function uses a non-reentrant model
  6842 ;;
  6843                           
  6844                           	psect	text36
  6845  001D70                     __ptext36:
  6846                           	opt stack 0
  6847  001D70                     _EUSART1_Transmit_ISR:
  6848                           	opt stack 26
  6849                           
  6850                           ;eusart1.c: 100: PIE1bits.TX1IE = 0;
  6851                           
  6852                           ;incstack = 0
  6853  001D70  989D               	bcf	3997,4,c	;volatile
  6854  001D72  0012               	return		;funcret
  6855  001D74                     __end_of_EUSART1_Transmit_ISR:
  6856                           	opt stack 0
  6857                           pclatu	equ	0xFFB
  6858                           pclath	equ	0xFFA
  6859                           tblptru	equ	0xFF8
  6860                           tblptrh	equ	0xFF7
  6861                           tblptrl	equ	0xFF6
  6862                           tablat	equ	0xFF5
  6863                           prodh	equ	0xFF4
  6864                           prodl	equ	0xFF3
  6865                           intcon	equ	0xFF2
  6866                           intcon2	equ	0xFF1
  6867                           postinc0	equ	0xFEE
  6868                           fsr0h	equ	0xFEA
  6869                           fsr0l	equ	0xFE9
  6870                           wreg	equ	0xFE8
  6871                           postdec1	equ	0xFE5
  6872                           fsr1h	equ	0xFE2
  6873                           fsr1l	equ	0xFE1
  6874                           indf2	equ	0xFDF
  6875                           fsr2h	equ	0xFDA
  6876                           fsr2l	equ	0xFD9
  6877                           status	equ	0xFD8
  6878                           
  6879 ;; *************** function _EUSART1_Receive_ISR *****************
  6880 ;; Defined at:
  6881 ;;		line 104 in file "mcc_generated_files/eusart1.c"
  6882 ;; Parameters:    Size  Location     Type
  6883 ;;		None
  6884 ;; Auto vars:     Size  Location     Type
  6885 ;;  byteReceived    1    8[COMRAM] unsigned char 
  6886 ;; Return value:  Size  Location     Type
  6887 ;;                  1    wreg      void 
  6888 ;; Registers used:
  6889 ;;		wreg, fsr2l, fsr2h, status,2, status,0, prodl, prodh, cstack
  6890 ;; Tracked objects:
  6891 ;;		On entry : 0/0
  6892 ;;		On exit  : 0/0
  6893 ;;		Unchanged: 0/0
  6894 ;; Data sizes:     COMRAM   BANK0   BANK1   BANK2   BANK3   BANK4   BANK5
  6895 ;;      Params:         0       0       0       0       0       0       0
  6896 ;;      Locals:         1       0       0       0       0       0       0
  6897 ;;      Temps:          0       0       0       0       0       0       0
  6898 ;;      Totals:         1       0       0       0       0       0       0
  6899 ;;Total ram usage:        1 bytes
  6900 ;; Hardware stack levels used:    1
  6901 ;; Hardware stack levels required when called:    1
  6902 ;; This function calls:
  6903 ;;		_AppINT_USART1_RX
  6904 ;; This function is called by:
  6905 ;;		_INTERRUPT_InterruptManager
  6906 ;; This function uses a non-reentrant model
  6907 ;;
  6908                           
  6909                           	psect	text37
  6910  001CD6                     __ptext37:
  6911                           	opt stack 0
  6912  001CD6                     _EUSART1_Receive_ISR:
  6913                           	opt stack 25
  6914                           
  6915                           ;eusart1.c: 106: unsigned char byteReceived = 0;
  6916                           
  6917                           ;incstack = 0
  6918  001CD6  0E00               	movlw	0
  6919  001CD8  6E22               	movwf	EUSART1_Receive_ISR@byteReceived,c
  6920                           
  6921                           ;eusart1.c: 107: if (1 == RC1STAbits.OERR)
  6922  001CDA  A2AB               	btfss	4011,1,c	;volatile
  6923  001CDC  D002               	goto	i2l169
  6924                           
  6925                           ;eusart1.c: 108: {
  6926                           ;eusart1.c: 110: RC1STAbits.CREN = 0;
  6927  001CDE  98AB               	bcf	4011,4,c	;volatile
  6928                           
  6929                           ;eusart1.c: 111: RC1STAbits.CREN = 1;
  6930  001CE0  88AB               	bsf	4011,4,c	;volatile
  6931  001CE2                     i2l169:
  6932                           
  6933                           ;eusart1.c: 112: }
  6934                           ;eusart1.c: 113: byteReceived = RCREG1;
  6935  001CE2  CFAE F022          	movff	4014,EUSART1_Receive_ISR@byteReceived	;volatile
  6936                           
  6937                           ;eusart1.c: 114: AppINT_USART1_RX(byteReceived);
  6938  001CE6  5022               	movf	EUSART1_Receive_ISR@byteReceived,w,c
  6939  001CE8  ECE6  F00A         	call	_AppINT_USART1_RX
  6940  001CEC  0012               	return		;funcret
  6941  001CEE                     __end_of_EUSART1_Receive_ISR:
  6942                           	opt stack 0
  6943                           pclatu	equ	0xFFB
  6944                           pclath	equ	0xFFA
  6945                           tblptru	equ	0xFF8
  6946                           tblptrh	equ	0xFF7
  6947                           tblptrl	equ	0xFF6
  6948                           tablat	equ	0xFF5
  6949                           prodh	equ	0xFF4
  6950                           prodl	equ	0xFF3
  6951                           intcon	equ	0xFF2
  6952                           intcon2	equ	0xFF1
  6953                           postinc0	equ	0xFEE
  6954                           fsr0h	equ	0xFEA
  6955                           fsr0l	equ	0xFE9
  6956                           wreg	equ	0xFE8
  6957                           postdec1	equ	0xFE5
  6958                           fsr1h	equ	0xFE2
  6959                           fsr1l	equ	0xFE1
  6960                           indf2	equ	0xFDF
  6961                           fsr2h	equ	0xFDA
  6962                           fsr2l	equ	0xFD9
  6963                           status	equ	0xFD8
  6964                           
  6965 ;; *************** function _AppINT_USART1_RX *****************
  6966 ;; Defined at:
  6967 ;;		line 421 in file "mcc_generated_files/app.c"
  6968 ;; Parameters:    Size  Location     Type
  6969 ;;  rxData          1    wreg     unsigned char 
  6970 ;; Auto vars:     Size  Location     Type
  6971 ;;  rxData          1    7[COMRAM] unsigned char 
  6972 ;; Return value:  Size  Location     Type
  6973 ;;                  1    wreg      void 
  6974 ;; Registers used:
  6975 ;;		wreg, fsr2l, fsr2h, status,2, status,0, prodl, prodh
  6976 ;; Tracked objects:
  6977 ;;		On entry : 0/0
  6978 ;;		On exit  : 0/0
  6979 ;;		Unchanged: 0/0
  6980 ;; Data sizes:     COMRAM   BANK0   BANK1   BANK2   BANK3   BANK4   BANK5
  6981 ;;      Params:         0       0       0       0       0       0       0
  6982 ;;      Locals:         1       0       0       0       0       0       0
  6983 ;;      Temps:          7       0       0       0       0       0       0
  6984 ;;      Totals:         8       0       0       0       0       0       0
  6985 ;;Total ram usage:        8 bytes
  6986 ;; Hardware stack levels used:    1
  6987 ;; This function calls:
  6988 ;;		Nothing
  6989 ;; This function is called by:
  6990 ;;		_EUSART1_Receive_ISR
  6991 ;; This function uses a non-reentrant model
  6992 ;;
  6993                           
  6994                           	psect	text38
  6995  0015CC                     __ptext38:
  6996                           	opt stack 0
  6997  0015CC                     _AppINT_USART1_RX:
  6998                           	opt stack 25
  6999                           
  7000                           ;incstack = 0
  7001                           ;AppINT_USART1_RX@rxData stored from wreg
  7002  0015CC  6E21               	movwf	AppINT_USART1_RX@rxData,c
  7003                           
  7004                           ;app.c: 424: Buffer[Idx1]= rxData;
  7005  0015CE  500A               	movf	_Idx1,w,c
  7006  0015D0  0D01               	mullw	1
  7007  0015D2  0E40               	movlw	low _Buffer
  7008  0015D4  24F3               	addwf	prodl,w,c
  7009  0015D6  6ED9               	movwf	fsr2l,c
  7010  0015D8  0E02               	movlw	high _Buffer
  7011  0015DA  20F4               	addwfc	prodh,w,c
  7012  0015DC  6EDA               	movwf	fsr2h,c
  7013  0015DE  C021  FFDF         	movff	AppINT_USART1_RX@rxData,indf2
  7014                           
  7015                           ;app.c: 425: if(Buffer[Idx1] == 254 && !capturando){
  7016  0015E2  500A               	movf	_Idx1,w,c
  7017  0015E4  0D01               	mullw	1
  7018  0015E6  0E40               	movlw	low _Buffer
  7019  0015E8  24F3               	addwf	prodl,w,c
  7020  0015EA  6ED9               	movwf	fsr2l,c
  7021  0015EC  0E02               	movlw	high _Buffer
  7022  0015EE  20F4               	addwfc	prodh,w,c
  7023  0015F0  6EDA               	movwf	fsr2h,c
  7024  0015F2  0EFE               	movlw	254
  7025  0015F4  18DE               	xorwf	postinc2,w,c
  7026  0015F6  A4D8               	btfss	status,2,c
  7027  0015F8  D095               	goto	i2l3916
  7028  0015FA  5007               	movf	_capturando,w,c
  7029  0015FC  A4D8               	btfss	status,2,c
  7030  0015FE  D092               	goto	i2l3916
  7031                           
  7032                           ;app.c: 426: if(Buffer[Idx1-4]== 85){
  7033  001600  0EFC               	movlw	252
  7034  001602  6E1A               	movwf	??_AppINT_USART1_RX& (0+255),c
  7035  001604  0EFF               	movlw	255
  7036  001606  6E1B               	movwf	(??_AppINT_USART1_RX+1)& (0+255),c
  7037  001608  500A               	movf	_Idx1,w,c
  7038  00160A  6E1C               	movwf	(??_AppINT_USART1_RX+2)& (0+255),c
  7039  00160C  6A1D               	clrf	(??_AppINT_USART1_RX+3)& (0+255),c
  7040  00160E  501A               	movf	??_AppINT_USART1_RX,w,c
  7041  001610  261C               	addwf	??_AppINT_USART1_RX+2,f,c
  7042  001612  501B               	movf	??_AppINT_USART1_RX+1,w,c
  7043  001614  221D               	addwfc	??_AppINT_USART1_RX+3,f,c
  7044  001616  0E40               	movlw	low _Buffer
  7045  001618  241C               	addwf	??_AppINT_USART1_RX+2,w,c
  7046  00161A  6ED9               	movwf	fsr2l,c
  7047  00161C  0E02               	movlw	high _Buffer
  7048  00161E  201D               	addwfc	??_AppINT_USART1_RX+3,w,c
  7049  001620  6EDA               	movwf	fsr2h,c
  7050  001622  0E55               	movlw	85
  7051  001624  18DE               	xorwf	postinc2,w,c
  7052  001626  A4D8               	btfss	status,2,c
  7053  001628  D13B               	goto	i2l742
  7054                           
  7055                           ;app.c: 427: len_package= Buffer[Idx1-1];
  7056  00162A  0EFF               	movlw	255
  7057  00162C  6E1A               	movwf	??_AppINT_USART1_RX& (0+255),c
  7058  00162E  0EFF               	movlw	255
  7059  001630  6E1B               	movwf	(??_AppINT_USART1_RX+1)& (0+255),c
  7060  001632  500A               	movf	_Idx1,w,c
  7061  001634  6E1C               	movwf	(??_AppINT_USART1_RX+2)& (0+255),c
  7062  001636  6A1D               	clrf	(??_AppINT_USART1_RX+3)& (0+255),c
  7063  001638  501A               	movf	??_AppINT_USART1_RX,w,c
  7064  00163A  261C               	addwf	??_AppINT_USART1_RX+2,f,c
  7065  00163C  501B               	movf	??_AppINT_USART1_RX+1,w,c
  7066  00163E  221D               	addwfc	??_AppINT_USART1_RX+3,f,c
  7067  001640  0E40               	movlw	low _Buffer
  7068  001642  241C               	addwf	??_AppINT_USART1_RX+2,w,c
  7069  001644  6ED9               	movwf	fsr2l,c
  7070  001646  0E02               	movlw	high _Buffer
  7071  001648  201D               	addwfc	??_AppINT_USART1_RX+3,w,c
  7072  00164A  6EDA               	movwf	fsr2h,c
  7073  00164C  50DF               	movf	indf2,w,c
  7074  00164E  6E08               	movwf	_len_package,c
  7075                           
  7076                           ;app.c: 429: type= Buffer[Idx1-2];
  7077  001650  0EFE               	movlw	254
  7078  001652  6E1A               	movwf	??_AppINT_USART1_RX& (0+255),c
  7079  001654  0EFF               	movlw	255
  7080  001656  6E1B               	movwf	(??_AppINT_USART1_RX+1)& (0+255),c
  7081  001658  500A               	movf	_Idx1,w,c
  7082  00165A  6E1C               	movwf	(??_AppINT_USART1_RX+2)& (0+255),c
  7083  00165C  6A1D               	clrf	(??_AppINT_USART1_RX+3)& (0+255),c
  7084  00165E  501A               	movf	??_AppINT_USART1_RX,w,c
  7085  001660  261C               	addwf	??_AppINT_USART1_RX+2,f,c
  7086  001662  501B               	movf	??_AppINT_USART1_RX+1,w,c
  7087  001664  221D               	addwfc	??_AppINT_USART1_RX+3,f,c
  7088  001666  0E40               	movlw	low _Buffer
  7089  001668  241C               	addwf	??_AppINT_USART1_RX+2,w,c
  7090  00166A  6ED9               	movwf	fsr2l,c
  7091  00166C  0E02               	movlw	high _Buffer
  7092  00166E  201D               	addwfc	??_AppINT_USART1_RX+3,w,c
  7093  001670  6EDA               	movwf	fsr2h,c
  7094  001672  50DF               	movf	indf2,w,c
  7095  001674  6E1E               	movwf	(??_AppINT_USART1_RX+4)& (0+255),c
  7096  001676  501E               	movf	??_AppINT_USART1_RX+4,w,c
  7097  001678  6E01               	movwf	_type,c
  7098  00167A  6A02               	clrf	_type+1,c
  7099                           
  7100                           ;app.c: 430: channel= Buffer[Idx1-3];
  7101  00167C  0EFD               	movlw	253
  7102  00167E  6E1A               	movwf	??_AppINT_USART1_RX& (0+255),c
  7103  001680  0EFF               	movlw	255
  7104  001682  6E1B               	movwf	(??_AppINT_USART1_RX+1)& (0+255),c
  7105  001684  500A               	movf	_Idx1,w,c
  7106  001686  6E1C               	movwf	(??_AppINT_USART1_RX+2)& (0+255),c
  7107  001688  6A1D               	clrf	(??_AppINT_USART1_RX+3)& (0+255),c
  7108  00168A  501A               	movf	??_AppINT_USART1_RX,w,c
  7109  00168C  261C               	addwf	??_AppINT_USART1_RX+2,f,c
  7110  00168E  501B               	movf	??_AppINT_USART1_RX+1,w,c
  7111  001690  221D               	addwfc	??_AppINT_USART1_RX+3,f,c
  7112  001692  0E40               	movlw	low _Buffer
  7113  001694  241C               	addwf	??_AppINT_USART1_RX+2,w,c
  7114  001696  6ED9               	movwf	fsr2l,c
  7115  001698  0E02               	movlw	high _Buffer
  7116  00169A  201D               	addwfc	??_AppINT_USART1_RX+3,w,c
  7117  00169C  6EDA               	movwf	fsr2h,c
  7118  00169E  50DF               	movf	indf2,w,c
  7119  0016A0  6E1E               	movwf	(??_AppINT_USART1_RX+4)& (0+255),c
  7120  0016A2  501E               	movf	??_AppINT_USART1_RX+4,w,c
  7121  0016A4  6E03               	movwf	_channel,c
  7122  0016A6  6A04               	clrf	_channel+1,c
  7123                           
  7124                           ;app.c: 431: if(channel==0){
  7125  0016A8  5003               	movf	_channel,w,c
  7126  0016AA  1004               	iorwf	_channel+1,w,c
  7127  0016AC  B4D8               	btfsc	status,2,c
  7128  0016AE  D035               	goto	i2l3914
  7129                           
  7130                           ;app.c: 433: else if(channel==1){
  7131                           
  7132                           ;app.c: 432: }
  7133  0016B0  0403               	decf	_channel,w,c
  7134  0016B2  1004               	iorwf	_channel+1,w,c
  7135  0016B4  A4D8               	btfss	status,2,c
  7136  0016B6  D003               	goto	i2l3890
  7137                           
  7138                           ;app.c: 434: ch1_len = len_package;
  7139  0016B8  C008  F012         	movff	_len_package,_ch1_len
  7140                           
  7141                           ;app.c: 435: }
  7142  0016BC  D02E               	goto	i2l3914
  7143  0016BE                     i2l3890:
  7144                           
  7145                           ;app.c: 436: else if(channel==2)
  7146  0016BE  0E02               	movlw	2
  7147  0016C0  1803               	xorwf	_channel,w,c
  7148  0016C2  1004               	iorwf	_channel+1,w,c
  7149  0016C4  A4D8               	btfss	status,2,c
  7150  0016C6  D003               	goto	i2l3894
  7151                           
  7152                           ;app.c: 437: ch2_len = len_package;
  7153  0016C8  C008  F011         	movff	_len_package,_ch2_len
  7154  0016CC  D026               	goto	i2l3914
  7155  0016CE                     i2l3894:
  7156                           
  7157                           ;app.c: 438: else if(channel==3)
  7158  0016CE  0E03               	movlw	3
  7159  0016D0  1803               	xorwf	_channel,w,c
  7160  0016D2  1004               	iorwf	_channel+1,w,c
  7161  0016D4  A4D8               	btfss	status,2,c
  7162  0016D6  D003               	goto	i2l3898
  7163                           
  7164                           ;app.c: 439: ch3_len = len_package;
  7165  0016D8  C008  F010         	movff	_len_package,_ch3_len
  7166  0016DC  D01E               	goto	i2l3914
  7167  0016DE                     i2l3898:
  7168                           
  7169                           ;app.c: 440: else if(channel==4)
  7170  0016DE  0E04               	movlw	4
  7171  0016E0  1803               	xorwf	_channel,w,c
  7172  0016E2  1004               	iorwf	_channel+1,w,c
  7173  0016E4  A4D8               	btfss	status,2,c
  7174  0016E6  D003               	goto	i2l3902
  7175                           
  7176                           ;app.c: 441: ch4_len = len_package;
  7177  0016E8  C008  F00F         	movff	_len_package,_ch4_len
  7178  0016EC  D016               	goto	i2l3914
  7179  0016EE                     i2l3902:
  7180                           
  7181                           ;app.c: 442: else if(channel==5)
  7182  0016EE  0E05               	movlw	5
  7183  0016F0  1803               	xorwf	_channel,w,c
  7184  0016F2  1004               	iorwf	_channel+1,w,c
  7185  0016F4  A4D8               	btfss	status,2,c
  7186  0016F6  D003               	goto	i2l3906
  7187                           
  7188                           ;app.c: 443: ch5_len = len_package;
  7189  0016F8  C008  F00E         	movff	_len_package,_ch5_len
  7190  0016FC  D00E               	goto	i2l3914
  7191  0016FE                     i2l3906:
  7192                           
  7193                           ;app.c: 444: else if(channel==6)
  7194  0016FE  0E06               	movlw	6
  7195  001700  1803               	xorwf	_channel,w,c
  7196  001702  1004               	iorwf	_channel+1,w,c
  7197  001704  A4D8               	btfss	status,2,c
  7198  001706  D003               	goto	i2l3910
  7199                           
  7200                           ;app.c: 445: ch6_len = len_package;
  7201  001708  C008  F00D         	movff	_len_package,_ch6_len
  7202  00170C  D006               	goto	i2l3914
  7203  00170E                     i2l3910:
  7204                           
  7205                           ;app.c: 446: else if(channel==7)
  7206  00170E  0E07               	movlw	7
  7207  001710  1803               	xorwf	_channel,w,c
  7208  001712  1004               	iorwf	_channel+1,w,c
  7209  001714  B4D8               	btfsc	status,2,c
  7210                           
  7211                           ;app.c: 447: ch7_len = len_package;
  7212  001716  C008  F00C         	movff	_len_package,_ch7_len
  7213  00171A                     i2l3914:
  7214                           
  7215                           ;app.c: 448: capturando = 1;
  7216  00171A  0E01               	movlw	1
  7217  00171C  6E07               	movwf	_capturando,c
  7218                           
  7219                           ;app.c: 449: Idx2 = 0;
  7220  00171E  0E00               	movlw	0
  7221  001720  6E09               	movwf	_Idx2,c
  7222                           
  7223                           ;app.c: 450: }
  7224                           ;app.c: 451: }
  7225  001722  D0BE               	goto	i2l742
  7226  001724                     i2l3916:
  7227                           
  7228                           ;app.c: 452: else {
  7229                           ;app.c: 453: if(capturando){
  7230  001724  5007               	movf	_capturando,w,c
  7231  001726  B4D8               	btfsc	status,2,c
  7232  001728  D0BB               	goto	i2l742
  7233                           
  7234                           ;app.c: 454: if(channel==0){
  7235  00172A  5003               	movf	_channel,w,c
  7236  00172C  1004               	iorwf	_channel+1,w,c
  7237  00172E  B4D8               	btfsc	status,2,c
  7238  001730  D056               	goto	i2l3950
  7239                           
  7240                           ;app.c: 456: else if(channel==1)
  7241                           
  7242                           ;app.c: 455: }
  7243  001732  0403               	decf	_channel,w,c
  7244  001734  1004               	iorwf	_channel+1,w,c
  7245  001736  A4D8               	btfss	status,2,c
  7246  001738  D007               	goto	i2l3926
  7247                           
  7248                           ;app.c: 457: CH1[Idx2] = rxData;
  7249  00173A  5009               	movf	_Idx2,w,c
  7250  00173C  0D01               	mullw	1
  7251  00173E  0EA0               	movlw	low _CH1
  7252  001740  24F3               	addwf	prodl,w,c
  7253  001742  6ED9               	movwf	fsr2l,c
  7254  001744  0E00               	movlw	high _CH1
  7255  001746  D047               	goto	L7
  7256  001748                     i2l3926:
  7257                           
  7258                           ;app.c: 458: else if(channel==2)
  7259  001748  0E02               	movlw	2
  7260  00174A  1803               	xorwf	_channel,w,c
  7261  00174C  1004               	iorwf	_channel+1,w,c
  7262  00174E  A4D8               	btfss	status,2,c
  7263  001750  D007               	goto	i2l3930
  7264                           
  7265                           ;app.c: 459: CH2[Idx2] = rxData;
  7266  001752  5009               	movf	_Idx2,w,c
  7267  001754  0D01               	mullw	1
  7268  001756  0E60               	movlw	low _CH2
  7269  001758  24F3               	addwf	prodl,w,c
  7270  00175A  6ED9               	movwf	fsr2l,c
  7271  00175C  0E00               	movlw	high _CH2
  7272  00175E  D03B               	goto	L7
  7273  001760                     i2l3930:
  7274                           
  7275                           ;app.c: 460: else if(channel==3)
  7276  001760  0E03               	movlw	3
  7277  001762  1803               	xorwf	_channel,w,c
  7278  001764  1004               	iorwf	_channel+1,w,c
  7279  001766  A4D8               	btfss	status,2,c
  7280  001768  D007               	goto	i2l3934
  7281                           
  7282                           ;app.c: 461: CH3[Idx2] = rxData;
  7283  00176A  5009               	movf	_Idx2,w,c
  7284  00176C  0D01               	mullw	1
  7285  00176E  0EC0               	movlw	low _CH3
  7286  001770  24F3               	addwf	prodl,w,c
  7287  001772  6ED9               	movwf	fsr2l,c
  7288  001774  0E01               	movlw	high _CH3
  7289  001776  D02F               	goto	L7
  7290  001778                     i2l3934:
  7291                           
  7292                           ;app.c: 462: else if(channel==4)
  7293  001778  0E04               	movlw	4
  7294  00177A  1803               	xorwf	_channel,w,c
  7295  00177C  1004               	iorwf	_channel+1,w,c
  7296  00177E  A4D8               	btfss	status,2,c
  7297  001780  D007               	goto	i2l3938
  7298                           
  7299                           ;app.c: 463: CH4[Idx2] = rxData;
  7300  001782  5009               	movf	_Idx2,w,c
  7301  001784  0D01               	mullw	1
  7302  001786  0E80               	movlw	low _CH4
  7303  001788  24F3               	addwf	prodl,w,c
  7304  00178A  6ED9               	movwf	fsr2l,c
  7305  00178C  0E01               	movlw	high _CH4
  7306  00178E  D023               	goto	L7
  7307  001790                     i2l3938:
  7308                           
  7309                           ;app.c: 464: else if(channel==5)
  7310  001790  0E05               	movlw	5
  7311  001792  1803               	xorwf	_channel,w,c
  7312  001794  1004               	iorwf	_channel+1,w,c
  7313  001796  A4D8               	btfss	status,2,c
  7314  001798  D007               	goto	i2l3942
  7315                           
  7316                           ;app.c: 465: CH5[Idx2] = rxData;
  7317  00179A  5009               	movf	_Idx2,w,c
  7318  00179C  0D01               	mullw	1
  7319  00179E  0E40               	movlw	low _CH5
  7320  0017A0  24F3               	addwf	prodl,w,c
  7321  0017A2  6ED9               	movwf	fsr2l,c
  7322  0017A4  0E01               	movlw	high _CH5
  7323  0017A6  D017               	goto	L7
  7324  0017A8                     i2l3942:
  7325                           
  7326                           ;app.c: 466: else if(channel==6)
  7327  0017A8  0E06               	movlw	6
  7328  0017AA  1803               	xorwf	_channel,w,c
  7329  0017AC  1004               	iorwf	_channel+1,w,c
  7330  0017AE  A4D8               	btfss	status,2,c
  7331  0017B0  D007               	goto	i2l3946
  7332                           
  7333                           ;app.c: 467: CH6[Idx2] = rxData;
  7334  0017B2  5009               	movf	_Idx2,w,c
  7335  0017B4  0D01               	mullw	1
  7336  0017B6  0E00               	movlw	low _CH6
  7337  0017B8  24F3               	addwf	prodl,w,c
  7338  0017BA  6ED9               	movwf	fsr2l,c
  7339  0017BC  0E01               	movlw	high _CH6
  7340  0017BE  D00B               	goto	L7
  7341  0017C0                     i2l3946:
  7342                           
  7343                           ;app.c: 468: else if(channel==7)
  7344  0017C0  0E07               	movlw	7
  7345  0017C2  1803               	xorwf	_channel,w,c
  7346  0017C4  1004               	iorwf	_channel+1,w,c
  7347  0017C6  A4D8               	btfss	status,2,c
  7348  0017C8  D00A               	goto	i2l3950
  7349                           
  7350                           ;app.c: 469: CH7[Idx2] = rxData;
  7351  0017CA  5009               	movf	_Idx2,w,c
  7352  0017CC  0D01               	mullw	1
  7353  0017CE  0E00               	movlw	low _CH7
  7354  0017D0  24F3               	addwf	prodl,w,c
  7355  0017D2  6ED9               	movwf	fsr2l,c
  7356  0017D4  0E02               	movlw	high _CH7
  7357  0017D6                     L7:
  7358  0017D6  20F4               	addwfc	prodh,w,c
  7359  0017D8  6EDA               	movwf	fsr2h,c
  7360  0017DA  C021  FFDF         	movff	AppINT_USART1_RX@rxData,indf2
  7361  0017DE                     i2l3950:
  7362                           
  7363                           ;app.c: 471: Idx1=0;
  7364  0017DE  0E00               	movlw	0
  7365  0017E0  6E0A               	movwf	_Idx1,c
  7366                           
  7367                           ;app.c: 473: if(Idx2 >= len_package-2){
  7368  0017E2  0EFE               	movlw	254
  7369  0017E4  6E1A               	movwf	??_AppINT_USART1_RX& (0+255),c
  7370  0017E6  0EFF               	movlw	255
  7371  0017E8  6E1B               	movwf	(??_AppINT_USART1_RX+1)& (0+255),c
  7372  0017EA  5008               	movf	_len_package,w,c
  7373  0017EC  6E1C               	movwf	(??_AppINT_USART1_RX+2)& (0+255),c
  7374  0017EE  6A1D               	clrf	(??_AppINT_USART1_RX+3)& (0+255),c
  7375  0017F0  501A               	movf	??_AppINT_USART1_RX,w,c
  7376  0017F2  261C               	addwf	??_AppINT_USART1_RX+2,f,c
  7377  0017F4  501B               	movf	??_AppINT_USART1_RX+1,w,c
  7378  0017F6  221D               	addwfc	??_AppINT_USART1_RX+3,f,c
  7379  0017F8  5009               	movf	_Idx2,w,c
  7380  0017FA  6E1E               	movwf	(??_AppINT_USART1_RX+4)& (0+255),c
  7381  0017FC  6A1F               	clrf	(??_AppINT_USART1_RX+5)& (0+255),c
  7382  0017FE  501C               	movf	??_AppINT_USART1_RX+2,w,c
  7383  001800  5C1E               	subwf	??_AppINT_USART1_RX+4,w,c
  7384  001802  501F               	movf	??_AppINT_USART1_RX+5,w,c
  7385  001804  0A80               	xorlw	128
  7386  001806  6E20               	movwf	(??_AppINT_USART1_RX+6)& (0+255),c
  7387  001808  501D               	movf	??_AppINT_USART1_RX+3,w,c
  7388  00180A  0A80               	xorlw	128
  7389  00180C  5820               	subwfb	(??_AppINT_USART1_RX+6)& (0+255),w,c
  7390  00180E  A0D8               	btfss	status,0,c
  7391  001810  D046               	goto	i2l3990
  7392                           
  7393                           ;app.c: 474: capturando=0;
  7394  001812  0E00               	movlw	0
  7395  001814  6E07               	movwf	_capturando,c
  7396                           
  7397                           ;app.c: 475: Idx1=0;
  7398  001816  0E00               	movlw	0
  7399  001818  6E0A               	movwf	_Idx1,c
  7400                           
  7401                           ;app.c: 476: Idx2=0;
  7402  00181A  0E00               	movlw	0
  7403  00181C  6E09               	movwf	_Idx2,c
  7404                           
  7405                           ;app.c: 477: if(channel==0){
  7406  00181E  5003               	movf	_channel,w,c
  7407  001820  1004               	iorwf	_channel+1,w,c
  7408  001822  B4D8               	btfsc	status,2,c
  7409  001824  D036               	goto	i2l3988
  7410                           
  7411                           ;app.c: 479: else if(channel==1)
  7412                           
  7413                           ;app.c: 478: }
  7414  001826  0403               	decf	_channel,w,c
  7415  001828  1004               	iorwf	_channel+1,w,c
  7416  00182A  A4D8               	btfss	status,2,c
  7417  00182C  D003               	goto	i2l3964
  7418                           
  7419                           ;app.c: 480: SendLedsCh1 = 1;
  7420  00182E  0E01               	movlw	1
  7421  001830  6E19               	movwf	_SendLedsCh1,c
  7422  001832  D02F               	goto	i2l3988
  7423  001834                     i2l3964:
  7424                           
  7425                           ;app.c: 481: else if(channel==2)
  7426  001834  0E02               	movlw	2
  7427  001836  1803               	xorwf	_channel,w,c
  7428  001838  1004               	iorwf	_channel+1,w,c
  7429  00183A  A4D8               	btfss	status,2,c
  7430  00183C  D003               	goto	i2l3968
  7431                           
  7432                           ;app.c: 482: SendLedsCh2 = 1;
  7433  00183E  0E01               	movlw	1
  7434  001840  6E18               	movwf	_SendLedsCh2,c
  7435  001842  D027               	goto	i2l3988
  7436  001844                     i2l3968:
  7437                           
  7438                           ;app.c: 483: else if(channel==3)
  7439  001844  0E03               	movlw	3
  7440  001846  1803               	xorwf	_channel,w,c
  7441  001848  1004               	iorwf	_channel+1,w,c
  7442  00184A  A4D8               	btfss	status,2,c
  7443  00184C  D003               	goto	i2l3972
  7444                           
  7445                           ;app.c: 484: SendLedsCh3 = 1;
  7446  00184E  0E01               	movlw	1
  7447  001850  6E17               	movwf	_SendLedsCh3,c
  7448  001852  D01F               	goto	i2l3988
  7449  001854                     i2l3972:
  7450                           
  7451                           ;app.c: 485: else if(channel==4)
  7452  001854  0E04               	movlw	4
  7453  001856  1803               	xorwf	_channel,w,c
  7454  001858  1004               	iorwf	_channel+1,w,c
  7455  00185A  A4D8               	btfss	status,2,c
  7456  00185C  D003               	goto	i2l3976
  7457                           
  7458                           ;app.c: 486: SendLedsCh4 = 1;
  7459  00185E  0E01               	movlw	1
  7460  001860  6E16               	movwf	_SendLedsCh4,c
  7461  001862  D017               	goto	i2l3988
  7462  001864                     i2l3976:
  7463                           
  7464                           ;app.c: 487: else if(channel==5)
  7465  001864  0E05               	movlw	5
  7466  001866  1803               	xorwf	_channel,w,c
  7467  001868  1004               	iorwf	_channel+1,w,c
  7468  00186A  A4D8               	btfss	status,2,c
  7469  00186C  D003               	goto	i2l3980
  7470                           
  7471                           ;app.c: 488: SendLedsCh5 = 1;
  7472  00186E  0E01               	movlw	1
  7473  001870  6E15               	movwf	_SendLedsCh5,c
  7474  001872  D00F               	goto	i2l3988
  7475  001874                     i2l3980:
  7476                           
  7477                           ;app.c: 489: else if(channel==6)
  7478  001874  0E06               	movlw	6
  7479  001876  1803               	xorwf	_channel,w,c
  7480  001878  1004               	iorwf	_channel+1,w,c
  7481  00187A  A4D8               	btfss	status,2,c
  7482  00187C  D003               	goto	i2l3984
  7483                           
  7484                           ;app.c: 490: SendLedsCh6 = 1;
  7485  00187E  0E01               	movlw	1
  7486  001880  6E14               	movwf	_SendLedsCh6,c
  7487  001882  D007               	goto	i2l3988
  7488  001884                     i2l3984:
  7489                           
  7490                           ;app.c: 491: else if(channel==7)
  7491  001884  0E07               	movlw	7
  7492  001886  1803               	xorwf	_channel,w,c
  7493  001888  1004               	iorwf	_channel+1,w,c
  7494  00188A  A4D8               	btfss	status,2,c
  7495  00188C  D002               	goto	i2l3988
  7496                           
  7497                           ;app.c: 492: SendLedsCh7 = 1;
  7498  00188E  0E01               	movlw	1
  7499  001890  6E13               	movwf	_SendLedsCh7,c
  7500  001892                     i2l3988:
  7501  001892  B68B               	btfsc	3979,3,c	;volatile
  7502  001894  D002               	goto	i2u443_40
  7503  001896  868B               	bsf	3979,3,c	;volatile
  7504  001898  D003               	goto	i2l742
  7505  00189A                     i2u443_40:
  7506  00189A  968B               	bcf	3979,3,c	;volatile
  7507                           
  7508                           ;app.c: 494: }
  7509  00189C  D001               	goto	i2l742
  7510  00189E                     i2l3990:
  7511                           
  7512                           ;app.c: 495: else
  7513                           ;app.c: 496: Idx2++;
  7514  00189E  2A09               	incf	_Idx2,f,c
  7515  0018A0                     i2l742:
  7516                           
  7517                           ;app.c: 497: }
  7518                           ;app.c: 498: }
  7519                           ;app.c: 499: Idx1++;
  7520  0018A0  2A0A               	incf	_Idx1,f,c
  7521  0018A2  0012               	return		;funcret
  7522  0018A4                     __end_of_AppINT_USART1_RX:
  7523                           	opt stack 0
  7524  0000                     pclatu	equ	0xFFB
  7525                           pclath	equ	0xFFA
  7526                           tblptru	equ	0xFF8
  7527                           tblptrh	equ	0xFF7
  7528                           tblptrl	equ	0xFF6
  7529                           tablat	equ	0xFF5
  7530                           prodh	equ	0xFF4
  7531                           prodl	equ	0xFF3
  7532                           intcon	equ	0xFF2
  7533                           intcon2	equ	0xFF1
  7534                           postinc0	equ	0xFEE
  7535                           fsr0h	equ	0xFEA
  7536                           fsr0l	equ	0xFE9
  7537                           wreg	equ	0xFE8
  7538                           postdec1	equ	0xFE5
  7539                           fsr1h	equ	0xFE2
  7540                           fsr1l	equ	0xFE1
  7541                           indf2	equ	0xFDF
  7542                           postinc2	equ	0xFDE
  7543                           fsr2h	equ	0xFDA
  7544                           fsr2l	equ	0xFD9
  7545                           status	equ	0xFD8
  7546                           pclatu	equ	0xFFB
  7547                           pclath	equ	0xFFA
  7548                           tblptru	equ	0xFF8
  7549                           tblptrh	equ	0xFF7
  7550                           tblptrl	equ	0xFF6
  7551                           tablat	equ	0xFF5
  7552                           prodh	equ	0xFF4
  7553                           prodl	equ	0xFF3
  7554                           intcon	equ	0xFF2
  7555                           intcon2	equ	0xFF1
  7556                           postinc0	equ	0xFEE
  7557                           fsr0h	equ	0xFEA
  7558                           fsr0l	equ	0xFE9
  7559                           wreg	equ	0xFE8
  7560                           postdec1	equ	0xFE5
  7561                           fsr1h	equ	0xFE2
  7562                           fsr1l	equ	0xFE1
  7563                           indf2	equ	0xFDF
  7564                           postinc2	equ	0xFDE
  7565                           fsr2h	equ	0xFDA
  7566                           fsr2l	equ	0xFD9
  7567                           status	equ	0xFD8
  7568                           
  7569                           	psect	rparam
  7570  0000                     pclatu	equ	0xFFB
  7571                           pclath	equ	0xFFA
  7572                           tblptru	equ	0xFF8
  7573                           tblptrh	equ	0xFF7
  7574                           tblptrl	equ	0xFF6
  7575                           tablat	equ	0xFF5
  7576                           prodh	equ	0xFF4
  7577                           prodl	equ	0xFF3
  7578                           intcon	equ	0xFF2
  7579                           intcon2	equ	0xFF1
  7580                           postinc0	equ	0xFEE
  7581                           fsr0h	equ	0xFEA
  7582                           fsr0l	equ	0xFE9
  7583                           wreg	equ	0xFE8
  7584                           postdec1	equ	0xFE5
  7585                           fsr1h	equ	0xFE2
  7586                           fsr1l	equ	0xFE1
  7587                           indf2	equ	0xFDF
  7588                           postinc2	equ	0xFDE
  7589                           fsr2h	equ	0xFDA
  7590                           fsr2l	equ	0xFD9
  7591                           status	equ	0xFD8
  7592                           
  7593                           	psect	temp
  7594  000039                     btemp:
  7595                           	opt stack 0
  7596  000039                     	ds	1
  7597  0000                     int$flags	set	btemp
  7598                           pclatu	equ	0xFFB
  7599                           pclath	equ	0xFFA
  7600                           tblptru	equ	0xFF8
  7601                           tblptrh	equ	0xFF7
  7602                           tblptrl	equ	0xFF6
  7603                           tablat	equ	0xFF5
  7604                           prodh	equ	0xFF4
  7605                           prodl	equ	0xFF3
  7606                           intcon	equ	0xFF2
  7607                           intcon2	equ	0xFF1
  7608                           postinc0	equ	0xFEE
  7609                           fsr0h	equ	0xFEA
  7610                           fsr0l	equ	0xFE9
  7611                           wreg	equ	0xFE8
  7612                           postdec1	equ	0xFE5
  7613                           fsr1h	equ	0xFE2
  7614                           fsr1l	equ	0xFE1
  7615                           indf2	equ	0xFDF
  7616                           postinc2	equ	0xFDE
  7617                           fsr2h	equ	0xFDA
  7618                           fsr2l	equ	0xFD9
  7619                           status	equ	0xFD8


Data Sizes:
    Strings     0
    Constant    0
    Data        8
    BSS         537
    Persistent  0
    Stack       0

Auto Spaces:
    Space          Size  Autos    Used
    COMRAM           94     23      56
    BANK0           160      0     128
    BANK1           256      0     256
    BANK2           256      0     128
    BANK3           256      0       0
    BANK4           256      0       0
    BANK5           256      0       0

Pointer List with Targets:

    None.

Critical Paths under _main in COMRAM

    None.

Critical Paths under _INTERRUPT_InterruptManager in COMRAM

    _INTERRUPT_InterruptManager->_EUSART1_Receive_ISR
    _AppTimer1ms->_SendBuffCh1
    _AppTimer1ms->_SendBuffCh2
    _AppTimer1ms->_SendBuffCh3
    _AppTimer1ms->_SendBuffCh4
    _AppTimer1ms->_SendBuffCh5
    _AppTimer1ms->_SendBuffCh6
    _AppTimer1ms->_SendBuffCh7
    _EUSART1_Receive_ISR->_AppINT_USART1_RX

Critical Paths under _main in BANK0

    None.

Critical Paths under _INTERRUPT_InterruptManager in BANK0

    None.

Critical Paths under _main in BANK1

    None.

Critical Paths under _INTERRUPT_InterruptManager in BANK1

    None.

Critical Paths under _main in BANK2

    None.

Critical Paths under _INTERRUPT_InterruptManager in BANK2

    None.

Critical Paths under _main in BANK3

    None.

Critical Paths under _INTERRUPT_InterruptManager in BANK3

    None.

Critical Paths under _main in BANK4

    None.

Critical Paths under _INTERRUPT_InterruptManager in BANK4

    None.

Critical Paths under _main in BANK5

    None.

Critical Paths under _INTERRUPT_InterruptManager in BANK5

    None.

Call Graph Tables:

 ---------------------------------------------------------------------------------
 (Depth) Function   	        Calls       Base Space   Used Autos Params    Refs
 ---------------------------------------------------------------------------------
 (0) _main                                                 0     0      0       0
                      _AppInitialize
                         _AppProcess
                  _SYSTEM_Initialize
 ---------------------------------------------------------------------------------
 (1) _SYSTEM_Initialize                                    0     0      0       0
                 _EUSART1_Initialize
               _INTERRUPT_Initialize
              _OSCILLATOR_Initialize
             _PIN_MANAGER_Initialize
                    _TMR0_Initialize
 ---------------------------------------------------------------------------------
 (2) _TMR0_Initialize                                      0     0      0       0
                    _TMR0_StartTimer
 ---------------------------------------------------------------------------------
 (3) _TMR0_StartTimer                                      0     0      0       0
 ---------------------------------------------------------------------------------
 (2) _PIN_MANAGER_Initialize                               0     0      0       0
 ---------------------------------------------------------------------------------
 (2) _OSCILLATOR_Initialize                                0     0      0       0
 ---------------------------------------------------------------------------------
 (2) _INTERRUPT_Initialize                                 0     0      0       0
 ---------------------------------------------------------------------------------
 (2) _EUSART1_Initialize                                   0     0      0       0
 ---------------------------------------------------------------------------------
 (1) _AppProcess                                           0     0      0       0
 ---------------------------------------------------------------------------------
 (1) _AppInitialize                                        0     0      0       0
 ---------------------------------------------------------------------------------
 Estimated maximum stack depth 3
 ---------------------------------------------------------------------------------
 (Depth) Function   	        Calls       Base Space   Used Autos Params    Refs
 ---------------------------------------------------------------------------------
 (4) _INTERRUPT_InterruptManager                          14    14      0    4498
                                              9 COMRAM    14    14      0
                _EUSART1_Receive_ISR
               _EUSART1_Transmit_ISR
                           _TMR0_ISR
 ---------------------------------------------------------------------------------
 (5) _TMR0_ISR                                             0     0      0    4298
                      _TMR0_CallBack
 ---------------------------------------------------------------------------------
 (6) _TMR0_CallBack                                        0     0      0    4298
                       _AppTimer30us
 ---------------------------------------------------------------------------------
 (7) _AppTimer30us                                         0     0      0    4298
                        _AppTimer1ms
 ---------------------------------------------------------------------------------
 (8) _AppTimer1ms                                          0     0      0    4298
                        _SendBuffCh1
                        _SendBuffCh2
                        _SendBuffCh3
                        _SendBuffCh4
                        _SendBuffCh5
                        _SendBuffCh6
                        _SendBuffCh7
 ---------------------------------------------------------------------------------
 (9) _SendBuffCh7                                          3     1      2     614
                                              0 COMRAM     3     1      2
                               _um_7
                             _zero_7
 ---------------------------------------------------------------------------------
 (10) _zero_7                                              0     0      0       0
 ---------------------------------------------------------------------------------
 (10) _um_7                                                0     0      0       0
 ---------------------------------------------------------------------------------
 (9) _SendBuffCh6                                          3     1      2     614
                                              0 COMRAM     3     1      2
                               _um_6
                             _zero_6
 ---------------------------------------------------------------------------------
 (10) _zero_6                                              0     0      0       0
 ---------------------------------------------------------------------------------
 (10) _um_6                                                0     0      0       0
 ---------------------------------------------------------------------------------
 (9) _SendBuffCh5                                          3     1      2     614
                                              0 COMRAM     3     1      2
                               _um_5
                             _zero_5
 ---------------------------------------------------------------------------------
 (10) _zero_5                                              0     0      0       0
 ---------------------------------------------------------------------------------
 (10) _um_5                                                0     0      0       0
 ---------------------------------------------------------------------------------
 (9) _SendBuffCh4                                          3     1      2     614
                                              0 COMRAM     3     1      2
                               _um_4
                             _zero_4
 ---------------------------------------------------------------------------------
 (10) _zero_4                                              0     0      0       0
 ---------------------------------------------------------------------------------
 (10) _um_4                                                0     0      0       0
 ---------------------------------------------------------------------------------
 (9) _SendBuffCh3                                          3     1      2     614
                                              0 COMRAM     3     1      2
                               _um_3
                             _zero_3
 ---------------------------------------------------------------------------------
 (10) _zero_3                                              0     0      0       0
 ---------------------------------------------------------------------------------
 (10) _um_3                                                0     0      0       0
 ---------------------------------------------------------------------------------
 (9) _SendBuffCh2                                          3     1      2     614
                                              0 COMRAM     3     1      2
                               _um_2
                             _zero_2
 ---------------------------------------------------------------------------------
 (10) _zero_2                                              0     0      0       0
 ---------------------------------------------------------------------------------
 (10) _um_2                                                0     0      0       0
 ---------------------------------------------------------------------------------
 (9) _SendBuffCh1                                          3     1      2     614
                                              0 COMRAM     3     1      2
                               _um_1
                             _zero_1
 ---------------------------------------------------------------------------------
 (10) _zero_1                                              0     0      0       0
 ---------------------------------------------------------------------------------
 (10) _um_1                                                0     0      0       0
 ---------------------------------------------------------------------------------
 (5) _EUSART1_Transmit_ISR                                 0     0      0       0
 ---------------------------------------------------------------------------------
 (5) _EUSART1_Receive_ISR                                  1     1      0     200
                                              8 COMRAM     1     1      0
                   _AppINT_USART1_RX
 ---------------------------------------------------------------------------------
 (6) _AppINT_USART1_RX                                     8     8      0     176
                                              0 COMRAM     8     8      0
 ---------------------------------------------------------------------------------
 Estimated maximum stack depth 10
 ---------------------------------------------------------------------------------

 Call Graph Graphs:

 _main (ROOT)
   _AppInitialize
   _AppProcess
   _SYSTEM_Initialize
     _EUSART1_Initialize
     _INTERRUPT_Initialize
     _OSCILLATOR_Initialize
     _PIN_MANAGER_Initialize
     _TMR0_Initialize
       _TMR0_StartTimer

 _INTERRUPT_InterruptManager (ROOT)
   _EUSART1_Receive_ISR
     _AppINT_USART1_RX
   _EUSART1_Transmit_ISR
   _TMR0_ISR
     _TMR0_CallBack
       _AppTimer30us
         _AppTimer1ms
           _SendBuffCh1
             _um_1
             _zero_1
           _SendBuffCh2
             _um_2
             _zero_2
           _SendBuffCh3
             _um_3
             _zero_3
           _SendBuffCh4
             _um_4
             _zero_4
           _SendBuffCh5
             _um_5
             _zero_5
           _SendBuffCh6
             _um_6
             _zero_6
           _SendBuffCh7
             _um_7
             _zero_7

 Address spaces:
Name               Size   Autos  Total    Cost      Usage
BIGRAM             5FF      0       0      16        0.0%
EEDATA             100      0       0       0        0.0%
BITBANK5           100      0       0      14        0.0%
BANK5              100      0       0      15        0.0%
BITBANK4           100      0       0      12        0.0%
BANK4              100      0       0      13        0.0%
BITBANK3           100      0       0      10        0.0%
BANK3              100      0       0      11        0.0%
BITBANK2           100      0       0       7        0.0%
BANK2              100      0      80       8       50.0%
BITBANK1           100      0       0       5        0.0%
BANK1              100      0     100       6      100.0%
BITBANK0            A0      0       0       3        0.0%
BANK0               A0      0      80       4       80.0%
BITCOMRAM           5E      0       0       0        0.0%
COMRAM              5E     17      38       1       59.6%
BITSFR_1             0      0       0     200        0.0%
SFR_1                0      0       0     200        0.0%
BITSFR               0      0       0     200        0.0%
SFR                  0      0       0     200        0.0%
STACK                0      0       0       2        0.0%
NULL                 0      0       0       0        0.0%
ABS                  0      0     238       9        0.0%
DATA                 0      0     238      17        0.0%
CODE                 0      0       0       0        0.0%


Microchip Technology PIC18 Macro Assembler V1.41 build -162212810 
Symbol Table                                                                                   Sun May 23 14:12:37 2021

                       __CFG_CP0$OFF 000000                         __CFG_CP1$OFF 000000  
                       __CFG_CP2$OFF 000000                         __CFG_CP3$OFF 000000  
                __end_of_AppTimer1ms 19DA                __end_of_AppInitialize 1D66  
                                l123 1D38                                  l181 1D2A  
                                _CH1 00A0                                  l270 1D74  
                                _CH2 0060                                  _CH3 01C0  
                                _CH4 0180                                  _CH5 0140  
                                _CH6 0100                                  _CH7 0200  
                       __CFG_CPB$OFF 000000                         __CFG_CPD$OFF 000000  
                                prod 000FF3                                  wreg 000FE8  
               __end_of_AppTimer30us 1A58                         __CFG_LVP$OFF 000000  
                               _LATA 000F89                                 _LATB 000F8A  
                               _LATC 000F8B                                 i2l91 004E  
                               i2l92 006E                                 i2l93 005A  
                               i2l95 0066                                 _WPUB 000F61  
                               _Idx0 000B                                 _Idx1 000A  
                               _Idx2 0009                                 _main 1D1A  
                               _um_1 1BC4                                 _um_2 1BA0  
                               _um_3 1B7C                                 _um_4 1B58  
                               _um_5 1B34                                 _um_6 1B10  
                               _um_7 1AEC                      _TMR0_StartTimer 1D6C  
                               fsr0h 000FEA                                 fsr1h 000FE2  
                               fsr2h 000FDA                                 fsr0l 000FE9  
                               indf2 000FDF                                 fsr1l 000FE1  
                               fsr2l 000FD9                                 btemp 0039  
                      __CFG_BORV$190 000000                                 _type 0001  
                               prodh 000FF4                                 prodl 000FF3  
                               start 00AC                        __CFG_IESO$OFF 000000  
                       ___param_bank 000000                           _AppProcess 1D74  
            __end_of_TMR0_Initialize 1D1A       __size_of_OSCILLATOR_Initialize 0012  
      __end_of_OSCILLATOR_Initialize 1D3E                 AppTimer30us@count1ms 0037  
                              ?_main 001A                                ?_um_1 001A  
                              ?_um_2 001A                                ?_um_3 001A  
                              ?_um_4 001A                                ?_um_5 001A  
                              ?_um_6 001A                                ?_um_7 001A  
                              _T0CON 000FD5                                _LATB0 007C50  
                              _LATB1 007C51                                _LATB2 007C52  
                              _LATC0 007C58                                _LATB3 007C53  
                              _LATB4 007C54                                _LATB5 007C55  
                              _LATC3 007C5B                                i2l169 1CE2  
                              i2l742 18A0                                i2l691 1980  
                              i2l683 1928                                i2l675 18D0  
                              i2l695 19AC                                i2l687 1954  
                              i2l679 18FC                                _TMR0H 000FD7  
                              _TMR0L 000FD6                                _TRISA 000F92  
                              _TRISB 000F93                                _TRISC 000F94  
                      __CFG_WRT0$OFF 000000                        __CFG_WRT1$OFF 000000  
                      __CFG_WRT2$OFF 000000                        __CFG_WRT3$OFF 000000  
               _EUSART1_Transmit_ISR 1D70                       __CFG_EBTR0$OFF 000000  
                     __CFG_FCMEN$OFF 000000                       __CFG_EBTR1$OFF 000000  
                     __CFG_EBTR2$OFF 000000                       __CFG_EBTR3$OFF 000000  
                   __end_of_TMR0_ISR 1D4E                        __CFG_WRTB$OFF 000000  
                      __CFG_WRTC$OFF 000000                        __CFG_WRTD$OFF 000000  
                     __CFG_EBTRB$OFF 000000                   __CFG_MCLRE$EXTMCLR 000000  
              SendBuffCh1@idx_color1 001C                SendBuffCh1@idx_color2 001A  
              SendBuffCh1@idx_color3 001B                                pclath 000FFA  
                              tablat 000FF5                                status 000FD8  
                     __CFG_HFOFST$ON 000000                       __CFG_PBADEN$ON 000000  
                   _AppINT_USART1_RX 15CC                        ??_SendBuffCh1 001C  
                      ??_SendBuffCh2 001C                        ??_SendBuffCh3 001C  
                      ??_SendBuffCh4 001C                        ??_SendBuffCh5 001C  
                      ??_SendBuffCh6 001C                        ??_SendBuffCh7 001C  
                    __initialization 1A58                          _AppTimer1ms 18A4  
         __end_of_EUSART1_Initialize 1CD6                         __end_of_main 1D2C  
                       __end_of_um_1 1BE8                         __end_of_um_2 1BC4  
                       __end_of_um_3 1BA0                         __end_of_um_4 1B7C  
                       __end_of_um_5 1B58                         __end_of_um_6 1B34  
                       __end_of_um_7 1B10                SendBuffCh2@idx_color1 001C  
              SendBuffCh2@idx_color2 001A                SendBuffCh2@idx_color3 001B  
        ?_INTERRUPT_InterruptManager 001A                               ??_main 0031  
                             ??_um_1 001A                               ??_um_2 001A  
                             ??_um_3 001A                               ??_um_4 001A  
                             ??_um_5 001A                               ??_um_6 001A  
                             ??_um_7 001A                        __activetblptr 000000  
                     __CFG_PLLCFG$ON 000000                ?_EUSART1_Transmit_ISR 001A  
              AppTimer30us@count10ms 0035              __end_of_TMR0_StartTimer 1D70  
                             _ANSELA 000F38                               _ANSELB 000F39  
                             _ANSELC 000F3A                SendBuffCh3@idx_color1 001C  
              SendBuffCh3@idx_color2 001A                SendBuffCh3@idx_color3 001B  
                             _RC1STA 000FAB                               i2l3000 11A6  
                             i2l3010 11E2                               i2l3012 11E6  
                             i2l3004 11C2                               i2l3100 0DBE  
                             i2l3030 1246                               i2l3022 1222  
                             i2l3006 11C6                               i2l3102 0DC2  
                             i2l3040 1282                               i2l3024 1226  
                             i2l3016 1202                               i2l3120 0E22  
                             i2l3112 0DFE                               i2l3042 1286  
                             i2l3034 1262                               i2l3018 1206  
                             i2l3130 0E5E                               i2l3114 0E02  
                             i2l3106 0DDE                               i2l3210 09FE  
                             i2l3202 09DA                               i2l3052 12C2  
                             i2l3036 1266                               i2l3028 1242  
                             i2l3132 0E62                               i2l3124 0E3E  
                             i2l3108 0DE2                               i2l3060 0CE2  
                             i2l3300 0BDE                               i2l3220 0A3A  
                             i2l3204 09DE                               i2l3046 12A2  
                             i2l3150 0EC2                               i2l3142 0E9E  
                             i2l3126 0E42                               i2l3118 0E1E  
                             i2l3070 0D1E                               i2l3310 0C1A  
                             i2l3222 0A3E                               i2l3214 0A1A  
                             i2l3048 12A6                               i2l3160 0EFE  
                             i2l3144 0EA2                               i2l3136 0E7E  
                             i2l3072 0D22                               i2l3064 0CFE  
                             i2l3312 0C1E                               i2l3304 0BFA  
                             i2l3240 0A9E                               i2l3232 0A7A  
                             i2l3216 0A1E                               i2l3208 09FA  
                             i2l3400 07F6                               i2l3162 0F02  
                             i2l3154 0EDE                               i2l3138 0E82  
                             i2l3090 0D82                               i2l3082 0D5E  
                             i2l3066 0D02                               i2l3058 0CDE  
                             i2l3330 0C7E                               i2l3322 0C5A  
                             i2l3306 0BFE                               i2l3250 0ADA  
                             i2l3234 0A7E                               i2l3226 0A5A  
                             i2l3402 07FA                               i2l3180 0F62  
                             i2l3172 0F3E                               i2l3156 0EE2  
                             i2l3148 0EBE                               i2l3084 0D62  
                             i2l3076 0D3E                               i2l3340 0CBA  
                             i2l3324 0C5E                               i2l3316 0C3A  
                             i2l3252 0ADE                               i2l3244 0ABA  
                             i2l3228 0A5E                               i2l3420 085A  
                             i2l3412 0836                               i2l3190 0F9E  
                             i2l3174 0F42                               i2l3166 0F1E  
                             i2l3094 0D9E                               i2l3078 0D42  
                             i2l3334 0C9A                               i2l3318 0C3E  
                             i2l3270 0B3E                               i2l3262 0B1A  
                             i2l3246 0ABE                               i2l3238 0A9A  
                             i2l3430 0896                               i2l3414 083A  
                             i2l3406 0816                               i2l3510 0436  
                             i2l3502 0412                       __CFG_WDTEN$OFF 000000  
                             i2l2800 1386                               i2l3192 0FA2  
                             i2l3184 0F7E                               i2l3168 0F22  
                             i2l3096 0DA2                               i2l3088 0D7E  
                             i2l3336 0C9E                               i2l3328 0C7A  
                             i2l3280 0B7A                               i2l3264 0B1E  
                             i2l3256 0AFA                               i2l3432 089A  
                             i2l3424 0876                               i2l3408 081A  
                             i2l3360 071A                               i2l3352 06F6  
                             i2l3600 0616                               i2l3520 0472  
                             i2l3504 0416                               i2l2802 138A  
                             i2l3186 0F82                               i2l3178 0F5E  
                             i2l3282 0B7E                               i2l3274 0B5A  
                             i2l3258 0AFE                               i2l3450 08FA  
                             i2l3442 08D6                               i2l3426 087A  
                             i2l3418 0856                               i2l3370 0756  
                             i2l3354 06FA                               i2l3346 06D6  
                             i2l3610 0652                               i2l3522 0476  
                             i2l3514 0452                               i2l2820 13EA  
                             i2l2812 13C6                               i2l3196 0FBE  
                             i2l3292 0BBA                               i2l3276 0B5E  
                             i2l3268 0B3A                               i2l3460 0936  
                             i2l3444 08DA                               i2l3436 08B6  
                             i2l3372 075A                               i2l3364 0736  
                             i2l3348 06DA                               i2l3612 0656  
                             i2l3604 0632                               i2l3540 04D6  
                             i2l3532 04B2                               i2l3516 0456  
                             i2l3508 0432                               i2l3700 022E  
                             i2l2902 15A6                               i2l2830 1426  
                             i2l2814 13CA                               i2l2806 13A6  
                             i2l3294 0BBE                               i2l3286 0B9A  
                             i2l3462 093A                               i2l3454 0916  
                             i2l3438 08BA                               i2l3390 07BA  
                             i2l3382 0796                               i2l3366 073A  
                             i2l3358 0716                               i2l3622 0692  
                             i2l3606 0636                               i2l3550 0512  
                             i2l3534 04B6                               i2l3526 0492  
                             i2l3702 0232                               i2l2904 15AA  
                             i2l2832 142A                               i2l2824 1406  
                             i2l2808 13AA                               i2l2920 1002  
                             i2l3288 0B9E                               i2l3480 099A  
                             i2l3472 0976                               i2l3456 091A  
                             i2l3448 08F6                               i2l3384 079A  
                             i2l3376 0776                               i2l3624 0696  
                             i2l3616 0672                               i2l3552 0516  
                             i2l3544 04F2                               i2l3528 0496  
                             i2l3720 0292                               i2l3712 026E  
                             i2l3640 00EE                               i2l2850 148A  
                             i2l2842 1466                               i2l2826 140A  
                             i2l2818 13E6                               i2l2770 12E6  
                             i2l2922 1006                               i2l2914 0FE2  
                             i2l3298 0BDA                               i2l3474 097A  
                             i2l3466 0956                               i2l3394 07D6  
                             i2l3378 077A                               i2l3618 0676  
                             i2l3570 0576                               i2l3562 0552  
                             i2l3546 04F6                               i2l3538 04D2  
                             i2l3490 03D2                               i2l3730 02CE  
                             i2l3714 0272                               i2l3706 024E  
                             i2l3642 00F2                               i2l3634 00CE  
                             i2l3802 191C                               i2l2908 15C6  
                             i2l2860 14C6                               i2l2844 146A  
                             i2l2836 1446                               i2l2772 12EA  
                             i2l2940 1066                               i2l2932 1042  
                             i2l2916 0FE6                               i2l3484 09B6  
                             i2l3468 095A                               i2l3396 07DA  
                             i2l3388 07B6                               i2l3628 06B2  
                             i2l3580 05B2                               i2l3564 0556  
                             i2l3556 0532                               i2l3492 03D6  
                             i2l3732 02D2                               i2l3724 02AE  
                             i2l3708 0252                               i2l3660 0152  
                             i2l3652 012E                               i2l3636 00D2  
                             i2l3812 1948                               i2l3910 170E  
                             i2l3902 16EE                               i2l2862 14CA  
                             i2l2854 14A6                               i2l2838 144A  
                             i2l2790 134A                               i2l2782 1326  
                             i2l2950 10A2                               i2l2934 1046  
                             i2l2926 1022                               i2l3478 0996  
                             i2l3582 05B6                               i2l3574 0592  
                             i2l3558 0536                               i2l3750 0332  
                             i2l3742 030E                               i2l3726 02B2  
                             i2l3718 028E                               i2l3670 018E  
                             i2l3654 0132                               i2l3646 010E  
                             i2l3822 1974                               i2l2880 152A  
                             i2l2872 1506                               i2l2856 14AA  
                             i2l2848 1486                               i2l2784 132A  
                             i2l2776 1306                               i2l2952 10A6  
                             i2l2944 1082                               i2l2928 1026  
                             i2l3592 05F2                               i2l3576 0596  
                             i2l3568 0572                               i2l3496 03F2  
                             i2l3760 036E                               i2l3744 0312  
                             i2l3736 02EE                               i2l3672 0192  
                             i2l3664 016E                               i2l3648 0112  
                             i2l3832 19A0                               i2l3808 1934  
                             i2l3930 1760                               i2l3906 16FE  
                             i2l3914 171A                               i2l2890 1566  
                             i2l2874 150A                               i2l2866 14E6  
                             i2l2794 1366                               i2l2778 130A  
                             i2l2970 1106                               i2l2962 10E2  
                             i2l2946 1086                               i2l2938 1062  
                             i2l3594 05F6                               i2l3586 05D2  
                             i2l3498 03F6                               i2l3762 0372  
                             i2l3754 034E                               i2l3738 02F2  
                             i2l3690 01F2                               i2l3682 01CE  
                             i2l3666 0172                               i2l3658 014E  
                             i2l3842 19CC                               i2l3818 1960  
                             i2l3850 19F0                               i2l3916 1724  
                             i2l2892 156A                               i2l2884 1546  
                             i2l2868 14EA                               i2l2796 136A  
                             i2l2788 1346                               i2l2980 1142  
                             i2l2964 10E6                               i2l2956 10C2  
                             i2l3588 05D6                               i2l3772 03AE  
                             i2l3756 0352                               i2l3748 032E  
                             i2l3684 01D2                               i2l3676 01AE  
                             i2l3828 198C                               i2l3942 17A8  
                             i2l3934 1778                               i2l3926 1748  
                             i2l3950 17DE                               i2l2886 154A  
                             i2l2878 1526                               i2l2982 1146  
                             i2l2974 1122                               i2l2958 10C6  
                             i2l3598 0612                               i2l3766 038E  
                             i2l3694 020E                               i2l3678 01B2  
                             i2l3838 19B8                               i2l3782 18C4  
                             i2l3870 1A4E                               i2l2896 1586  
                             i2l2992 1182                               i2l2976 1126  
                             i2l2968 1102                               i2l3768 0392  
                             i2l3696 0212                               i2l3688 01EE  
                             i2l3792 18F0                               i2l3864 1A30  
                             i2l3946 17C0                               i2l3938 1790  
                             i2l3890 16BE                               i2l2898 158A  
                             i2l2994 1186                               i2l2986 1162  
                             i2l3778 18B0                               i2l3858 1A12  
                             i2l3980 1874                               i2l3972 1854  
                             i2l3964 1834                               i2l2988 1166  
                             i2l3788 18DC                               i2l3990 189E  
                             i2l3894 16CE                               i2l2998 11A2  
                             i2l3798 1908                               i2l3984 1884  
                             i2l3976 1864                               i2l3968 1844  
                             i2l3898 16DE                               i2l3988 1892  
                             _RCREG1 000FAE                               _OSCCON 000FD3  
                             _PLLRDY 007E97                               _SPBRG1 000FAF  
                             _TX1STA 000FAC                               _TXREG1 000FAD  
                             _Buffer 0240                       __CFG_XINST$OFF 000000  
                        ?_AppProcess 001A                       __CFG_STVREN$ON 000000  
              SendBuffCh4@idx_color1 001C                SendBuffCh4@idx_color2 001A  
              SendBuffCh4@idx_color3 001B                     ?_TMR0_Initialize 001A  
                             clear_0 1A7E                               clear_1 1A8C  
                             clear_2 1A9E                               clear_3 1AAA  
                __end_of_SendBuffCh1 15CC                  __end_of_SendBuffCh2 12C8  
                __end_of_SendBuffCh3 0FC4                  __end_of_SendBuffCh4 0CC0  
                __end_of_SendBuffCh5 09BC                  __end_of_SendBuffCh6 06B8  
                __end_of_SendBuffCh7 03B4                               _zero_1 1C9C  
                             _zero_2 1C7E                               _zero_3 1C60  
                             _zero_4 1C42                               _zero_5 1C24  
                             _zero_6 1C06                               _zero_7 1BE8  
              __size_of_AppTimer30us 007E                         __pdataCOMRAM 0031  
                             tblptrh 000FF7                               tblptrl 000FF6  
                             tblptru 000FF8                __end_of_TMR0_CallBack 1D6C  
      __size_of_INTERRUPT_Initialize 000A                SendBuffCh5@idx_color1 001C  
              SendBuffCh5@idx_color2 001A                SendBuffCh5@idx_color3 001B  
                  _SYSTEM_Initialize 1CEE                           __accesstop 0060  
            __end_of__initialization 1AB0                   ?_SYSTEM_Initialize 001A  
                      ___rparam_used 000001                       __pcstackCOMRAM 001A  
                       _AppTimer30us 19DA                  ??_SYSTEM_Initialize 0031  
                          ?_TMR0_ISR 001A                SendBuffCh6@idx_color1 001C  
              SendBuffCh6@idx_color2 001A                SendBuffCh6@idx_color3 001B  
             ??_EUSART1_Transmit_ISR 001A          __end_of_EUSART1_Receive_ISR 1CEE  
                   ?_TMR0_StartTimer 001A            __end_of_SYSTEM_Initialize 1D04  
                __size_of_AppProcess 0002                           __pbssBANK0 0060  
                         __pbssBANK1 0100                           __pbssBANK2 0200  
              SendBuffCh7@idx_color1 001C                SendBuffCh7@idx_color2 001A  
              SendBuffCh7@idx_color3 001B               AppTimer30us@count100ms 0033  
                 __CFG_CCP2MX$PORTC1 000000                           _capturando 0007  
                        _SendBuffCh1 12C8                          _SendBuffCh2 0FC4  
                        _SendBuffCh3 0CC0                          _SendBuffCh4 09BC  
                        _SendBuffCh5 06B8                          _SendBuffCh6 03B4  
                        _SendBuffCh7 00B0                          _SendLedsCh1 0019  
                        _SendLedsCh2 0018                          _SendLedsCh3 0017  
                        _SendLedsCh4 0016                          _SendLedsCh5 0015  
                        _SendLedsCh6 0014                          _SendLedsCh7 0013  
                         ??_TMR0_ISR 001D                   __CFG_CCP3MX$PORTB5 000000  
                            ?_zero_1 001A                              ?_zero_2 001A  
                            ?_zero_3 001A                              ?_zero_4 001A  
                            ?_zero_5 001A                              ?_zero_6 001A  
                            ?_zero_7 001A             __end_of_AppINT_USART1_RX 18A4  
                            _OSCCON2 000FD2                              _OSCTUNE 000F9B  
                            _SPBRGH1 000FB0               __size_of_AppInitialize 0006  
                    __CFG_PWRTEN$OFF 000000                              __Hparam 0000  
                            __Lparam 0000      EUSART1_Receive_ISR@byteReceived 0022  
                            _ch1_len 0012                              _ch2_len 0011  
                            _ch3_len 0010                              _ch4_len 000F  
                            _ch5_len 000E                              _ch6_len 000D  
                            _ch7_len 000C                         ?_AppTimer1ms 001A  
                            _channel 0003                              __pcinit 1A58  
                            __ramtop 0600                              __ptext0 1D1A  
                            __ptext1 1CEE                              __ptext2 1D04  
                            __ptext3 1D6C                              __ptext4 1ABA  
                            __ptext5 1D2C                              __ptext6 1D4E  
                            __ptext7 1CBA                              __ptext8 1D74  
                            __ptext9 1D60                            _T0CONbits 000FD5  
                    __size_of_zero_1 001E                      __size_of_zero_2 001E  
                    __size_of_zero_3 001E                      __size_of_zero_4 001E  
                    __size_of_zero_5 001E                      __size_of_zero_6 001E  
                    __size_of_zero_7 001E                _OSCILLATOR_Initialize 1D2C  
                 _EUSART1_Initialize 1CBA             ??_PIN_MANAGER_Initialize 0031  
         __size_of_SYSTEM_Initialize 0016                 end_of_initialization 1AB0  
                ?_EUSART1_Initialize 001A                         ??_AppProcess 0031  
                            postdec1 000FE5                              postinc0 000FEE  
                            postinc2 000FDE                 ??_EUSART1_Initialize 0031  
                      _AppInitialize 1D60                   __end_of_AppProcess 1D76  
               _timer0ReloadVal16bit 0005         __end_of_INTERRUPT_Initialize 1D58  
                      __pidataCOMRAM 1D58                    __size_of_TMR0_ISR 0010  
             ?_OSCILLATOR_Initialize 001A                       ?_AppInitialize 001A  
                     __end_of_zero_1 1CBA                       __end_of_zero_2 1C9C  
                     __end_of_zero_3 1C7E                       __end_of_zero_4 1C60  
                     __end_of_zero_5 1C42                       __end_of_zero_6 1C24  
                     __end_of_zero_7 1C06                  start_initialization 1A58  
           __size_of_TMR0_Initialize 0016      __size_of_PIN_MANAGER_Initialize 0032  
                       ?_SendBuffCh1 001A                         ?_SendBuffCh2 001A  
                       ?_SendBuffCh3 001A                         ?_SendBuffCh4 001A  
                       ?_SendBuffCh5 001A                         ?_SendBuffCh6 001A  
                       ?_SendBuffCh7 001A               __size_of_TMR0_CallBack 0006  
               __size_of_AppTimer1ms 0136                             ??_zero_1 001A  
                           ??_zero_2 001A                             ??_zero_3 001A  
                           ??_zero_4 001A                             ??_zero_5 001A  
                           ??_zero_6 001A                             ??_zero_7 001A  
                        __pbssCOMRAM 0001        __size_of_EUSART1_Transmit_ISR 0004  
                  ?_AppINT_USART1_RX 001A                   ??_AppINT_USART1_RX 001A  
            AppTimer30us@count1000ms 0031         __size_of_EUSART1_Receive_ISR 0018  
             AppINT_USART1_RX@rxData 0021             __size_of_TMR0_StartTimer 0004  
             _PIN_MANAGER_Initialize 1ABA                            __pintcode 0008  
                    ??_AppInitialize 0031         ??_INTERRUPT_InterruptManager 0023  
                   __CFG_PRICLKEN$ON 000000                             _BAUD1CON 000FB8  
                      _TMR0_CallBack 1D66                 _INTERRUPT_Initialize 1D4E  
                  ??_TMR0_Initialize 0031                             _IPR1bits 000F9F  
                           _PIE1bits 000F9D  __size_of_INTERRUPT_InterruptManager 00A4  
                           i2u410_40 19E8                             i2u411_40 1A0A  
                           i2u412_40 1A28                             i2u413_40 1A46  
                           _PIR1bits 000F9E                             i2u443_40 189A  
                           _RCONbits 000FD0                     __CFG_WDTPS$32768 000000  
                           _TMR0_ISR 1D3E                       ?_TMR0_CallBack 001A  
                        _INTCON2bits 000FF1                            copy_data0 1A6C  
              ?_INTERRUPT_Initialize 001A                          _len_package 0008  
                           __Hrparam 0000                             __Lrparam 0000  
                 __CFG_BOREN$SBORDIS 000000                        ?_AppTimer30us 001A  
                  __CFG_P2BMX$PORTB5 000000              ??_OSCILLATOR_Initialize 0031  
                  ??_TMR0_StartTimer 0031                 __size_of_SendBuffCh1 0304  
               __size_of_SendBuffCh2 0304                 __size_of_SendBuffCh3 0304  
               __size_of_SendBuffCh4 0304                 __size_of_SendBuffCh5 0304  
               __size_of_SendBuffCh6 0304                 __size_of_SendBuffCh7 0304  
        __size_of_EUSART1_Initialize 001C                             __ptext11 1D3E  
                           __ptext20 1B10                             __ptext12 1D66  
                           __ptext21 06B8                             __ptext13 19DA  
                           __ptext30 0FC4                             __ptext22 1C24  
                           __ptext14 18A4                             __ptext31 1C7E  
                           __ptext23 1B34                             __ptext15 00B0  
                           __ptext32 1BA0                             __ptext24 09BC  
                           __ptext16 1BE8                             __ptext33 12C8  
                           __ptext25 1C42                             __ptext17 1AEC  
                           __ptext34 1C9C                             __ptext26 1B58  
                           __ptext18 03B4                             __ptext35 1BC4  
                           __ptext27 0CC0                             __ptext19 1C06  
                           __ptext36 1D70                             __ptext28 1C60  
                           __ptext37 1CD6                             __ptext29 1B7C  
                           __ptext38 15CC                        __size_of_main 0012  
                      __size_of_um_1 0024                        __size_of_um_2 0024  
                      __size_of_um_3 0024                        __size_of_um_4 0024  
                      __size_of_um_5 0024                        __size_of_um_6 0024  
                      __size_of_um_7 0024                       ??_AppTimer30us 001D  
                         _RC1STAbits 000FAB                             int$flags 0039  
 __end_of_INTERRUPT_InterruptManager 00AC           _INTERRUPT_InterruptManager 0008  
                _EUSART1_Receive_ISR 1CD6                           _INTCONbits 000FF2  
                    ??_TMR0_CallBack 001D               ??_INTERRUPT_Initialize 0031  
                           intlevel2 0000                 ?_EUSART1_Receive_ISR 001A  
            ?_PIN_MANAGER_Initialize 001A         __end_of_EUSART1_Transmit_ISR 1D74  
          __size_of_AppINT_USART1_RX 02D8                        ??_AppTimer1ms 001D  
                    _TMR0_Initialize 1D04                    __CFG_T3CMX$PORTC0 000000  
              ??_EUSART1_Receive_ISR 0022       __end_of_PIN_MANAGER_Initialize 1AEC  
                  __CFG_FOSC$INTIO67 000000  
